Archive member included to satisfy reference by file (symbol)

arch/arm/lib/lib.a(lib1funcs.o)
                              arch/arm/mach-imx/built-in.o (__aeabi_uidiv)
arch/arm/lib/lib.a(uldivmod.o)
                              lib/built-in.o (__aeabi_uldivmod)
arch/arm/lib/lib.a(div0.o)    arch/arm/lib/lib.a(lib1funcs.o) (__div0)

Discarded input sections

 .data          0x0000000000000000        0x0 arch/arm/cpu/armv7/start.o
 .bss           0x0000000000000000        0x0 arch/arm/cpu/armv7/start.o
 .text.v7_arch_cp15_set_l2aux_ctrl
                0x0000000000000000        0x6 arch/arm/cpu/armv7/built-in.o
 .text.v7_arch_cp15_set_acr
                0x0000000000000000        0x6 arch/arm/cpu/armv7/built-in.o
 .text.sdelay   0x0000000000000000        0x6 arch/arm/cpu/armv7/built-in.o
 .text.wait_on_value
                0x0000000000000000       0x1e arch/arm/cpu/armv7/built-in.o
 .text.s_init   0x0000000000000000        0x4 arch/arm/cpu/armv7/built-in.o
 .data          0x0000000000000000        0x0 arch/arm/cpu/armv7/built-in.o
 .bss           0x0000000000000000        0x0 arch/arm/cpu/armv7/built-in.o
 .text.armv7_boot_nonsec_default
                0x0000000000000000        0x4 arch/arm/lib/built-in.o
 .text.reset_misc
                0x0000000000000000        0x2 arch/arm/lib/built-in.o
 .text.enable_caches
                0x0000000000000000        0xc arch/arm/lib/built-in.o
 .text.invalidate_dcache_range
                0x0000000000000000        0x2 arch/arm/lib/built-in.o
 .text.flush_dcache_range
                0x0000000000000000        0x2 arch/arm/lib/built-in.o
 .text.flush_dcache_all
                0x0000000000000000        0xa arch/arm/lib/built-in.o
 .text.invalidate_l2_cache
                0x0000000000000000        0xc arch/arm/lib/built-in.o
 .text.arm_init_before_mmu
                0x0000000000000000        0x2 arch/arm/lib/built-in.o
 .text.mmu_page_table_flush
                0x0000000000000000        0x2 arch/arm/lib/built-in.o
 .text.fdt_psci
                0x0000000000000000        0x4 arch/arm/lib/built-in.o
 .rodata.enable_caches.str1.1
                0x0000000000000000       0x1d arch/arm/lib/built-in.o
 .data          0x0000000000000000        0x0 arch/arm/lib/built-in.o
 .__secure_end  0x0000000000000000        0x0 arch/arm/lib/built-in.o
 .__secure_stack_end
                0x0000000000000000        0x0 arch/arm/lib/built-in.o
 .__secure_stack_start
                0x0000000000000000        0x0 arch/arm/lib/built-in.o
 .__secure_start
                0x0000000000000000        0x0 arch/arm/lib/built-in.o
 .bss           0x0000000000000000        0x0 arch/arm/lib/built-in.o
 .text          0x0000000000000000        0x0 arch/arm/mach-imx/built-in.o
 .text.imx_iomux_set_gpr_register
                0x0000000000000000       0x3c arch/arm/mach-imx/built-in.o
 .text.cpu_eth_init
                0x0000000000000000        0x4 arch/arm/mach-imx/built-in.o
 .text.cpu_mmc_init
                0x0000000000000000        0x4 arch/arm/mach-imx/built-in.o
 .text.set_chipselect_size
                0x0000000000000000       0x64 arch/arm/mach-imx/built-in.o
 .text.force_idle_bus
                0x0000000000000000      0x14c arch/arm/mach-imx/built-in.o
 .text.setup_i2c
                0x0000000000000000       0x74 arch/arm/mach-imx/built-in.o
 .text.set_dt_val
                0x0000000000000000       0x22 arch/arm/mach-imx/built-in.o
 .text.imx_sec_init
                0x0000000000000000        0x4 arch/arm/mach-imx/built-in.o
 .text.add_dt_path_subnode
                0x0000000000000000       0x22 arch/arm/mach-imx/built-in.o
 .text.add_res_mem_dt_node
                0x0000000000000000      0x134 arch/arm/mach-imx/built-in.o
 .text.imx6_src_get_boot_mode
                0x0000000000000000       0x24 arch/arm/mach-imx/built-in.o
 .text.usec2ticks
                0x0000000000000000       0x48 arch/arm/mach-imx/built-in.o
 .text.get_nr_cpus
                0x0000000000000000       0x10 arch/arm/mach-imx/built-in.o
 .text.gpr_init
                0x0000000000000000       0xb4 arch/arm/mach-imx/built-in.o
 .text.enable_uart_clk
                0x0000000000000000       0x4c arch/arm/mach-imx/built-in.o
 .text.enable_usdhc_clk
                0x0000000000000000       0x38 arch/arm/mach-imx/built-in.o
 .text.enable_spi_clk
                0x0000000000000000       0x2c arch/arm/mach-imx/built-in.o
 .text.enable_lvds_bridge
                0x0000000000000000      0x1ac arch/arm/mach-imx/built-in.o
 .text.enable_ipu_clock
                0x0000000000000000       0x40 arch/arm/mach-imx/built-in.o
 .text.disable_ipu_clock
                0x0000000000000000       0x40 arch/arm/mach-imx/built-in.o
 .text.mx6_ecspi_fused
                0x0000000000000000       0x48 arch/arm/mach-imx/built-in.o
 .text.mx6_uart_fused
                0x0000000000000000       0x6c arch/arm/mach-imx/built-in.o
 .rodata.set_chipselect_size.str1.1
                0x0000000000000000       0x1e arch/arm/mach-imx/built-in.o
 .rodata.force_idle_bus.str1.1
                0x0000000000000000       0x53 arch/arm/mach-imx/built-in.o
 .rodata.setup_i2c.str1.1
                0x0000000000000000       0x18 arch/arm/mach-imx/built-in.o
 .rodata.__func__.9800
                0x0000000000000000        0xf arch/arm/mach-imx/built-in.o
 .rodata.add_res_mem_dt_node.str1.1
                0x0000000000000000       0x59 arch/arm/mach-imx/built-in.o
 .data          0x0000000000000000        0x0 arch/arm/mach-imx/built-in.o
 .bss           0x0000000000000000        0x0 arch/arm/mach-imx/built-in.o
 .text          0x0000000000000000        0x0 board/freescale/common/built-in.o
 .data          0x0000000000000000        0x0 board/freescale/common/built-in.o
 .bss           0x0000000000000000        0x0 board/freescale/common/built-in.o
 .text          0x0000000000000000        0x0 board/freescale/mx6ullevk/built-in.o
 .data          0x0000000000000000        0x0 board/freescale/mx6ullevk/built-in.o
 .bss           0x0000000000000000        0x0 board/freescale/mx6ullevk/built-in.o
 .text          0x0000000000000000        0x0 cmd/built-in.o
 .text.gunzip_bmp
                0x0000000000000000        0x4 cmd/built-in.o
 .text.bootz_setup
                0x0000000000000000       0x14 cmd/built-in.o
 .text.invalidate_icache_all
                0x0000000000000000        0xc cmd/built-in.o
 .text.flush_dcache_all
                0x0000000000000000        0xc cmd/built-in.o
 .text.name_to_gpio
                0x0000000000000000        0x8 cmd/built-in.o
 .text.i2c_init_board
                0x0000000000000000        0x2 cmd/built-in.o
 .text.from_env
                0x0000000000000000       0x1c cmd/built-in.o
 .rodata.bootz_setup.str1.1
                0x0000000000000000       0x34 cmd/built-in.o
 .rodata.invalidate_icache_all.str1.1
                0x0000000000000000       0x33 cmd/built-in.o
 .rodata.flush_dcache_all.str1.1
                0x0000000000000000       0x2e cmd/built-in.o
 .rodata.from_env.str1.1
                0x0000000000000000       0x22 cmd/built-in.o
 .data          0x0000000000000000        0x0 cmd/built-in.o
 .bss           0x0000000000000000        0x0 cmd/built-in.o
 .text          0x0000000000000000        0x0 common/built-in.o
 .text.board_init_f_init_stack_protection_addr
                0x0000000000000000        0x2 common/built-in.o
 .text.board_init_f_init_stack_protection
                0x0000000000000000        0x2 common/built-in.o
 .text.hash_finish_crc32
                0x0000000000000000       0x1c common/built-in.o
 .text.hash_finish_crc16_ccitt
                0x0000000000000000       0x1c common/built-in.o
 .text.hash_update_crc32
                0x0000000000000000       0x14 common/built-in.o
 .text.hash_init_crc32
                0x0000000000000000       0x14 common/built-in.o
 .text.hash_init_crc16_ccitt
                0x0000000000000000       0x14 common/built-in.o
 .text.hash_update_crc16_ccitt
                0x0000000000000000       0x14 common/built-in.o
 .text.hash_lookup_algo
                0x0000000000000000       0x34 common/built-in.o
 .text.hash_progressive_lookup_algo
                0x0000000000000000       0x3c common/built-in.o
 .text.hash_parse_string
                0x0000000000000000       0x3c common/built-in.o
 .text.hash_block
                0x0000000000000000       0x4a common/built-in.o
 .text.unset_local_var
                0x0000000000000000       0x5c common/built-in.o
 .text.arch_cpu_init
                0x0000000000000000        0x4 common/built-in.o
 .text.red_led_off
                0x0000000000000000        0x2 common/built-in.o
 .text.green_led_on
                0x0000000000000000        0x2 common/built-in.o
 .text.green_led_off
                0x0000000000000000        0x2 common/built-in.o
 .text.yellow_led_on
                0x0000000000000000        0x2 common/built-in.o
 .text.yellow_led_off
                0x0000000000000000        0x2 common/built-in.o
 .text.blue_led_on
                0x0000000000000000        0x2 common/built-in.o
 .text.blue_led_off
                0x0000000000000000        0x2 common/built-in.o
 .text.arch_reserve_stacks
                0x0000000000000000        0x4 common/built-in.o
 .text.board_flash_wp_on
                0x0000000000000000        0x4 common/built-in.o
 .text.fixup_cpu
                0x0000000000000000        0x4 common/built-in.o
 .text.checkboard
                0x0000000000000000        0x4 common/built-in.o
 .text.board_quiesce_devices
                0x0000000000000000        0x2 common/built-in.o
 .text.arch_preboot_os
                0x0000000000000000        0x2 common/built-in.o
 .text.fdt_read_prop
                0x0000000000000000       0x3c common/built-in.o
 .text.fdt_getprop_u32_default_node
                0x0000000000000000       0x24 common/built-in.o
 .text.fdt_getprop_u32_default
                0x0000000000000000       0x24 common/built-in.o
 .text.do_fixup_by_path_u32
                0x0000000000000000       0x1a common/built-in.o
 .text.do_fixup_by_prop
                0x0000000000000000       0x64 common/built-in.o
 .text.do_fixup_by_prop_u32
                0x0000000000000000       0x22 common/built-in.o
 .text.do_fixup_by_compat
                0x0000000000000000       0x50 common/built-in.o
 .text.do_fixup_by_compat_u32
                0x0000000000000000       0x1a common/built-in.o
 .text.fdt_set_usable_memory
                0x0000000000000000       0x9c common/built-in.o
 .text.fdt_record_loadable
                0x0000000000000000       0xec common/built-in.o
 .text.fdt_del_node_and_alias
                0x0000000000000000       0x30 common/built-in.o
 .text.fdt_translate_dma_address
                0x0000000000000000        0xc common/built-in.o
 .text.fdt_node_offset_by_compat_reg
                0x0000000000000000       0x5c common/built-in.o
 .text.fdt_alloc_phandle
                0x0000000000000000       0x36 common/built-in.o
 .text.fdt_set_phandle
                0x0000000000000000       0x38 common/built-in.o
 .text.fdt_create_phandle
                0x0000000000000000       0x40 common/built-in.o
 .text.fdt_set_node_status
                0x0000000000000000       0x90 common/built-in.o
 .text.fdt_set_status_by_alias
                0x0000000000000000       0x1c common/built-in.o
 .text.fdt_verify_alias_address
                0x0000000000000000       0x8c common/built-in.o
 .text.fdt_get_base_address
                0x0000000000000000       0x2c common/built-in.o
 .text.fdt_read_range
                0x0000000000000000       0xc8 common/built-in.o
 .text.fdt_setup_simplefb_node
                0x0000000000000000      0x158 common/built-in.o
 .text.fdt_fixup_display
                0x0000000000000000       0x84 common/built-in.o
 .text.mdio_register_seq
                0x0000000000000000       0x24 common/built-in.o
 .text.mdio_list_devices
                0x0000000000000000       0x78 common/built-in.o
 .text.miiphy_set_current_dev
                0x0000000000000000       0x28 common/built-in.o
 .text.miiphy_get_active_dev
                0x0000000000000000       0x30 common/built-in.o
 .text.mdio_get_current_dev
                0x0000000000000000        0xc common/built-in.o
 .text.mdio_get_list_head
                0x0000000000000000        0x8 common/built-in.o
 .text.mdio_phydev_for_ethname
                0x0000000000000000       0x50 common/built-in.o
 .text.miiphy_get_current_dev
                0x0000000000000000       0x10 common/built-in.o
 .text.miiphy_read
                0x0000000000000000       0x28 common/built-in.o
 .text.miiphy_write
                0x0000000000000000       0x24 common/built-in.o
 .text.miiphy_listdev
                0x0000000000000000       0x54 common/built-in.o
 .text.miiphy_info
                0x0000000000000000       0x5c common/built-in.o
 .text.miiphy_speed
                0x0000000000000000       0x80 common/built-in.o
 .text.miiphy_duplex
                0x0000000000000000       0x7c common/built-in.o
 .text.miiphy_is_1000base_x
                0x0000000000000000        0x4 common/built-in.o
 .text.usb_set_protocol
                0x0000000000000000       0x2e common/built-in.o
 .text.usb_set_idle
                0x0000000000000000       0x32 common/built-in.o
 .text.usb_get_report
                0x0000000000000000       0x3a common/built-in.o
 .text.usb_get_class_descriptor
                0x0000000000000000       0x3a common/built-in.o
 .text.usb_hub_probe
                0x0000000000000000       0x3a common/built-in.o
 .text.iomux_printdevs
                0x0000000000000000       0x40 common/built-in.o
 .text.cli_simple_parse_line
                0x0000000000000000       0x50 common/built-in.o
 .text.cli_simple_process_macros
                0x0000000000000000      0x130 common/built-in.o
 .text.cli_simple_run_command
                0x0000000000000000       0xd0 common/built-in.o
 .text.cli_simple_loop
                0x0000000000000000       0x58 common/built-in.o
 .text.cli_simple_run_command_list
                0x0000000000000000       0x3a common/built-in.o
 .text.bounce_buffer_start
                0x0000000000000000       0x4c common/built-in.o
 .text.bounce_buffer_stop
                0x0000000000000000       0x32 common/built-in.o
 .text.fgetc    0x0000000000000000       0x28 common/built-in.o
 .text.ftstc    0x0000000000000000        0xe common/built-in.o
 .text.fputc    0x0000000000000000        0xa common/built-in.o
 .text.fprintf  0x0000000000000000       0x36 common/built-in.o
 .text.console_announce_r
                0x0000000000000000       0x50 common/built-in.o
 .text.valloc   0x0000000000000000        0xa common/built-in.o
 .text.pvalloc  0x0000000000000000       0x14 common/built-in.o
 .text.cfree    0x0000000000000000        0x4 common/built-in.o
 .text.malloc_usable_size
                0x0000000000000000       0x2a common/built-in.o
 .text.mallopt  0x0000000000000000       0x30 common/built-in.o
 .text.malloc_simple_info
                0x0000000000000000        0xc common/built-in.o
 .text.genimg_get_short_name
                0x0000000000000000       0x14 common/built-in.o
 .text.genimg_get_cat_name
                0x0000000000000000       0x38 common/built-in.o
 .text.genimg_get_cat_short_name
                0x0000000000000000       0x38 common/built-in.o
 .text.genimg_get_cat_count
                0x0000000000000000       0x10 common/built-in.o
 .text.genimg_get_cat_desc
                0x0000000000000000       0x10 common/built-in.o
 .text.genimg_get_type_short_name
                0x0000000000000000        0xc common/built-in.o
 .text.genimg_get_comp_short_name
                0x0000000000000000        0xc common/built-in.o
 .text.genimg_get_os_short_name
                0x0000000000000000        0xc common/built-in.o
 .text.genimg_get_arch_short_name
                0x0000000000000000        0xc common/built-in.o
 .text.get_table_entry_id
                0x0000000000000000       0x26 common/built-in.o
 .text.genimg_get_os_id
                0x0000000000000000       0x14 common/built-in.o
 .text.genimg_get_arch_id
                0x0000000000000000       0x14 common/built-in.o
 .text.genimg_get_type_id
                0x0000000000000000       0x14 common/built-in.o
 .text.genimg_get_comp_id
                0x0000000000000000       0x14 common/built-in.o
 .text.genimg_get_kernel_addr
                0x0000000000000000       0x16 common/built-in.o
 .text.android_image_get_kernel_v3
                0x0000000000000000      0x164 common/built-in.o
 .text.android_image_get_dtb_img_addr
                0x0000000000000000      0x108 common/built-in.o
 .text.android_image_check_header_v3
                0x0000000000000000       0x30 common/built-in.o
 .text.android_image_get_dtbo
                0x0000000000000000      0x108 common/built-in.o
 .text.android_image_get_dtb_by_index
                0x0000000000000000       0xac common/built-in.o
 .text.android_image_print_dtb_contents
                0x0000000000000000      0x124 common/built-in.o
 .text.image_arm64
                0x0000000000000000       0x10 common/built-in.o
 .text.android_dt_check_header
                0x0000000000000000       0x10 common/built-in.o
 .text.android_dt_get_fdt_by_index
                0x0000000000000000       0x40 common/built-in.o
 .text.android_dt_print_contents
                0x0000000000000000      0x164 common/built-in.o
 .text.arch_fixup_fdt
                0x0000000000000000        0x4 common/built-in.o
 .text.get_ram_size
                0x0000000000000000       0x9e common/built-in.o
 .text.stdio_init
                0x0000000000000000        0xe common/built-in.o
 .text.run_command_repeatable
                0x0000000000000000       0x12 common/built-in.o
 .text.cmd_discard_repeatable
                0x0000000000000000        0xe common/built-in.o
 .rodata.fdt_set_usable_memory.str1.1
                0x0000000000000000       0x41 common/built-in.o
 .rodata.fdt_record_loadable.str1.1
                0x0000000000000000       0x2e common/built-in.o
 .rodata.fdt_translate_dma_address.str1.1
                0x0000000000000000        0xb common/built-in.o
 .rodata.fdt_set_phandle.str1.1
                0x0000000000000000       0x16 common/built-in.o
 .rodata.fdt_create_phandle.str1.1
                0x0000000000000000       0x1a common/built-in.o
 .rodata.fdt_set_node_status.str1.1
                0x0000000000000000       0x3a common/built-in.o
 .rodata.fdt_verify_alias_address.str1.1
                0x0000000000000000       0xcc common/built-in.o
 .rodata.fdt_read_range.str1.1
                0x0000000000000000        0xf common/built-in.o
 .rodata.fdt_setup_simplefb_node.str1.1
                0x0000000000000000       0x2c common/built-in.o
 .rodata.fdt_fixup_display.str1.1
                0x0000000000000000       0x1c common/built-in.o
 .rodata.__func__.9858
                0x0000000000000000       0x16 common/built-in.o
 .rodata.__func__.9898
                0x0000000000000000       0x14 common/built-in.o
 .rodata.mdio_register_seq.str1.1
                0x0000000000000000        0x6 common/built-in.o
 .rodata.mdio_list_devices.str1.1
                0x0000000000000000       0x19 common/built-in.o
 .rodata.miiphy_set_current_dev.str1.1
                0x0000000000000000       0x14 common/built-in.o
 .rodata.mdio_phydev_for_ethname.str1.1
                0x0000000000000000       0x1c common/built-in.o
 .rodata.miiphy_listdev.str1.1
                0x0000000000000000       0x2a common/built-in.o
 .rodata.miiphy_speed.str1.1
                0x0000000000000000       0x49 common/built-in.o
 .rodata.miiphy_duplex.str1.1
                0x0000000000000000       0x4f common/built-in.o
 .rodata.iomux_printdevs.str1.1
                0x0000000000000000        0x6 common/built-in.o
 .rodata.cli_simple_parse_line.str1.1
                0x0000000000000000       0x1f common/built-in.o
 .rodata.cli_simple_run_command.str1.1
                0x0000000000000000       0x16 common/built-in.o
 .rodata.cli_simple_loop.str1.1
                0x0000000000000000       0x11 common/built-in.o
 .rodata.genimg_get_short_name.str1.1
                0x0000000000000000        0x8 common/built-in.o
 .rodata.genimg_get_os_id.str1.1
                0x0000000000000000        0x3 common/built-in.o
 .rodata.genimg_get_arch_id.str1.1
                0x0000000000000000        0x4 common/built-in.o
 .rodata.genimg_get_type_id.str1.1
                0x0000000000000000        0x6 common/built-in.o
 .rodata.genimg_get_comp_id.str1.1
                0x0000000000000000        0xc common/built-in.o
 .rodata.table_info
                0x0000000000000000       0x30 common/built-in.o
 .rodata.unknown_str.10685
                0x0000000000000000        0x9 common/built-in.o
 .rodata.android_image_get_dtb_img_addr.str1.1
                0x0000000000000000       0x6c common/built-in.o
 .rodata.android_image_check_header_v3.str1.1
                0x0000000000000000        0x9 common/built-in.o
 .rodata.android_image_get_dtbo.str1.1
                0x0000000000000000       0x50 common/built-in.o
 .rodata.android_image_get_dtb_by_index.str1.1
                0x0000000000000000       0x4f common/built-in.o
 .rodata.android_image_print_dtb_contents.str1.1
                0x0000000000000000       0xe3 common/built-in.o
 .rodata.android_dt_get_fdt_by_index.str1.1
                0x0000000000000000       0x2b common/built-in.o
 .rodata.android_dt_print_contents.str1.1
                0x0000000000000000      0x1f8 common/built-in.o
 .data          0x0000000000000000        0x0 common/built-in.o
 .data.hash_algo
                0x0000000000000000       0x38 common/built-in.o
 .data.bmp_logo_palette
                0x0000000000000000      0x1e0 common/built-in.o
 .bss           0x0000000000000000        0x0 common/built-in.o
 .bss.lastcommand.9362
                0x0000000000000000      0x401 common/built-in.o
 .bss.image_save_addr
                0x0000000000000000        0x4 common/built-in.o
 .bss.image_save_size
                0x0000000000000000        0x4 common/built-in.o
 .bss.msg.10686
                0x0000000000000000       0x1e common/built-in.o
 .text          0x0000000000000000        0x0 disk/built-in.o
 .text.part_get_info_by_name_type
                0x0000000000000000       0x48 disk/built-in.o
 .text.part_get_info_by_name
                0x0000000000000000        0x8 disk/built-in.o
 .text.part_get_info_by_dev_and_name_or_num
                0x0000000000000000       0x98 disk/built-in.o
 .text.is_valid_dos_buf
                0x0000000000000000       0x10 disk/built-in.o
 .text.write_mbr_partition
                0x0000000000000000       0x44 disk/built-in.o
 .text.write_mbr_and_gpt_partitions
                0x0000000000000000      0x2f4 disk/built-in.o
 .rodata.part_get_info_by_dev_and_name_or_num.str1.1
                0x0000000000000000       0x54 disk/built-in.o
 .rodata.write_mbr_partition.str1.1
                0x0000000000000000       0x2d disk/built-in.o
 .rodata.__func__.9324
                0x0000000000000000       0x14 disk/built-in.o
 .rodata.__func__.9572
                0x0000000000000000       0x1d disk/built-in.o
 .data          0x0000000000000000        0x0 disk/built-in.o
 .bss           0x0000000000000000        0x0 disk/built-in.o
 .text          0x0000000000000000        0x0 drivers/built-in.o
 .text._device_find_global_by_ofnode
                0x0000000000000000       0x2e drivers/built-in.o
 .text.device_bind_ofnode
                0x0000000000000000       0x16 drivers/built-in.o
 .text.device_get_device_tail.part.0
                0x0000000000000000       0x10 drivers/built-in.o
 .text.device_get_child
                0x0000000000000000       0x30 drivers/built-in.o
 .text.device_get_child_count
                0x0000000000000000       0x1c drivers/built-in.o
 .text.device_find_child_by_seq
                0x0000000000000000       0x3a drivers/built-in.o
 .text.device_get_child_by_seq
                0x0000000000000000       0x2e drivers/built-in.o
 .text.device_find_child_by_of_offset
                0x0000000000000000       0x2e drivers/built-in.o
 .text.device_get_child_by_of_offset
                0x0000000000000000       0x1c drivers/built-in.o
 .text.device_find_global_by_ofnode
                0x0000000000000000       0x1e drivers/built-in.o
 .text.device_get_global_by_ofnode
                0x0000000000000000       0x22 drivers/built-in.o
 .text.device_find_first_inactive_child
                0x0000000000000000       0x3a drivers/built-in.o
 .text.device_find_first_child_by_uclass
                0x0000000000000000       0x32 drivers/built-in.o
 .text.device_find_child_by_name
                0x0000000000000000       0x32 drivers/built-in.o
 .text.device_first_child_err
                0x0000000000000000       0x20 drivers/built-in.o
 .text.device_next_child_err
                0x0000000000000000       0x22 drivers/built-in.o
 .text.device_first_child_ofdata_err
                0x0000000000000000       0x22 drivers/built-in.o
 .text.device_next_child_ofdata_err
                0x0000000000000000       0x26 drivers/built-in.o
 .text.device_has_children
                0x0000000000000000        0xe drivers/built-in.o
 .text.device_set_name
                0x0000000000000000       0x20 drivers/built-in.o
 .text.device_is_compatible
                0x0000000000000000       0x10 drivers/built-in.o
 .text.of_machine_is_compatible
                0x0000000000000000       0x16 drivers/built-in.o
 .text.dev_disable_by_path
                0x0000000000000000        0xc drivers/built-in.o
 .text.dev_enable_by_path
                0x0000000000000000       0x10 drivers/built-in.o
 .text.devfdt_get_addr_name
                0x0000000000000000       0x28 drivers/built-in.o
 .text.devfdt_get_addr_size_name
                0x0000000000000000       0x2c drivers/built-in.o
 .text.devfdt_get_addr_ptr
                0x0000000000000000        0x6 drivers/built-in.o
 .text.devfdt_remap_addr_index
                0x0000000000000000       0x10 drivers/built-in.o
 .text.devfdt_remap_addr_name
                0x0000000000000000       0x10 drivers/built-in.o
 .text.devfdt_remap_addr
                0x0000000000000000        0x6 drivers/built-in.o
 .text.devfdt_map_physmem
                0x0000000000000000       0x10 drivers/built-in.o
 .text.devfdt_get_addr_pci
                0x0000000000000000        0x4 drivers/built-in.o
 .text.dm_fixup_for_gd_move
                0x0000000000000000       0x14 drivers/built-in.o
 .text.dm_uninit
                0x0000000000000000       0x1c drivers/built-in.o
 .text.uclass_destroy
                0x0000000000000000       0x52 drivers/built-in.o
 .text.uclass_get_name
                0x0000000000000000       0x1a drivers/built-in.o
 .text.uclass_get_by_name
                0x0000000000000000       0x2a drivers/built-in.o
 .text.uclass_find_next_free_req_seq
                0x0000000000000000       0x3c drivers/built-in.o
 .text.uclass_find_device_by_of_offset
                0x0000000000000000       0x40 drivers/built-in.o
 .text.uclass_get_device_by_driver
                0x0000000000000000       0x40 drivers/built-in.o
 .text.uclass_get_device_by_of_offset
                0x0000000000000000       0x1c drivers/built-in.o
 .text.uclass_first_device_drvdata
                0x0000000000000000       0x40 drivers/built-in.o
 .text.list_count_items
                0x0000000000000000       0x14 drivers/built-in.o
 .text.pci_get_devfn
                0x0000000000000000       0x2c drivers/built-in.o
 .text.devres_get
                0x0000000000000000       0x2a drivers/built-in.o
 .text.devres_release
                0x0000000000000000       0x24 drivers/built-in.o
 .text.simple_bus_translate
                0x0000000000000000       0x20 drivers/built-in.o
 .text.ofnode_read_fmap_entry
                0x0000000000000000       0x9c drivers/built-in.o
 .text.ofnode_decode_region
                0x0000000000000000       0x2c drivers/built-in.o
 .text.ofnode_decode_memory_region
                0x0000000000000000       0xac drivers/built-in.o
 .text.ofnode_read_s32_default
                0x0000000000000000       0x12 drivers/built-in.o
 .text.ofnode_read_u64
                0x0000000000000000       0x34 drivers/built-in.o
 .text.ofnode_read_u64_default
                0x0000000000000000       0x16 drivers/built-in.o
 .text.ofnode_read_string_index
                0x0000000000000000       0x2c drivers/built-in.o
 .text.ofnode_read_string_count
                0x0000000000000000        0xe drivers/built-in.o
 .text.ofnode_count_phandle_with_args
                0x0000000000000000       0x24 drivers/built-in.o
 .text.ofnode_read_chosen_prop
                0x0000000000000000       0x1c drivers/built-in.o
 .text.ofnode_read_chosen_string
                0x0000000000000000        0x6 drivers/built-in.o
 .text.ofnode_get_chosen_node
                0x0000000000000000       0x18 drivers/built-in.o
 .text.ofnode_get_addr_size
                0x0000000000000000       0x14 drivers/built-in.o
 .text.ofnode_read_pci_addr
                0x0000000000000000       0x68 drivers/built-in.o
 .text.ofnode_read_pci_vendev
                0x0000000000000000       0x90 drivers/built-in.o
 .text.ofnode_read_addr_cells
                0x0000000000000000        0xa drivers/built-in.o
 .text.ofnode_read_size_cells
                0x0000000000000000        0xa drivers/built-in.o
 .text.ofnode_get_addr_size_index
                0x0000000000000000       0x40 drivers/built-in.o
 .text.ofnode_get_addr_index
                0x0000000000000000        0xe drivers/built-in.o
 .text.ofnode_get_addr
                0x0000000000000000        0x6 drivers/built-in.o
 .text.ofnode_read_simple_addr_cells
                0x0000000000000000        0x4 drivers/built-in.o
 .text.ofnode_read_simple_size_cells
                0x0000000000000000        0x4 drivers/built-in.o
 .text.ofnode_read_resource
                0x0000000000000000       0x40 drivers/built-in.o
 .text.ofnode_read_resource_byname
                0x0000000000000000       0x24 drivers/built-in.o
 .text.ofnode_translate_address
                0x0000000000000000        0xe drivers/built-in.o
 .text.ofnode_translate_dma_address
                0x0000000000000000        0xe drivers/built-in.o
 .text.ofnode_device_is_compatible
                0x0000000000000000       0x18 drivers/built-in.o
 .text.ofnode_by_compatible
                0x0000000000000000       0x16 drivers/built-in.o
 .text.ofnode_by_prop_value
                0x0000000000000000       0x1c drivers/built-in.o
 .text.ofnode_write_prop
                0x0000000000000000        0x6 drivers/built-in.o
 .text.ofnode_write_string
                0x0000000000000000        0x6 drivers/built-in.o
 .text.ofnode_set_enabled
                0x0000000000000000        0x6 drivers/built-in.o
 .text.create_keymap
                0x0000000000000000       0x56 drivers/built-in.o
 .text.key_matrix_decode
                0x0000000000000000       0x94 drivers/built-in.o
 .text.key_matrix_decode_fdt
                0x0000000000000000       0x70 drivers/built-in.o
 .text.key_matrix_init
                0x0000000000000000       0x20 drivers/built-in.o
 .text.mtd_check_oob_ops
                0x0000000000000000       0xf4 drivers/built-in.o
 .text.mtd_ooblayout_ecc
                0x0000000000000000       0x3c drivers/built-in.o
 .text.mtd_ooblayout_free
                0x0000000000000000       0x3c drivers/built-in.o
 .text.mtd_ooblayout_find_region
                0x0000000000000000       0x4c drivers/built-in.o
 .text.mtd_ooblayout_get_bytes
                0x0000000000000000       0x56 drivers/built-in.o
 .text.mtd_ooblayout_set_bytes
                0x0000000000000000       0x56 drivers/built-in.o
 .text.idr_remove
                0x0000000000000000       0x14 drivers/built-in.o
 .text.idr_find
                0x0000000000000000        0xe drivers/built-in.o
 .text.idr_get_next
                0x0000000000000000       0x24 drivers/built-in.o
 .text.idr_alloc
                0x0000000000000000       0x2a drivers/built-in.o
 .text.__mtd_next_device
                0x0000000000000000       0x18 drivers/built-in.o
 .text.mtd_dev_list_updated
                0x0000000000000000       0x14 drivers/built-in.o
 .text.del_mtd_device
                0x0000000000000000       0x44 drivers/built-in.o
 .text.__get_mtd_device
                0x0000000000000000       0x20 drivers/built-in.o
 .text.get_mtd_device
                0x0000000000000000       0x58 drivers/built-in.o
 .text.get_mtd_device_nm
                0x0000000000000000       0x34 drivers/built-in.o
 .text.__put_mtd_device
                0x0000000000000000       0x44 drivers/built-in.o
 .text.put_mtd_device
                0x0000000000000000        0x4 drivers/built-in.o
 .text.mtd_erase
                0x0000000000000000       0x6c drivers/built-in.o
 .text.mtd_get_unmapped_area
                0x0000000000000000       0x52 drivers/built-in.o
 .text.mtd_read
                0x0000000000000000       0xb4 drivers/built-in.o
 .text.mtd_write
                0x0000000000000000       0x9a drivers/built-in.o
 .text.mtd_panic_write
                0x0000000000000000       0x64 drivers/built-in.o
 .text.mtd_read_oob
                0x0000000000000000       0x6e drivers/built-in.o
 .text.mtd_write_oob
                0x0000000000000000       0x62 drivers/built-in.o
 .text.mtd_ooblayout_find_eccregion
                0x0000000000000000       0x14 drivers/built-in.o
 .text.mtd_ooblayout_get_eccbytes
                0x0000000000000000       0x18 drivers/built-in.o
 .text.mtd_ooblayout_set_eccbytes
                0x0000000000000000       0x18 drivers/built-in.o
 .text.mtd_ooblayout_get_databytes
                0x0000000000000000       0x18 drivers/built-in.o
 .text.mtd_ooblayout_set_databytes
                0x0000000000000000       0x18 drivers/built-in.o
 .text.mtd_ooblayout_count_freebytes
                0x0000000000000000       0x28 drivers/built-in.o
 .text.mtd_ooblayout_count_eccbytes
                0x0000000000000000       0x28 drivers/built-in.o
 .text.mtd_get_fact_prot_info
                0x0000000000000000       0x1a drivers/built-in.o
 .text.mtd_read_fact_prot_reg
                0x0000000000000000       0x22 drivers/built-in.o
 .text.mtd_get_user_prot_info
                0x0000000000000000       0x1a drivers/built-in.o
 .text.mtd_read_user_prot_reg
                0x0000000000000000       0x24 drivers/built-in.o
 .text.mtd_write_user_prot_reg
                0x0000000000000000       0x38 drivers/built-in.o
 .text.mtd_lock_user_prot_reg
                0x0000000000000000       0x1e drivers/built-in.o
 .text.mtd_lock
                0x0000000000000000       0x5c drivers/built-in.o
 .text.mtd_unlock
                0x0000000000000000       0x5c drivers/built-in.o
 .text.add_mtd_device
                0x0000000000000000      0x148 drivers/built-in.o
 .text.mtd_is_locked
                0x0000000000000000       0x5c drivers/built-in.o
 .text.mtd_block_isreserved
                0x0000000000000000       0x2c drivers/built-in.o
 .text.mtd_block_isbad
                0x0000000000000000       0x2c drivers/built-in.o
 .text.mtd_block_markbad
                0x0000000000000000       0x42 drivers/built-in.o
 .text.mtd_search_alternate_name
                0x0000000000000000       0x88 drivers/built-in.o
 .text.mtd_probe_devices
                0x0000000000000000        0x4 drivers/built-in.o
 .text.spl_flash_get_sw_write_prot
                0x0000000000000000       0x10 drivers/built-in.o
 .text.spi_flash_free
                0x0000000000000000        0xc drivers/built-in.o
 .text.spi_flash_probe
                0x0000000000000000       0x1a drivers/built-in.o
 .text.pinctrl_gpio_get_pinctrl_and_offset.isra.0
                0x0000000000000000       0x4c drivers/built-in.o
 .text.pinctrl_gpio_request
                0x0000000000000000       0x2c drivers/built-in.o
 .text.pinctrl_gpio_free
                0x0000000000000000       0x2c drivers/built-in.o
 .text.pinctrl_request
                0x0000000000000000       0x10 drivers/built-in.o
 .text.pinctrl_request_noflags
                0x0000000000000000        0x6 drivers/built-in.o
 .text.pinctrl_get_periph_id
                0x0000000000000000       0x10 drivers/built-in.o
 .text.pinctrl_get_gpio_mux
                0x0000000000000000       0x10 drivers/built-in.o
 .text.pinctrl_generic_set_state_subnode
                0x0000000000000000      0x194 drivers/built-in.o
 .text.pinctrl_generic_set_state
                0x0000000000000000       0x34 drivers/built-in.o
 .text.blk_get_by_device
                0x0000000000000000       0x2e drivers/built-in.o
 .text.blk_unbind_all
                0x0000000000000000       0x5a drivers/built-in.o
 .text.fastboot_set_reboot_flag
                0x0000000000000000        0xa drivers/built-in.o
 .text.fastboot_get_progress_callback
                0x0000000000000000        0xc drivers/built-in.o
 .text.fastboot_set_progress_callback
                0x0000000000000000        0xc drivers/built-in.o
 .text.process_erase_mmc
                0x0000000000000000      0x110 drivers/built-in.o
 .text.read_from_partition_multi
                0x0000000000000000      0x150 drivers/built-in.o
 .text.fastboot_flash_find_index
                0x0000000000000000       0x24 drivers/built-in.o
 .text.fastboot_flash_get_ptn
                0x0000000000000000       0x1c drivers/built-in.o
 .text.fastboot_flash_get_ptn_count
                0x0000000000000000        0xc drivers/built-in.o
 .text.cpu_mmc_init
                0x0000000000000000        0x6 drivers/built-in.o
 .text.board_mmc_init
                0x0000000000000000        0x6 drivers/built-in.o
 .text.mmc_set_preinit
                0x0000000000000000        0x6 drivers/built-in.o
 .text.mmc_init_device
                0x0000000000000000       0x28 drivers/built-in.o
 .text.mmc_get_next_devnum
                0x0000000000000000        0x6 drivers/built-in.o
 .text.mmc_unbind
                0x0000000000000000       0x20 drivers/built-in.o
 .text.esdhc_status_fixup
                0x0000000000000000        0x4 drivers/built-in.o
 .text.fdt_fixup_esdhc
                0x0000000000000000       0x2c drivers/built-in.o
 .text.rtc_month_days
                0x0000000000000000       0x38 drivers/built-in.o
 .text.rtc_to_tm
                0x0000000000000000      0x13c drivers/built-in.o
 .text.panel_set_backlight
                0x0000000000000000       0x10 drivers/built-in.o
 .text.ofnode_graph_get_endpoint_count
                0x0000000000000000       0x24 drivers/built-in.o
 .text.ofnode_graph_parse_endpoint
                0x0000000000000000       0x38 drivers/built-in.o
 .text.ofnode_graph_get_endpoint_by_regs
                0x0000000000000000       0x40 drivers/built-in.o
 .text.video_get_param_len.constprop.0
                0x0000000000000000       0x12 drivers/built-in.o
 .text.video_get_params
                0x0000000000000000      0x348 drivers/built-in.o
 .text.video_get_video_mode
                0x0000000000000000       0xd0 drivers/built-in.o
 .text.video_get_ctfb_res_modes
                0x0000000000000000       0x8c drivers/built-in.o
 .text.video_get_option_string
                0x0000000000000000       0x70 drivers/built-in.o
 .text.video_get_option_int
                0x0000000000000000       0x52 drivers/built-in.o
 .text.video_edid_dtd_to_ctfb_res_modes
                0x0000000000000000      0x168 drivers/built-in.o
 .rodata.devfdt_get_addr_name.str1.1
                0x0000000000000000        0xa drivers/built-in.o
 .rodata.pci_get_devfn.str1.1
                0x0000000000000000        0x4 drivers/built-in.o
 .rodata.ofnode_read_fmap_entry.str1.1
                0x0000000000000000       0x32 drivers/built-in.o
 .rodata.ofnode_decode_memory_region.str1.1
                0x0000000000000000       0x2d drivers/built-in.o
 .rodata.ofnode_read_chosen_prop.str1.1
                0x0000000000000000        0x8 drivers/built-in.o
 .rodata.ofnode_read_pci_vendev.str1.1
                0x0000000000000000       0x1c drivers/built-in.o
 .rodata.ofnode_get_addr_size_index.str1.1
                0x0000000000000000        0x4 drivers/built-in.o
 .rodata.ofnode_read_resource_byname.str1.1
                0x0000000000000000        0xa drivers/built-in.o
 .rodata.key_matrix_decode_fdt.str1.1
                0x0000000000000000       0x1d drivers/built-in.o
 .rodata.del_mtd_device.str1.1
                0x0000000000000000       0x30 drivers/built-in.o
 .rodata.__put_mtd_device.str1.1
                0x0000000000000000       0x2f drivers/built-in.o
 .rodata.add_mtd_device.str1.1
                0x0000000000000000       0x28 drivers/built-in.o
 .rodata.__func__.11602
                0x0000000000000000        0xf drivers/built-in.o
 .rodata.__func__.11641
                0x0000000000000000       0x11 drivers/built-in.o
 .rodata.mtd_search_alternate_name.str1.1
                0x0000000000000000        0x8 drivers/built-in.o
 .rodata.pinctrl_gpio_get_pinctrl_and_offset.isra.0.str1.1
                0x0000000000000000        0xc drivers/built-in.o
 .rodata.pinctrl_generic_set_state_subnode.str1.1
                0x0000000000000000       0x15 drivers/built-in.o
 .rodata.process_erase_mmc.str1.1
                0x0000000000000000       0x60 drivers/built-in.o
 .rodata.read_from_partition_multi.str1.1
                0x0000000000000000       0x47 drivers/built-in.o
 .rodata.fastboot_flash_find_index.str1.1
                0x0000000000000000       0x24 drivers/built-in.o
 .rodata.rtc_days_in_month
                0x0000000000000000        0xc drivers/built-in.o
 .rodata.ofnode_graph_parse_endpoint.str1.1
                0x0000000000000000        0x4 drivers/built-in.o
 .rodata.video_get_params.str1.1
                0x0000000000000000       0x5d drivers/built-in.o
 .rodata.video_get_video_mode.str1.1
                0x0000000000000000        0xb drivers/built-in.o
 .rodata.video_get_ctfb_res_modes.str1.1
                0x0000000000000000       0x43 drivers/built-in.o
 .rodata.res_mode_init
                0x0000000000000000      0x208 drivers/built-in.o
 .rodata.vesa_modes
                0x0000000000000000       0xe4 drivers/built-in.o
 .bss           0x0000000000000000        0x0 drivers/built-in.o
 .bss.mtd_idr   0x0000000000000000      0x204 drivers/built-in.o
 .bss.desc      0x0000000000000000       0x80 drivers/built-in.o
 .text          0x0000000000000000        0x0 drivers/gpio/built-in.o
 .text.gpio_hog_lookup_name
                0x0000000000000000        0x4 drivers/gpio/built-in.o
 .text.gpio_requestf
                0x0000000000000000       0x2a drivers/gpio/built-in.o
 .text.dm_gpio_get_open_drain
                0x0000000000000000       0x2c drivers/gpio/built-in.o
 .text.dm_gpio_set_open_drain
                0x0000000000000000       0x2c drivers/gpio/built-in.o
 .text.dm_gpio_set_dir
                0x0000000000000000        0x6 drivers/gpio/built-in.o
 .text.gpio_set_value
                0x0000000000000000       0x18 drivers/gpio/built-in.o
 .text.gpio_claim_vector
                0x0000000000000000       0x52 drivers/gpio/built-in.o
 .text.gpio_get_values_as_int
                0x0000000000000000       0x2c drivers/gpio/built-in.o
 .text.dm_gpio_get_values_as_int
                0x0000000000000000       0x32 drivers/gpio/built-in.o
 .text.gpio_get_list_count
                0x0000000000000000       0x28 drivers/gpio/built-in.o
 .text.gpio_get_number
                0x0000000000000000       0x14 drivers/gpio/built-in.o
 .text.gpio_dev_request_index
                0x0000000000000000       0x30 drivers/gpio/built-in.o
 .rodata.dm_gpio_get_open_drain.str1.1
                0x0000000000000000        0xf drivers/gpio/built-in.o
 .rodata.dm_gpio_set_open_drain.str1.1
                0x0000000000000000        0xf drivers/gpio/built-in.o
 .data          0x0000000000000000        0x0 drivers/gpio/built-in.o
 .bss           0x0000000000000000        0x0 drivers/gpio/built-in.o
 .text          0x0000000000000000        0x0 drivers/i2c/built-in.o
 .text.i2c_dump_msgs
                0x0000000000000000       0x64 drivers/i2c/built-in.o
 .text.dm_i2c_xfer
                0x0000000000000000       0x22 drivers/i2c/built-in.o
 .text.dm_i2c_reg_read
                0x0000000000000000       0x1a drivers/i2c/built-in.o
 .text.dm_i2c_reg_write
                0x0000000000000000       0x16 drivers/i2c/built-in.o
 .text.i2c_get_chip_for_busnum
                0x0000000000000000       0x30 drivers/i2c/built-in.o
 .text.i2c_set_chip_addr_offset_mask
                0x0000000000000000        0xe drivers/i2c/built-in.o
 .text.i2c_get_chip_addr_offset_mask
                0x0000000000000000        0xa drivers/i2c/built-in.o
 .text.__enable_i2c_clk
                0x0000000000000000        0x4 drivers/i2c/built-in.o
 .rodata.i2c_dump_msgs.str1.1
                0x0000000000000000       0x1b drivers/i2c/built-in.o
 .data          0x0000000000000000        0x0 drivers/i2c/built-in.o
 .bss           0x0000000000000000        0x0 drivers/i2c/built-in.o
 .text          0x0000000000000000        0x0 drivers/net/built-in.o
 .text.eth_phy_get_addr
                0x0000000000000000       0x38 drivers/net/built-in.o
 .text.imx_get_fecclk
                0x0000000000000000        0x4 drivers/net/built-in.o
 .text.init_clk_fec
                0x0000000000000000        0x2 drivers/net/built-in.o
 .rodata.eth_phy_get_addr.str1.1
                0x0000000000000000        0x4 drivers/net/built-in.o
 .data          0x0000000000000000        0x0 drivers/net/built-in.o
 .bss           0x0000000000000000        0x0 drivers/net/built-in.o
 .text          0x0000000000000000        0x0 drivers/net/phy/built-in.o
 .text.phy_set_supported
                0x0000000000000000       0x38 drivers/net/phy/built-in.o
 .text.miiphy_reset
                0x0000000000000000       0x1a drivers/net/phy/built-in.o
 .text.board_phy_config
                0x0000000000000000        0xc drivers/net/phy/built-in.o
 .text.phy_shutdown
                0x0000000000000000        0xe drivers/net/phy/built-in.o
 .data          0x0000000000000000        0x0 drivers/net/phy/built-in.o
 .bss           0x0000000000000000        0x0 drivers/net/phy/built-in.o
 .text          0x0000000000000000        0x0 drivers/power/regulator/built-in.o
 .text.regulator_show
                0x0000000000000000       0x64 drivers/power/regulator/built-in.o
 .text.regulator_mode
                0x0000000000000000       0x1c drivers/power/regulator/built-in.o
 .text.regulator_set_suspend_value
                0x0000000000000000       0x44 drivers/power/regulator/built-in.o
 .text.regulator_get_suspend_value
                0x0000000000000000       0x1a drivers/power/regulator/built-in.o
 .text.regulator_set_value_force
                0x0000000000000000       0x20 drivers/power/regulator/built-in.o
 .text.regulator_get_current
                0x0000000000000000       0x1c drivers/power/regulator/built-in.o
 .text.regulator_set_current
                0x0000000000000000       0x46 drivers/power/regulator/built-in.o
 .text.regulator_set_value
                0x0000000000000000       0x94 drivers/power/regulator/built-in.o
 .text.regulator_set_enable_if_allowed
                0x0000000000000000       0x1a drivers/power/regulator/built-in.o
 .text.regulator_set_suspend_enable
                0x0000000000000000       0x1e drivers/power/regulator/built-in.o
 .text.regulator_get_suspend_enable
                0x0000000000000000       0x1a drivers/power/regulator/built-in.o
 .text.regulator_get_mode
                0x0000000000000000       0x1c drivers/power/regulator/built-in.o
 .text.regulator_set_mode
                0x0000000000000000       0x20 drivers/power/regulator/built-in.o
 .text.regulator_get_by_platname
                0x0000000000000000       0x46 drivers/power/regulator/built-in.o
 .text.regulator_get_by_devname
                0x0000000000000000        0xa drivers/power/regulator/built-in.o
 .text.regulator_autoset
                0x0000000000000000       0x7a drivers/power/regulator/built-in.o
 .text.regulator_autoset_by_name
                0x0000000000000000       0x1c drivers/power/regulator/built-in.o
 .text.regulator_list_autoset
                0x0000000000000000       0x54 drivers/power/regulator/built-in.o
 .text.regulators_enable_boot_on
                0x0000000000000000       0x4a drivers/power/regulator/built-in.o
 .rodata.regulator_show.str1.1
                0x0000000000000000       0x36 drivers/power/regulator/built-in.o
 .data          0x0000000000000000        0x0 drivers/power/regulator/built-in.o
 .bss           0x0000000000000000        0x0 drivers/power/regulator/built-in.o
 .text          0x0000000000000000        0x0 drivers/serial/built-in.o
 .text.serial_reinit_all
                0x0000000000000000       0x18 drivers/serial/built-in.o
 .data          0x0000000000000000        0x0 drivers/serial/built-in.o
 .bss           0x0000000000000000        0x0 drivers/serial/built-in.o
 .text          0x0000000000000000        0x0 drivers/spi/built-in.o
 .text.dm_spi_get_mmap
                0x0000000000000000       0x2a drivers/spi/built-in.o
 .text.spi_write_then_read
                0x0000000000000000       0x40 drivers/spi/built-in.o
 .text.spi_chip_select
                0x0000000000000000       0x12 drivers/spi/built-in.o
 .text.spi_cs_info
                0x0000000000000000       0x1c drivers/spi/built-in.o
 .text.spi_cs_is_valid
                0x0000000000000000       0x20 drivers/spi/built-in.o
 .text.spi_setup_slave
                0x0000000000000000       0x22 drivers/spi/built-in.o
 .text.spi_free_slave
                0x0000000000000000       0x12 drivers/spi/built-in.o
 .data          0x0000000000000000        0x0 drivers/spi/built-in.o
 .bss           0x0000000000000000        0x0 drivers/spi/built-in.o
 .text          0x0000000000000000        0x0 drivers/usb/common/built-in.o
 .text.usb_get_maximum_speed
                0x0000000000000000       0x48 drivers/usb/common/built-in.o
 .rodata.usb_get_maximum_speed.str1.1
                0x0000000000000000       0x2b drivers/usb/common/built-in.o
 .rodata.speed_names
                0x0000000000000000       0x18 drivers/usb/common/built-in.o
 .data          0x0000000000000000        0x0 drivers/usb/common/built-in.o
 .bss           0x0000000000000000        0x0 drivers/usb/common/built-in.o
 .text          0x0000000000000000        0x0 drivers/usb/eth/built-in.o
 .data          0x0000000000000000        0x0 drivers/usb/eth/built-in.o
 .bss           0x0000000000000000        0x0 drivers/usb/eth/built-in.o
 .text          0x0000000000000000        0x0 drivers/usb/gadget/built-in.o
 .text.usb_gadget_config_buf
                0x0000000000000000       0x54 drivers/usb/gadget/built-in.o
 .text.dfu_usb_get_reset
                0x0000000000000000       0x18 drivers/usb/gadget/built-in.o
 .text.udc_irq_reset
                0x0000000000000000       0x24 drivers/usb/gadget/built-in.o
 .text.ci_udc_check_bus_active
                0x0000000000000000      0x164 drivers/usb/gadget/built-in.o
 .text.usb_function_deactivate
                0x0000000000000000       0x2a drivers/usb/gadget/built-in.o
 .text.usb_function_activate
                0x0000000000000000       0x2a drivers/usb/gadget/built-in.o
 .text.usb_string_ids_tab
                0x0000000000000000       0x28 drivers/usb/gadget/built-in.o
 .text.usb_string_ids_n
                0x0000000000000000       0x1c drivers/usb/gadget/built-in.o
 .text.board_usb_init
                0x0000000000000000        0x4 drivers/usb/gadget/built-in.o
 .text.board_usb_cleanup
                0x0000000000000000        0x4 drivers/usb/gadget/built-in.o
 .data          0x0000000000000000        0x0 drivers/usb/gadget/built-in.o
 .bss           0x0000000000000000        0x0 drivers/usb/gadget/built-in.o
 .text          0x0000000000000000        0x0 drivers/usb/gadget/udc/built-in.o
 .text.usb_gadget_map_request
                0x0000000000000000       0x32 drivers/usb/gadget/udc/built-in.o
 .text.usb_gadget_unmap_request
                0x0000000000000000       0x18 drivers/usb/gadget/udc/built-in.o
 .text.usb_gadget_giveback_request
                0x0000000000000000        0x4 drivers/usb/gadget/udc/built-in.o
 .text.usb_gadget_set_state
                0x0000000000000000        0x4 drivers/usb/gadget/udc/built-in.o
 .text.usb_gadget_udc_reset
                0x0000000000000000        0xe drivers/usb/gadget/udc/built-in.o
 .data          0x0000000000000000        0x0 drivers/usb/gadget/udc/built-in.o
 .bss           0x0000000000000000        0x0 drivers/usb/gadget/udc/built-in.o
 .text          0x0000000000000000        0x0 drivers/usb/host/built-in.o
 .text.create_int_queue
                0x0000000000000000       0x2a drivers/usb/host/built-in.o
 .text.poll_int_queue
                0x0000000000000000       0x20 drivers/usb/host/built-in.o
 .text.destroy_int_queue
                0x0000000000000000       0x22 drivers/usb/host/built-in.o
 .text.usb_setup_ehci_gadget
                0x0000000000000000       0x42 drivers/usb/host/built-in.o
 .text.usb_remove_ehci_gadget
                0x0000000000000000       0x22 drivers/usb/host/built-in.o
 .text.usb_detect_change
                0x0000000000000000       0x68 drivers/usb/host/built-in.o
 .text.ehci_setup_phy
                0x0000000000000000        0x4 drivers/usb/host/built-in.o
 .text.ehci_shutdown_phy
                0x0000000000000000        0x4 drivers/usb/host/built-in.o
 .text.board_usb_phy_mode
                0x0000000000000000        0x4 drivers/usb/host/built-in.o
 .text.board_ehci_power
                0x0000000000000000        0x4 drivers/usb/host/built-in.o
 .data          0x0000000000000000        0x0 drivers/usb/host/built-in.o
 .bss           0x0000000000000000        0x0 drivers/usb/host/built-in.o
 .text          0x0000000000000000        0x0 drivers/usb/imx/built-in.o
 .text.usb_phy_mode
                0x0000000000000000       0x20 drivers/usb/imx/built-in.o
 .data          0x0000000000000000        0x0 drivers/usb/imx/built-in.o
 .bss           0x0000000000000000        0x0 drivers/usb/imx/built-in.o
 .text          0x0000000000000000        0x0 env/built-in.o
 .text.env_erase
                0x0000000000000000       0x58 env/built-in.o
 .text.env_flags_parse_varaccess_from_binflags
                0x0000000000000000       0x30 env/built-in.o
 .text.mmc_get_env_dev
                0x0000000000000000        0x4 env/built-in.o
 .text.mmc_get_env_part
                0x0000000000000000        0x4 env/built-in.o
 .rodata.env_erase.str1.1
                0x0000000000000000       0x1e env/built-in.o
 .rodata.env_flags_parse_varaccess_from_binflags.str1.1
                0x0000000000000000       0x2c env/built-in.o
 .data          0x0000000000000000        0x0 env/built-in.o
 .bss           0x0000000000000000        0x0 env/built-in.o
 .text          0x0000000000000000        0x0 fs/built-in.o
 .text.fs_get_type_name
                0x0000000000000000       0x14 fs/built-in.o
 .text.fs_uuid  0x0000000000000000       0x1c fs/built-in.o
 .text.do_fs_uuid
                0x0000000000000000       0x58 fs/built-in.o
 .text.print_revoke_blks
                0x0000000000000000       0x34 fs/built-in.o
 .text.fat_register_device
                0x0000000000000000       0x54 fs/built-in.o
 .text.file_fat_read
                0x0000000000000000       0x22 fs/built-in.o
 .rodata.print_revoke_blks.str1.1
                0x0000000000000000       0x25 fs/built-in.o
 .rodata.fat_register_device.str1.1
                0x0000000000000000       0x2b fs/built-in.o
 .data          0x0000000000000000        0x0 fs/built-in.o
 .bss           0x0000000000000000        0x0 fs/built-in.o
 .bss.ext4fs_symlinknest
                0x0000000000000000        0x4 fs/built-in.o
 .text          0x0000000000000000        0x0 lib/built-in.o
 .text.efi_serialize_load_option
                0x0000000000000000       0x88 lib/built-in.o
 .text.indent_string
                0x0000000000000000       0x20 lib/built-in.o
 .text.__efi_nesting
                0x0000000000000000        0xc lib/built-in.o
 .text.__efi_nesting_inc
                0x0000000000000000       0x10 lib/built-in.o
 .text.__efi_nesting_dec
                0x0000000000000000       0x10 lib/built-in.o
 .text.form_callback
                0x0000000000000000       0x14 lib/built-in.o
 .text.extract_config_access
                0x0000000000000000       0x14 lib/built-in.o
 .text.route_config_access
                0x0000000000000000       0x14 lib/built-in.o
 .text.invalidate_icache_all
                0x0000000000000000        0x2 lib/built-in.o
 .text.efi_add_runtime_mmio
                0x0000000000000000       0x64 lib/built-in.o
 .text.allow_unaligned
                0x0000000000000000        0x2 lib/built-in.o
 .text.u16_strncmp
                0x0000000000000000       0x22 lib/built-in.o
 .text.u16_strnlen
                0x0000000000000000       0x14 lib/built-in.o
 .text.u16_strcpy
                0x0000000000000000       0x14 lib/built-in.o
 .text.crc7     0x0000000000000000       0x1c lib/built-in.o
 .text.crc8     0x0000000000000000       0x2e lib/built-in.o
 .text.crc16_ccitt_wd_buf
                0x0000000000000000       0x24 lib/built-in.o
 .text.ldiv     0x0000000000000000       0x24 lib/built-in.o
 .text.add_ip_checksums
                0x0000000000000000       0x2c lib/built-in.o
 .text.rc4_encode
                0x0000000000000000       0x92 lib/built-in.o
 .text.inflateInit_
                0x0000000000000000        0xa lib/built-in.o
 .text.fdt_setprop_inplace_namelen_partial
                0x0000000000000000       0x30 lib/built-in.o
 .text.fdt_setprop_inplace
                0x0000000000000000       0x4a lib/built-in.o
 .text.fdt_nop_property
                0x0000000000000000       0x2c lib/built-in.o
 .text.fdt_nop_node
                0x0000000000000000       0x30 lib/built-in.o
 .text.fdt_sw_probe_
                0x0000000000000000       0x28 lib/built-in.o
 .text.fdt_grab_space_
                0x0000000000000000       0x2e lib/built-in.o
 .text.fdt_add_string_
                0x0000000000000000       0x50 lib/built-in.o
 .text.fdt_sw_probe_struct_
                0x0000000000000000       0x18 lib/built-in.o
 .text.fdt_create_with_flags
                0x0000000000000000       0x4c lib/built-in.o
 .text.fdt_create
                0x0000000000000000        0x6 lib/built-in.o
 .text.fdt_resize
                0x0000000000000000       0x8c lib/built-in.o
 .text.fdt_add_reservemap_entry
                0x0000000000000000       0x56 lib/built-in.o
 .text.fdt_finish_reservemap
                0x0000000000000000       0x1a lib/built-in.o
 .text.fdt_begin_node
                0x0000000000000000       0x40 lib/built-in.o
 .text.fdt_end_node
                0x0000000000000000       0x26 lib/built-in.o
 .text.fdt_property_placeholder
                0x0000000000000000       0x90 lib/built-in.o
 .text.fdt_property
                0x0000000000000000       0x22 lib/built-in.o
 .text.fdt_finish
                0x0000000000000000       0x9c lib/built-in.o
 .text.fdt_set_name
                0x0000000000000000       0x5a lib/built-in.o
 .text.fdt_appendprop
                0x0000000000000000       0x88 lib/built-in.o
 .text.fdt_pack
                0x0000000000000000       0x34 lib/built-in.o
 .text.fdt_create_empty_tree
                0x0000000000000000       0x44 lib/built-in.o
 .text.fdt_appendprop_addrrange
                0x0000000000000000       0xce lib/built-in.o
 .text.fdt_get_property_by_offset
                0x0000000000000000       0x20 lib/built-in.o
 .text.fdt_find_max_phandle
                0x0000000000000000       0x3e lib/built-in.o
 .text.fdt_generate_phandle
                0x0000000000000000       0x2a lib/built-in.o
 .text.fdt_get_alias
                0x0000000000000000       0x1a lib/built-in.o
 .text.fdt_get_path
                0x0000000000000000       0xbe lib/built-in.o
 .text.fdt_node_offset_by_prop_value
                0x0000000000000000       0x58 lib/built-in.o
 .text.fdt_stringlist_contains
                0x0000000000000000       0x46 lib/built-in.o
 .text.fdt_stringlist_count
                0x0000000000000000       0x38 lib/built-in.o
 .text.fdt_stringlist_get
                0x0000000000000000       0x60 lib/built-in.o
 .text.fdt_node_check_compatible
                0x0000000000000000       0x28 lib/built-in.o
 .text.fdt_node_offset_by_compatible
                0x0000000000000000       0x40 lib/built-in.o
 .text.fdt_check_full
                0x0000000000000000       0xbc lib/built-in.o
 .text.fdt_add_region
                0x0000000000000000       0x58 lib/built-in.o
 .text.fdt_find_regions
                0x0000000000000000      0x22c lib/built-in.o
 .text.fdt_add_alias_regions
                0x0000000000000000      0x120 lib/built-in.o
 .text.fdt_next_region
                0x0000000000000000      0x334 lib/built-in.o
 .text.fdt_first_region
                0x0000000000000000       0x3a lib/built-in.o
 .text.fdtdec_get_uint
                0x0000000000000000       0x1c lib/built-in.o
 .text.fdtdec_get_compatible
                0x0000000000000000        0xc lib/built-in.o
 .text.fdtdec_get_uint64
                0x0000000000000000       0x24 lib/built-in.o
 .text.get_next_memory_node
                0x0000000000000000       0x38 lib/built-in.o
 .text.fdtdec_lookup
                0x0000000000000000       0x28 lib/built-in.o
 .text.fdtdec_next_compatible
                0x0000000000000000       0x10 lib/built-in.o
 .text.fdtdec_next_compatible_subnode
                0x0000000000000000       0x40 lib/built-in.o
 .text.fdtdec_next_alias
                0x0000000000000000       0x60 lib/built-in.o
 .text.fdtdec_add_aliases_for_id
                0x0000000000000000      0x174 lib/built-in.o
 .text.fdtdec_find_aliases_for_id
                0x0000000000000000       0x30 lib/built-in.o
 .text.fdtdec_get_chosen_prop
                0x0000000000000000       0x24 lib/built-in.o
 .text.fdtdec_get_chosen_node
                0x0000000000000000       0x1c lib/built-in.o
 .text.fdtdec_check_fdt
                0x0000000000000000        0xa lib/built-in.o
 .text.decode_timing_property
                0x0000000000000000       0x4a lib/built-in.o
 .text.fdtdec_locate_array
                0x0000000000000000       0x18 lib/built-in.o
 .text.fdtdec_get_child_count
                0x0000000000000000       0x20 lib/built-in.o
 .text.fdtdec_get_config_bool
                0x0000000000000000       0x2c lib/built-in.o
 .text.fdtdec_decode_display_timing
                0x0000000000000000      0x1e8 lib/built-in.o
 .text.fdtdec_setup_mem_size_base_fdt
                0x0000000000000000       0x44 lib/built-in.o
 .text.fdtdec_setup_mem_size_base
                0x0000000000000000        0x8 lib/built-in.o
 .text.fdtdec_setup_memory_banksize_fdt
                0x0000000000000000       0x6c lib/built-in.o
 .text.fdtdec_setup_memory_banksize
                0x0000000000000000        0x8 lib/built-in.o
 .text.fdtdec_set_ethernet_mac_address
                0x0000000000000000       0x60 lib/built-in.o
 .text.fdtdec_add_reserved_memory
                0x0000000000000000      0x1e0 lib/built-in.o
 .text.fdtdec_get_carveout
                0x0000000000000000       0x80 lib/built-in.o
 .text.fdtdec_set_carveout
                0x0000000000000000       0x48 lib/built-in.o
 .text.fdtdec_decode_ram_size
                0x0000000000000000      0x158 lib/built-in.o
 .text.print_freq
                0x0000000000000000      0x11c lib/built-in.o
 .text.crc32_wd_buf
                0x0000000000000000       0x22 lib/built-in.o
 .text.div64_u64_rem
                0x0000000000000000      0x124 lib/built-in.o
 .text.div64_u64
                0x0000000000000000      0x104 lib/built-in.o
 .text.div64_s64
                0x0000000000000000       0x2e lib/built-in.o
 .text.iter_div_u64_rem
                0x0000000000000000       0x24 lib/built-in.o
 .text.copy_from_user
                0x0000000000000000        0xa lib/built-in.o
 .text.get_mem  0x0000000000000000       0x10 lib/built-in.o
 .text.kmem_cache_alloc
                0x0000000000000000        0xe lib/built-in.o
 .text.kmemdup  0x0000000000000000       0x1e lib/built-in.o
 .text.lmb_init
                0x0000000000000000        0xc lib/built-in.o
 .text.lmb_is_reserved
                0x0000000000000000       0x28 lib/built-in.o
 .text.board_lmb_reserve
                0x0000000000000000        0x2 lib/built-in.o
 .text.arch_lmb_reserve
                0x0000000000000000        0x2 lib/built-in.o
 .text.membuff_purge
                0x0000000000000000        0x8 lib/built-in.o
 .text.membuff_putraw
                0x0000000000000000       0x66 lib/built-in.o
 .text.membuff_putbyte
                0x0000000000000000       0x1c lib/built-in.o
 .text.membuff_getraw
                0x0000000000000000       0x50 lib/built-in.o
 .text.membuff_getbyte
                0x0000000000000000       0x22 lib/built-in.o
 .text.membuff_peekbyte
                0x0000000000000000       0x20 lib/built-in.o
 .text.membuff_get
                0x0000000000000000       0x46 lib/built-in.o
 .text.membuff_put
                0x0000000000000000       0x3e lib/built-in.o
 .text.membuff_isempty
                0x0000000000000000        0xc lib/built-in.o
 .text.membuff_avail
                0x0000000000000000       0x34 lib/built-in.o
 .text.membuff_size
                0x0000000000000000        0x8 lib/built-in.o
 .text.membuff_makecontig
                0x0000000000000000       0x44 lib/built-in.o
 .text.membuff_free
                0x0000000000000000       0x1a lib/built-in.o
 .text.membuff_readline
                0x0000000000000000       0x6a lib/built-in.o
 .text.membuff_extend_by
                0x0000000000000000       0x78 lib/built-in.o
 .text.membuff_init
                0x0000000000000000        0xc lib/built-in.o
 .text.membuff_new
                0x0000000000000000       0x22 lib/built-in.o
 .text.membuff_uninit
                0x0000000000000000        0xc lib/built-in.o
 .text.membuff_dispose
                0x0000000000000000       0x14 lib/built-in.o
 .text.strchrnul
                0x0000000000000000       0x14 lib/built-in.o
 .text.strcspn  0x0000000000000000       0x20 lib/built-in.o
 .text.strndup  0x0000000000000000       0x30 lib/built-in.o
 .text.strswab  0x0000000000000000       0x26 lib/built-in.o
 .text.memscan  0x0000000000000000       0x16 lib/built-in.o
 .text.memchr_inv
                0x0000000000000000       0x98 lib/built-in.o
 .text.table_compute_checksum
                0x0000000000000000       0x18 lib/built-in.o
 .text.get_ticks
                0x0000000000000000       0x26 lib/built-in.o
 .text.timer_init
                0x0000000000000000        0x4 lib/built-in.o
 .text.get_timer
                0x0000000000000000       0x10 lib/built-in.o
 .text.get_timer_us
                0x0000000000000000       0x68 lib/built-in.o
 .text.__udelay
                0x0000000000000000       0x30 lib/built-in.o
 .text.print_hex_dump
                0x0000000000000000        0x2 lib/built-in.o
 .text.print_hex_dump_bytes
                0x0000000000000000        0x2 lib/built-in.o
 .text.panic_str
                0x0000000000000000        0xa lib/built-in.o
 .text.scnprintf
                0x0000000000000000       0x1a lib/built-in.o
 .text.print_grouped_ull
                0x0000000000000000       0x5c lib/built-in.o
 .text.str2long
                0x0000000000000000       0x22 lib/built-in.o
 .text.strmhz   0x0000000000000000       0x4c lib/built-in.o
 .rodata.indent_string.str1.1
                0x0000000000000000       0x15 lib/built-in.o
 .rodata.efi_guid_event_group_ready_to_boot
                0x0000000000000000       0x10 lib/built-in.o
 .rodata.efi_guid_event_group_virtual_address_change
                0x0000000000000000       0x10 lib/built-in.o
 .rodata.efi_guid_hii_config_access_protocol
                0x0000000000000000       0x10 lib/built-in.o
 .rodata.efi_hii_config_access
                0x0000000000000000        0xc lib/built-in.o
 .rodata.crc7_syndrome_table
                0x0000000000000000      0x100 lib/built-in.o
 .rodata.z_errmsg
                0x0000000000000000       0x28 lib/built-in.o
 .rodata.fdt_create_empty_tree.str1.1
                0x0000000000000000        0x1 lib/built-in.o
 .rodata.fdt_node_check_compatible.str1.1
                0x0000000000000000        0xb lib/built-in.o
 .rodata.fdt_add_alias_regions.str1.1
                0x0000000000000000        0x8 lib/built-in.o
 .rodata.get_next_memory_node.str1.1
                0x0000000000000000       0x13 lib/built-in.o
 .rodata.fdtdec_next_alias.str1.1
                0x0000000000000000        0x7 lib/built-in.o
 .rodata.fdtdec_get_chosen_prop.str1.1
                0x0000000000000000        0x8 lib/built-in.o
 .rodata.fdtdec_decode_display_timing.str1.1
                0x0000000000000000       0xca lib/built-in.o
 .rodata.fdtdec_setup_mem_size_base_fdt.str1.1
                0x0000000000000000        0xc lib/built-in.o
 .rodata.fdtdec_set_ethernet_mac_address.str1.1
                0x0000000000000000       0x1b lib/built-in.o
 .rodata.fdtdec_add_reserved_memory.str1.1
                0x0000000000000000       0x51 lib/built-in.o
 .rodata.fdtdec_decode_ram_size.str1.1
                0x0000000000000000       0x21 lib/built-in.o
 .rodata.compat_names
                0x0000000000000000       0x8c lib/built-in.o
 .rodata.names.9479
                0x0000000000000000        0x3 lib/built-in.o
 .rodata.hex_asc_upper
                0x0000000000000000       0x11 lib/built-in.o
 .rodata.print_grouped_ull.str1.1
                0x0000000000000000        0xb lib/built-in.o
 .rodata.strmhz.str1.1
                0x0000000000000000        0xb lib/built-in.o
 .data          0x0000000000000000        0x0 lib/built-in.o
 .data.cur      0x0000000000000000        0x4 lib/built-in.o
 .data.current  0x0000000000000000        0x4 lib/built-in.o
 .bss           0x0000000000000000        0x0 lib/built-in.o
 .bss.nesting_level
                0x0000000000000000        0x4 lib/built-in.o
 .text          0x0000000000000000        0x0 net/built-in.o
 .text.eth_init_state_only
                0x0000000000000000       0x1e net/built-in.o
 .text.net_get_udp_handler
                0x0000000000000000        0xc net/built-in.o
 .text.net_set_arp_handler
                0x0000000000000000       0x18 net/built-in.o
 .text.random_port
                0x0000000000000000       0x12 net/built-in.o
 .text.vlan_to_string
                0x0000000000000000       0x30 net/built-in.o
 .text.env_get_vlan
                0x0000000000000000        0xe net/built-in.o
 .rodata.vlan_to_string.str1.1
                0x0000000000000000        0x8 net/built-in.o
 .data          0x0000000000000000        0x0 net/built-in.o
 .data.tftp_timeout_ms
                0x0000000000000000        0x4 net/built-in.o
 .bss           0x0000000000000000        0x0 net/built-in.o
 .bss.net_busy_flag
                0x0000000000000000        0x4 net/built-in.o
 .text          0x0000000000000000        0x0 arch/arm/lib/eabi_compat.o
 .data          0x0000000000000000        0x0 arch/arm/lib/eabi_compat.o
 .bss           0x0000000000000000        0x0 arch/arm/lib/eabi_compat.o
 .rodata.raise.str1.1
                0x0000000000000000       0x1b arch/arm/lib/eabi_compat.o
 .text.raise    0x0000000000000000       0x14 arch/arm/lib/eabi_compat.o
 .text.__aeabi_unwind_cpp_pr0
                0x0000000000000000        0x2 arch/arm/lib/eabi_compat.o
 .text.__aeabi_unwind_cpp_pr1
                0x0000000000000000        0x2 arch/arm/lib/eabi_compat.o
 .text.__aeabi_memcpy
                0x0000000000000000        0x4 arch/arm/lib/eabi_compat.o
 .text.__aeabi_memset
                0x0000000000000000        0xa arch/arm/lib/eabi_compat.o
 .debug_info    0x0000000000000000      0xc0e arch/arm/lib/eabi_compat.o
 .debug_abbrev  0x0000000000000000      0x288 arch/arm/lib/eabi_compat.o
 .debug_loc     0x0000000000000000      0x12a arch/arm/lib/eabi_compat.o
 .debug_aranges
                0x0000000000000000       0x38 arch/arm/lib/eabi_compat.o
 .debug_ranges  0x0000000000000000       0x28 arch/arm/lib/eabi_compat.o
 .debug_line    0x0000000000000000      0x209 arch/arm/lib/eabi_compat.o
 .debug_str     0x0000000000000000      0xa2c arch/arm/lib/eabi_compat.o
 .comment       0x0000000000000000       0x5b arch/arm/lib/eabi_compat.o
 .note.GNU-stack
                0x0000000000000000        0x0 arch/arm/lib/eabi_compat.o
 .debug_frame   0x0000000000000000       0x68 arch/arm/lib/eabi_compat.o
 .ARM.attributes
                0x0000000000000000       0x2d arch/arm/lib/eabi_compat.o
 .text          0x0000000000000000        0x0 arch/arm/lib/lib.a(lib1funcs.o)
 .data          0x0000000000000000        0x0 arch/arm/lib/lib.a(lib1funcs.o)
 .bss           0x0000000000000000        0x0 arch/arm/lib/lib.a(lib1funcs.o)
 .text.__umodsi3
                0x0000000000000000       0xa0 arch/arm/lib/lib.a(lib1funcs.o)
 .text.__modsi3
                0x0000000000000000       0xb8 arch/arm/lib/lib.a(lib1funcs.o)
 .text          0x0000000000000000        0x0 arch/arm/lib/lib.a(uldivmod.o)
 .data          0x0000000000000000        0x0 arch/arm/lib/lib.a(uldivmod.o)
 .bss           0x0000000000000000        0x0 arch/arm/lib/lib.a(uldivmod.o)
 .text          0x0000000000000000        0x0 arch/arm/lib/lib.a(div0.o)
 .data          0x0000000000000000        0x0 arch/arm/lib/lib.a(div0.o)
 .bss           0x0000000000000000        0x0 arch/arm/lib/lib.a(div0.o)

Memory Configuration

Name             Origin             Length             Attributes
*default*        0x0000000000000000 0xffffffffffffffff

Linker script and memory map

Address of section .text set to 0x87800000
                0x0000000000000000                . = 0x0
                0x0000000000000000                . = ALIGN (0x4)

.text           0x0000000087800000      0x3a8
 *(.__image_copy_start)
 .__image_copy_start
                0x0000000087800000        0x0 arch/arm/lib/built-in.o
                0x0000000087800000                __image_copy_start
 *(.vectors)
 .vectors       0x0000000087800000      0x2e8 arch/arm/lib/built-in.o
                0x0000000087800000                _start
                0x0000000087800020                _undefined_instruction
                0x0000000087800024                _software_interrupt
                0x0000000087800028                _prefetch_abort
                0x000000008780002c                _data_abort
                0x0000000087800030                _not_used
                0x0000000087800034                _irq
                0x0000000087800038                _fiq
                0x0000000087800040                IRQ_STACK_START_IN
 arch/arm/cpu/armv7/start.o(.text*)
 .text          0x00000000878002e8       0xc0 arch/arm/cpu/armv7/start.o
                0x00000000878002e8                reset
                0x00000000878002ec                save_boot_params_ret
                0x0000000087800328                c_runtime_cpu_setup
                0x0000000087800338                save_boot_params
                0x000000008780033c                cpu_init_cp15
                0x000000008780039c                cpu_init_crit

.glue_7         0x00000000878003a8        0x0
 .glue_7        0x00000000878003a8        0x0 linker stubs

.glue_7t        0x00000000878003a8        0x0
 .glue_7t       0x00000000878003a8        0x0 linker stubs

.vfp11_veneer   0x00000000878003a8        0x0
 .vfp11_veneer  0x00000000878003a8        0x0 linker stubs

.v4_bx          0x00000000878003a8        0x0
 .v4_bx         0x00000000878003a8        0x0 linker stubs

.iplt           0x00000000878003a8        0x0
 .iplt          0x00000000878003a8        0x0 arch/arm/cpu/armv7/start.o

.__efi_runtime_start
                0x00000000878003a8        0x0
 *(.__efi_runtime_start)
 .__efi_runtime_start
                0x00000000878003a8        0x0 arch/arm/lib/built-in.o

.efi_runtime    0x00000000878003a8      0x7e8
 *(.text.efi_runtime*)
 .text.efi_runtime
                0x00000000878003a8      0x1a8 lib/built-in.o
                0x00000000878003a8                efi_reset_system
                0x00000000878003aa                efi_get_time
                0x00000000878003b4                efi_set_time
                0x00000000878003d4                efi_update_capsule
                0x00000000878003dc                efi_query_capsule_caps
                0x0000000087800480                efi_update_table_header_crc32
                0x00000000878004ac                efi_query_variable_info
                0x00000000878004b4                crc32_no_comp
                0x0000000087800544                crc32
 .text.efi_runtime_detach
                0x0000000087800550       0x24 lib/built-in.o
                0x0000000087800550                efi_runtime_detach
 .text.efi_runtime_relocate
                0x0000000087800574       0xf8 lib/built-in.o
                0x0000000087800574                efi_runtime_relocate
 *(.rodata.efi_runtime*)
 .rodata.efi_runtime_relocate.str1.1
                0x000000008780066c       0x4e lib/built-in.o
 *(.data.efi_runtime*)
 *fill*         0x00000000878006ba        0x6 
 .data.efi_runtime
                0x00000000878006c0      0x4c8 lib/built-in.o
                0x00000000878006c0                efi_events
                0x00000000878006c8                systab
                0x0000000087800738                efi_runtime_services
 .data.efi_runtime_mmio
                0x0000000087800b88        0x8 lib/built-in.o
                0x0000000087800b88                efi_runtime_mmio

.__efi_runtime_stop
                0x0000000087800b90        0x0
 *(.__efi_runtime_stop)
 .__efi_runtime_stop
                0x0000000087800b90        0x0 arch/arm/lib/built-in.o

.text_rest      0x0000000087800ba0    0x45ac2
 *(.text*)
 .text          0x0000000087800ba0      0x168 arch/arm/cpu/armv7/built-in.o
                0x0000000087800ba0                __v7_flush_dcache_all
                0x0000000087800c3c                v7_flush_dcache_all
                0x0000000087800c4c                __v7_invalidate_dcache_all
                0x0000000087800ce8                v7_invalidate_dcache_all
                0x0000000087800cf8                allow_unaligned
 .text.invalidate_icache_all
                0x0000000087800d08       0x14 arch/arm/cpu/armv7/built-in.o
                0x0000000087800d08                invalidate_icache_all
 .text.v7_outer_cache_enable
                0x0000000087800d1c        0x2 arch/arm/cpu/armv7/built-in.o
                0x0000000087800d1c                v7_outer_cache_enable
 .text.v7_outer_cache_disable
                0x0000000087800d1e        0x2 arch/arm/cpu/armv7/built-in.o
                0x0000000087800d1e                v7_outer_cache_disable
 .text.v7_outer_cache_flush_all
                0x0000000087800d20        0x2 arch/arm/cpu/armv7/built-in.o
                0x0000000087800d20                v7_outer_cache_flush_all
 .text.flush_dcache_all
                0x0000000087800d22        0xe arch/arm/cpu/armv7/built-in.o
                0x0000000087800d22                flush_dcache_all
 .text.v7_outer_cache_inval_all
                0x0000000087800d30        0x2 arch/arm/cpu/armv7/built-in.o
                0x0000000087800d30                v7_outer_cache_inval_all
 .text.invalidate_dcache_all
                0x0000000087800d32        0xe arch/arm/cpu/armv7/built-in.o
                0x0000000087800d32                invalidate_dcache_all
 .text.arm_init_before_mmu
                0x0000000087800d40       0x22 arch/arm/cpu/armv7/built-in.o
                0x0000000087800d40                arm_init_before_mmu
 .text.v7_outer_cache_flush_range
                0x0000000087800d62        0x2 arch/arm/cpu/armv7/built-in.o
                0x0000000087800d62                v7_outer_cache_flush_range
 .text.flush_dcache_range
                0x0000000087800d64       0x38 arch/arm/cpu/armv7/built-in.o
                0x0000000087800d64                flush_dcache_range
 .text.mmu_page_table_flush
                0x0000000087800d9c       0x1e arch/arm/cpu/armv7/built-in.o
                0x0000000087800d9c                mmu_page_table_flush
 .text.v7_outer_cache_inval_range
                0x0000000087800dba        0x2 arch/arm/cpu/armv7/built-in.o
                0x0000000087800dba                v7_outer_cache_inval_range
 .text.invalidate_dcache_range
                0x0000000087800dbc       0x42 arch/arm/cpu/armv7/built-in.o
                0x0000000087800dbc                invalidate_dcache_range
 .text.cpu_cache_initialization
                0x0000000087800dfe        0x2 arch/arm/cpu/armv7/built-in.o
                0x0000000087800dfe                cpu_cache_initialization
 .text.cleanup_before_linux_select
                0x0000000087800e00       0x3e arch/arm/cpu/armv7/built-in.o
                0x0000000087800e00                cleanup_before_linux_select
 .text.cleanup_before_linux
                0x0000000087800e3e        0x6 arch/arm/cpu/armv7/built-in.o
                0x0000000087800e3e                cleanup_before_linux
 .text.lowlevel_init
                0x0000000087800e44       0x24 arch/arm/cpu/armv7/built-in.o
                0x0000000087800e44                lowlevel_init
 *fill*         0x0000000087800e68       0x18 
 .text          0x0000000087800e80      0x424 arch/arm/lib/built-in.o
                0x0000000087800e80                _main
                0x0000000087800f20                memset
                0x0000000087800fc0                memcpy
 .text.setjmp   0x00000000878012a4       0x10 arch/arm/lib/built-in.o
                0x00000000878012a4                setjmp
 .text.longjmp  0x00000000878012b4       0x1c arch/arm/lib/built-in.o
                0x00000000878012b4                longjmp
 .text.relocate_vectors
                0x00000000878012d0       0x70 arch/arm/lib/built-in.o
                0x00000000878012d0                relocate_vectors
                0x00000000878012dc                relocate_code
 .text.arch_fixup_fdt
                0x0000000087801340       0x24 arch/arm/lib/built-in.o
                0x0000000087801340                arch_fixup_fdt
 .text.setup_initrd_tag.isra.0
                0x0000000087801364       0x2c arch/arm/lib/built-in.o
 .text.arch_lmb_reserve
                0x0000000087801390       0x34 arch/arm/lib/built-in.o
                0x0000000087801390                arch_lmb_reserve
 .text.board_quiesce_devices
                0x00000000878013c4        0x2 arch/arm/lib/built-in.o
                0x00000000878013c4                board_quiesce_devices
 *fill*         0x00000000878013c6        0x2 
 .text.boot_jump_linux
                0x00000000878013c8       0x90 arch/arm/lib/built-in.o
 .text.setup_board_tags
                0x0000000087801458        0x2 arch/arm/lib/built-in.o
                0x0000000087801458                setup_board_tags
 .text.board_prep_linux
                0x000000008780145a        0x2 arch/arm/lib/built-in.o
                0x000000008780145a                board_prep_linux
 .text.boot_prep_linux
                0x000000008780145c      0x158 arch/arm/lib/built-in.o
 .text.do_bootm_linux
                0x00000000878015b4       0x44 arch/arm/lib/built-in.o
                0x00000000878015b4                do_bootm_linux
 .text.boot_prep_vxworks
                0x00000000878015f8       0x30 arch/arm/lib/built-in.o
                0x00000000878015f8                boot_prep_vxworks
 .text.boot_jump_vxworks
                0x0000000087801628        0x6 arch/arm/lib/built-in.o
                0x0000000087801628                boot_jump_vxworks
 *fill*         0x000000008780162e        0x2 
 .text.bootz_setup
                0x0000000087801630       0x90 arch/arm/lib/built-in.o
                0x0000000087801630                bootz_setup
 .text.arch_reserve_stacks
                0x00000000878016c0       0x16 arch/arm/lib/built-in.o
                0x00000000878016c0                arch_reserve_stacks
 *fill*         0x00000000878016d6        0x2 
 .text.interrupt_init
                0x00000000878016d8       0x14 arch/arm/lib/built-in.o
                0x00000000878016d8                interrupt_init
 .text.enable_interrupts
                0x00000000878016ec        0x2 arch/arm/lib/built-in.o
                0x00000000878016ec                enable_interrupts
 .text.disable_interrupts
                0x00000000878016ee        0x4 arch/arm/lib/built-in.o
                0x00000000878016ee                disable_interrupts
 *fill*         0x00000000878016f2        0x2 
 .text.bad_mode
                0x00000000878016f4        0xc arch/arm/lib/built-in.o
                0x00000000878016f4                bad_mode
 .text.show_regs
                0x0000000087801700      0x184 arch/arm/lib/built-in.o
                0x0000000087801700                show_regs
 .text.do_undefined_instruction
                0x0000000087801884       0x28 arch/arm/lib/built-in.o
                0x0000000087801884                do_undefined_instruction
 .text.do_software_interrupt
                0x00000000878018ac       0x28 arch/arm/lib/built-in.o
                0x00000000878018ac                do_software_interrupt
 .text.do_prefetch_abort
                0x00000000878018d4       0x28 arch/arm/lib/built-in.o
                0x00000000878018d4                do_prefetch_abort
 .text.do_data_abort
                0x00000000878018fc       0x28 arch/arm/lib/built-in.o
                0x00000000878018fc                do_data_abort
 .text.do_not_used
                0x0000000087801924       0x28 arch/arm/lib/built-in.o
                0x0000000087801924                do_not_used
 .text.do_fiq   0x000000008780194c       0x28 arch/arm/lib/built-in.o
                0x000000008780194c                do_fiq
 .text.do_irq   0x0000000087801974       0x28 arch/arm/lib/built-in.o
                0x0000000087801974                do_irq
 .text.do_reset
                0x000000008780199c       0x28 arch/arm/lib/built-in.o
                0x000000008780199c                do_reset
 .text.flush_cache
                0x00000000878019c4        0x6 arch/arm/lib/built-in.o
                0x00000000878019c4                flush_cache
 *fill*         0x00000000878019ca        0x2 
 .text.check_cache_range
                0x00000000878019cc       0x20 arch/arm/lib/built-in.o
                0x00000000878019cc                check_cache_range
 .text.cache_disable
                0x00000000878019ec       0x3c arch/arm/lib/built-in.o
 .text.arm_init_domains
                0x0000000087801a28        0x2 arch/arm/lib/built-in.o
                0x0000000087801a28                arm_init_domains
 .text.set_section_dcache
                0x0000000087801a2a       0x12 arch/arm/lib/built-in.o
                0x0000000087801a2a                set_section_dcache
 .text.mmu_set_region_dcache_behaviour
                0x0000000087801a3c       0x40 arch/arm/lib/built-in.o
                0x0000000087801a3c                mmu_set_region_dcache_behaviour
 .text.dram_bank_mmu_setup
                0x0000000087801a7c       0x28 arch/arm/lib/built-in.o
                0x0000000087801a7c                dram_bank_mmu_setup
 .text.icache_enable
                0x0000000087801aa4       0x12 arch/arm/lib/built-in.o
                0x0000000087801aa4                icache_enable
 .text.icache_disable
                0x0000000087801ab6        0x8 arch/arm/lib/built-in.o
                0x0000000087801ab6                icache_disable
 .text.icache_status
                0x0000000087801abe        0xa arch/arm/lib/built-in.o
                0x0000000087801abe                icache_status
 .text.dcache_enable
                0x0000000087801ac8       0x6e arch/arm/lib/built-in.o
                0x0000000087801ac8                dcache_enable
 .text.dcache_disable
                0x0000000087801b36        0x6 arch/arm/lib/built-in.o
                0x0000000087801b36                dcache_disable
 .text.dcache_status
                0x0000000087801b3c        0xa arch/arm/lib/built-in.o
                0x0000000087801b3c                dcache_status
 *fill*         0x0000000087801b46        0x2 
 .text.imx_iomux_v3_setup_pad
                0x0000000087801b48       0xd8 arch/arm/mach-imx/built-in.o
                0x0000000087801b48                imx_iomux_v3_setup_pad
 .text.imx_iomux_v3_setup_multiple_pads
                0x0000000087801c20       0x1a arch/arm/mach-imx/built-in.o
                0x0000000087801c20                imx_iomux_v3_setup_multiple_pads
 *fill*         0x0000000087801c3a        0x2 
 .text.get_imx_reset_cause
                0x0000000087801c3c       0x20 arch/arm/mach-imx/built-in.o
                0x0000000087801c3c                get_imx_reset_cause
 .text.get_reset_cause
                0x0000000087801c5c       0xa0 arch/arm/mach-imx/built-in.o
 .text.get_reboot_reason
                0x0000000087801cfc       0x28 arch/arm/mach-imx/built-in.o
                0x0000000087801cfc                get_reboot_reason
 .text.get_imx_type
                0x0000000087801d24      0x268 arch/arm/mach-imx/built-in.o
                0x0000000087801d24                get_imx_type
 .text.print_cpuinfo
                0x0000000087801f8c       0xf8 arch/arm/mach-imx/built-in.o
                0x0000000087801f8c                print_cpuinfo
 .text.get_ahb_clk
                0x0000000087802084       0x1c arch/arm/mach-imx/built-in.o
                0x0000000087802084                get_ahb_clk
 .text.arch_preboot_os
                0x00000000878020a0        0x2 arch/arm/mach-imx/built-in.o
                0x00000000878020a0                arch_preboot_os
 .text.get_clocks
                0x00000000878020a2       0x12 arch/arm/mach-imx/built-in.o
                0x00000000878020a2                get_clocks
 .text.imx_ddr_size
                0x00000000878020b4       0x54 arch/arm/mach-imx/built-in.o
                0x00000000878020b4                imx_ddr_size
 .text.mxs_wait_mask_set
                0x0000000087802108       0x28 arch/arm/mach-imx/built-in.o
                0x0000000087802108                mxs_wait_mask_set
 .text.mxs_wait_mask_clr
                0x0000000087802130       0x26 arch/arm/mach-imx/built-in.o
                0x0000000087802130                mxs_wait_mask_clr
 *fill*         0x0000000087802156        0x2 
 .text.mxs_reset_block
                0x0000000087802158       0x6c arch/arm/mach-imx/built-in.o
                0x0000000087802158                mxs_reset_block
 .text.board_lmb_reserve
                0x00000000878021c4       0x2a arch/arm/mach-imx/built-in.o
                0x00000000878021c4                board_lmb_reserve
 *fill*         0x00000000878021ee        0x2 
 .text.configure_tzc380
                0x00000000878021f0       0x24 arch/arm/mach-imx/built-in.o
                0x00000000878021f0                configure_tzc380
 .text.enable_caches
                0x0000000087802214       0x50 arch/arm/mach-imx/built-in.o
                0x0000000087802214                enable_caches
 .text.init_aips
                0x0000000087802264       0xd4 arch/arm/mach-imx/built-in.o
                0x0000000087802264                init_aips
 .text.imx_wdog_disable_powerdown
                0x0000000087802338       0x98 arch/arm/mach-imx/built-in.o
                0x0000000087802338                imx_wdog_disable_powerdown
 .text.init_src
                0x00000000878023d0       0x18 arch/arm/mach-imx/built-in.o
                0x00000000878023d0                init_src
 .text.boot_mode_apply
                0x00000000878023e8       0x28 arch/arm/mach-imx/built-in.o
                0x00000000878023e8                boot_mode_apply
 .text.imx_get_mac_from_fuse
                0x0000000087802410       0xe4 arch/arm/mach-imx/built-in.o
                0x0000000087802410                imx_get_mac_from_fuse
 .text.timer_init
                0x00000000878024f4       0x3c arch/arm/mach-imx/built-in.o
                0x00000000878024f4                timer_init
 .text.get_ticks
                0x0000000087802530       0x12 arch/arm/mach-imx/built-in.o
                0x0000000087802530                get_ticks
 .text.get_timer
                0x0000000087802542       0x46 arch/arm/mach-imx/built-in.o
                0x0000000087802542                get_timer
 .text.__udelay
                0x0000000087802588       0x8c arch/arm/mach-imx/built-in.o
                0x0000000087802588                __udelay
 .text.get_tbclk
                0x0000000087802614        0x6 arch/arm/mach-imx/built-in.o
                0x0000000087802614                get_tbclk
 *fill*         0x000000008780261a        0x2 
 .text.create_usage
                0x000000008780261c       0x60 arch/arm/mach-imx/built-in.o
 .text.do_boot_mode
                0x000000008780267c       0x88 arch/arm/mach-imx/built-in.o
 .text.add_board_boot_modes
                0x0000000087802704       0x3c arch/arm/mach-imx/built-in.o
                0x0000000087802704                add_board_boot_modes
 .text.get_cpu_rev
                0x0000000087802740       0x9c arch/arm/mach-imx/built-in.o
                0x0000000087802740                get_cpu_rev
 .text.get_cpu_speed_grade_hz
                0x00000000878027dc       0xf4 arch/arm/mach-imx/built-in.o
                0x00000000878027dc                get_cpu_speed_grade_hz
 .text.get_cpu_temp_grade
                0x00000000878028d0       0x48 arch/arm/mach-imx/built-in.o
                0x00000000878028d0                get_cpu_temp_grade
 .text.get_board_rev
                0x0000000087802918       0x26 arch/arm/mach-imx/built-in.o
                0x0000000087802918                get_board_rev
 *fill*         0x000000008780293e        0x2 
 .text.set_ldo_voltage
                0x0000000087802940       0xa4 arch/arm/mach-imx/built-in.o
                0x0000000087802940                set_ldo_voltage
 .text.is_usb_boot
                0x00000000878029e4        0x8 arch/arm/mach-imx/built-in.o
                0x00000000878029e4                is_usb_boot
 .text.mmc_get_boot_dev
                0x00000000878029ec       0x28 arch/arm/mach-imx/built-in.o
 .text.arch_cpu_init
                0x0000000087802a14      0x374 arch/arm/mach-imx/built-in.o
                0x0000000087802a14                arch_cpu_init
 .text.board_mmc_get_env_dev
                0x0000000087802d88        0x2 arch/arm/mach-imx/built-in.o
                0x0000000087802d88                board_mmc_get_env_dev
 *fill*         0x0000000087802d8a        0x2 
 .text.mmc_get_env_dev
                0x0000000087802d8c       0x24 arch/arm/mach-imx/built-in.o
                0x0000000087802d8c                mmc_get_env_dev
 .text.board_mmc_get_env_part
                0x0000000087802db0        0x4 arch/arm/mach-imx/built-in.o
                0x0000000087802db0                board_mmc_get_env_part
 .text.mmc_get_env_part
                0x0000000087802db4       0x16 arch/arm/mach-imx/built-in.o
                0x0000000087802db4                mmc_get_env_part
 .text.board_postclk_init
                0x0000000087802dca       0x1c arch/arm/mach-imx/built-in.o
                0x0000000087802dca                board_postclk_init
 *fill*         0x0000000087802de6        0x2 
 .text.get_board_serial
                0x0000000087802de8       0x14 arch/arm/mach-imx/built-in.o
                0x0000000087802de8                get_board_serial
 .text.get_boot_device
                0x0000000087802dfc       0x4c arch/arm/mach-imx/built-in.o
                0x0000000087802dfc                get_boot_device
 .text.set_wdog_reset
                0x0000000087802e48       0x1a arch/arm/mach-imx/built-in.o
                0x0000000087802e48                set_wdog_reset
 .text.reset_misc
                0x0000000087802e62        0x2 arch/arm/mach-imx/built-in.o
                0x0000000087802e62                reset_misc
 .text.s_init   0x0000000087802e64       0xc4 arch/arm/mach-imx/built-in.o
                0x0000000087802e64                s_init
 .text.get_ipg_clk
                0x0000000087802f28       0x1c arch/arm/mach-imx/built-in.o
 .text.enable_pll_video.constprop.0
                0x0000000087802f44       0xc4 arch/arm/mach-imx/built-in.o
 .text.get_uart_clk
                0x0000000087803008       0xa8 arch/arm/mach-imx/built-in.o
 .text.mxc_get_pll_pfd
                0x00000000878030b0       0x88 arch/arm/mach-imx/built-in.o
 .text.get_usdhc_clk
                0x0000000087803138       0x98 arch/arm/mach-imx/built-in.o
 .text.enable_ocotp_clk
                0x00000000878031d0       0x1c arch/arm/mach-imx/built-in.o
                0x00000000878031d0                enable_ocotp_clk
 .text.enable_usboh3_clk
                0x00000000878031ec       0x20 arch/arm/mach-imx/built-in.o
                0x00000000878031ec                enable_usboh3_clk
 .text.enable_enet_clk
                0x000000008780320c       0x54 arch/arm/mach-imx/built-in.o
                0x000000008780320c                enable_enet_clk
 .text.enable_i2c_clk
                0x0000000087803260       0x94 arch/arm/mach-imx/built-in.o
                0x0000000087803260                enable_i2c_clk
 .text.get_periph_clk
                0x00000000878032f4       0x88 arch/arm/mach-imx/built-in.o
                0x00000000878032f4                get_periph_clk
 .text.get_axi_clk
                0x000000008780337c       0x34 arch/arm/mach-imx/built-in.o
 .text.enable_lcdif_clock
                0x00000000878033b0      0x21c arch/arm/mach-imx/built-in.o
                0x00000000878033b0                enable_lcdif_clock
 .text.mxs_set_lcdclk
                0x00000000878035cc      0x2b0 arch/arm/mach-imx/built-in.o
                0x00000000878035cc                mxs_set_lcdclk
 .text.enable_qspi_clk
                0x000000008780387c       0x78 arch/arm/mach-imx/built-in.o
                0x000000008780387c                enable_qspi_clk
 .text.enable_fec_anatop_clock
                0x00000000878038f4       0xb8 arch/arm/mach-imx/built-in.o
                0x00000000878038f4                enable_fec_anatop_clock
 .text.imx_get_uartclk
                0x00000000878039ac        0x4 arch/arm/mach-imx/built-in.o
                0x00000000878039ac                imx_get_uartclk
 .text.enable_thermal_clk
                0x00000000878039b0       0x44 arch/arm/mach-imx/built-in.o
                0x00000000878039b0                enable_thermal_clk
 .text.mxc_get_clock
                0x00000000878039f4      0x36c arch/arm/mach-imx/built-in.o
                0x00000000878039f4                mxc_get_clock
 .text.imx_get_fecclk
                0x0000000087803d60        0x6 arch/arm/mach-imx/built-in.o
                0x0000000087803d60                imx_get_fecclk
 *fill*         0x0000000087803d66        0x2 
 .text.do_mx6_showclocks
                0x0000000087803d68      0x1c0 arch/arm/mach-imx/built-in.o
                0x0000000087803d68                do_mx6_showclocks
 .text.check_module_fused
                0x0000000087803f28       0x44 arch/arm/mach-imx/built-in.o
                0x0000000087803f28                check_module_fused
 .text.ft_system_setup
                0x0000000087803f6c       0xb4 arch/arm/mach-imx/built-in.o
                0x0000000087803f6c                ft_system_setup
 .text.mx6_esdhc_fused
                0x0000000087804020       0x3c arch/arm/mach-imx/built-in.o
                0x0000000087804020                mx6_esdhc_fused
 .text.mx6_usb_fused
                0x000000008780405c       0x10 arch/arm/mach-imx/built-in.o
                0x000000008780405c                mx6_usb_fused
 .text.mx6_qspi_fused
                0x000000008780406c        0x4 arch/arm/mach-imx/built-in.o
                0x000000008780406c                mx6_qspi_fused
 .text.mx6_i2c_fused
                0x0000000087804070       0x3c arch/arm/mach-imx/built-in.o
                0x0000000087804070                mx6_i2c_fused
 .text.mx6_enet_fused
                0x00000000878040ac       0x20 arch/arm/mach-imx/built-in.o
                0x00000000878040ac                mx6_enet_fused
 .text.mmc_map_to_kernel_blk
                0x00000000878040cc        0x2 board/freescale/common/built-in.o
                0x00000000878040cc                mmc_map_to_kernel_blk
 *fill*         0x00000000878040ce        0x2 
 .text.board_late_mmc_env_init
                0x00000000878040d0       0x6c board/freescale/common/built-in.o
                0x00000000878040d0                board_late_mmc_env_init
 .text.dram_init
                0x000000008780413c        0xe board/freescale/mx6ullevk/built-in.o
                0x000000008780413c                dram_init
 .text.board_phy_config
                0x000000008780414a       0x2e board/freescale/mx6ullevk/built-in.o
                0x000000008780414a                board_phy_config
 .text.board_early_init_f
                0x0000000087804178       0x14 board/freescale/mx6ullevk/built-in.o
                0x0000000087804178                board_early_init_f
 .text.board_init
                0x000000008780418c       0x64 board/freescale/mx6ullevk/built-in.o
                0x000000008780418c                board_init
 .text.board_late_init
                0x00000000878041f0      0x114 board/freescale/mx6ullevk/built-in.o
                0x00000000878041f0                board_late_init
 .text.checkboard
                0x0000000087804304       0x24 board/freescale/mx6ullevk/built-in.o
                0x0000000087804304                checkboard
 .text.do_go_exec
                0x0000000087804328        0x8 cmd/built-in.o
                0x0000000087804328                do_go_exec
 .text.do_go    0x0000000087804330       0x4c cmd/built-in.o
 .text.do_bootm
                0x000000008780437c       0xa0 cmd/built-in.o
                0x000000008780437c                do_bootm
 .text.do_bootd
                0x000000008780441c       0x18 cmd/built-in.o
                0x000000008780441c                do_bootd
 .text.image_info
                0x0000000087804434       0xa4 cmd/built-in.o
 .text.do_iminfo
                0x00000000878044d8       0x3c cmd/built-in.o
 .text.bootm_maybe_autostart
                0x0000000087804514       0x4c cmd/built-in.o
                0x0000000087804514                bootm_maybe_autostart
 .text.do_help  0x0000000087804560       0x2c cmd/built-in.o
 .text.do_version
                0x000000008780458c       0x30 cmd/built-in.o
 .text.blk_common_cmd
                0x00000000878045bc      0x200 cmd/built-in.o
                0x00000000878045bc                blk_common_cmd
 .text.image_source_script
                0x00000000878047bc       0x90 cmd/built-in.o
                0x00000000878047bc                image_source_script
 .text.do_source
                0x000000008780484c       0x34 cmd/built-in.o
 .text.print_num
                0x0000000087804880       0x10 cmd/built-in.o
 .text.do_bdinfo
                0x0000000087804890       0xd4 cmd/built-in.o
 .text.do_blkcache
                0x0000000087804964       0x3c cmd/built-in.o
 .text.blkc_configure
                0x00000000878049a0       0x40 cmd/built-in.o
 .text.blkc_show
                0x00000000878049e0       0x28 cmd/built-in.o
 .text.do_bmp   0x0000000087804a08       0x38 cmd/built-in.o
 .text.do_bmp_info
                0x0000000087804a40       0xac cmd/built-in.o
 .text.bmp_display
                0x0000000087804aec       0x58 cmd/built-in.o
                0x0000000087804aec                bmp_display
 .text.do_bmp_display
                0x0000000087804b44       0x98 cmd/built-in.o
 .text.efi_reserve_memory
                0x0000000087804bdc       0x58 cmd/built-in.o
 .text.do_bootefi_exec
                0x0000000087804c34      0x13c cmd/built-in.o
 .text.efi_install_fdt
                0x0000000087804d70      0x238 cmd/built-in.o
                0x0000000087804d70                efi_install_fdt
 .text.efi_run_image
                0x0000000087804fa8       0x98 cmd/built-in.o
                0x0000000087804fa8                efi_run_image
 .text.do_bootefi
                0x0000000087805040       0xb0 cmd/built-in.o
 .text.efi_set_bootdev
                0x00000000878050f0       0x68 cmd/built-in.o
                0x00000000878050f0                efi_set_bootdev
 .text.do_bootz
                0x0000000087805158       0x9c cmd/built-in.o
                0x0000000087805158                do_bootz
 .text.parse_argv
                0x00000000878051f4       0x3c cmd/built-in.o
 .text.do_icache
                0x0000000087805230       0x5c cmd/built-in.o
 .text.do_dcache
                0x000000008780528c       0x5c cmd/built-in.o
 .text.do_coninfo
                0x00000000878052e8       0x94 cmd/built-in.o
 .text.do_dm_dump_devres
                0x000000008780537c        0x4 cmd/built-in.o
 .text.do_dm    0x0000000087805380       0x44 cmd/built-in.o
 .text.do_dm_dump_drivers
                0x00000000878053c4        0xa cmd/built-in.o
 .text.do_dm_dump_uclass
                0x00000000878053ce        0xa cmd/built-in.o
 .text.do_dm_dump_all
                0x00000000878053d8        0xa cmd/built-in.o
 *fill*         0x00000000878053e2        0x2 
 .text.do_echo  0x00000000878053e4       0x80 cmd/built-in.o
 .text.load_elf_image_phdr
                0x0000000087805464       0xca cmd/built-in.o
 *fill*         0x000000008780552e        0x2 
 .text.valid_elf_image
                0x0000000087805530       0x30 cmd/built-in.o
                0x0000000087805530                valid_elf_image
 .text.do_bootelf
                0x0000000087805560      0x1b4 cmd/built-in.o
                0x0000000087805560                do_bootelf
 .text.do_bootvx
                0x0000000087805714      0x230 cmd/built-in.o
                0x0000000087805714                do_bootvx
 .text.do_exit  0x0000000087805944       0x20 cmd/built-in.o
 .text.do_ext4_size
                0x0000000087805964        0xe cmd/built-in.o
                0x0000000087805964                do_ext4_size
 .text.do_ext4_load
                0x0000000087805972        0xe cmd/built-in.o
                0x0000000087805972                do_ext4_load
 .text.do_ext4_ls
                0x0000000087805980        0xe cmd/built-in.o
                0x0000000087805980                do_ext4_ls
 .text.do_ext4_write
                0x000000008780598e        0xe cmd/built-in.o
                0x000000008780598e                do_ext4_write
 .text.do_ext2load
                0x000000008780599c        0xe cmd/built-in.o
                0x000000008780599c                do_ext2load
 .text.do_ext2ls
                0x00000000878059aa        0xe cmd/built-in.o
 .text.do_fat_size
                0x00000000878059b8        0xe cmd/built-in.o
                0x00000000878059b8                do_fat_size
 .text.do_fat_fsload
                0x00000000878059c6        0xe cmd/built-in.o
                0x00000000878059c6                do_fat_fsload
 .text.do_fat_ls
                0x00000000878059d4        0xe cmd/built-in.o
 *fill*         0x00000000878059e2        0x2 
 .text.do_fat_fsinfo
                0x00000000878059e4       0x54 cmd/built-in.o
 .text.do_fat_fswrite
                0x0000000087805a38       0xd4 cmd/built-in.o
 .text.do_fat_rm
                0x0000000087805b0c        0xe cmd/built-in.o
 .text.do_fat_mkdir
                0x0000000087805b1a        0xe cmd/built-in.o
 .text.fdt_valid
                0x0000000087805b28       0x74 cmd/built-in.o
 .text.is_printable_string
                0x0000000087805b9c       0x4c cmd/built-in.o
 .text.print_data
                0x0000000087805be8      0x104 cmd/built-in.o
 .text.set_working_fdt_addr
                0x0000000087805cec       0x14 cmd/built-in.o
                0x0000000087805cec                set_working_fdt_addr
 .text.do_fdt   0x0000000087805d00      0xa58 cmd/built-in.o
 .text.do_flinfo
                0x0000000087806758        0x4 cmd/built-in.o
 .text.do_protect
                0x000000008780675c        0xc cmd/built-in.o
 .text.do_flerase
                0x0000000087806768        0x4 cmd/built-in.o
 .text.do_size_wrapper
                0x000000008780676c        0xe cmd/built-in.o
 .text.do_load_wrapper
                0x000000008780677a        0xe cmd/built-in.o
 .text.do_save_wrapper
                0x0000000087806788        0xe cmd/built-in.o
 .text.do_ls_wrapper
                0x0000000087806796        0xe cmd/built-in.o
 .text.do_ln_wrapper
                0x00000000878067a4        0xe cmd/built-in.o
 .text.do_fstype_wrapper
                0x00000000878067b2        0x4 cmd/built-in.o
 .text.strtou32
                0x00000000878067b6       0x2c cmd/built-in.o
 *fill*         0x00000000878067e2        0x2 
 .text.do_fuse  0x00000000878067e4      0x238 cmd/built-in.o
 .text.gpio_get_description
                0x0000000087806a1c       0x84 cmd/built-in.o
 .text.do_gpio  0x0000000087806aa0      0x244 cmd/built-in.o
 .text.do_i2c   0x0000000087806ce4       0x3c cmd/built-in.o
 .text.i2c_get_cur_bus
                0x0000000087806d20       0x24 cmd/built-in.o
 .text.do_i2c_bus_speed
                0x0000000087806d44       0x64 cmd/built-in.o
 .text.do_i2c_reset
                0x0000000087806da8       0x24 cmd/built-in.o
 .text.i2c_get_cur_bus_chip
                0x0000000087806dcc       0x1e cmd/built-in.o
 *fill*         0x0000000087806dea        0x2 
 .text.do_i2c_probe
                0x0000000087806dec       0x74 cmd/built-in.o
 .text.do_i2c_bus_num
                0x0000000087806e60       0x70 cmd/built-in.o
 .text.show_bus
                0x0000000087806ed0       0x64 cmd/built-in.o
 .text.do_i2c_olen
                0x0000000087806f34       0x74 cmd/built-in.o
 .text.do_i2c_flags
                0x0000000087806fa8       0x78 cmd/built-in.o
 .text.do_i2c_show_bus
                0x0000000087807020       0x6c cmd/built-in.o
 .text.get_alen.constprop.0
                0x000000008780708c       0x1e cmd/built-in.o
 *fill*         0x00000000878070aa        0x2 
 .text.do_i2c_crc
                0x00000000878070ac       0xe0 cmd/built-in.o
 .text.mod_i2c_mem.isra.0.part.0
                0x000000008780718c      0x158 cmd/built-in.o
 .text.do_i2c_nm
                0x00000000878072e4       0x12 cmd/built-in.o
 *fill*         0x00000000878072f6        0x2 
 .text.do_i2c_md
                0x00000000878072f8      0x16c cmd/built-in.o
 .text.do_i2c_read
                0x0000000087807464       0x90 cmd/built-in.o
 .text.do_i2c_mw
                0x00000000878074f4       0xbc cmd/built-in.o
 .text.do_i2c_write
                0x00000000878075b0      0x104 cmd/built-in.o
 .text.do_i2c_loop
                0x00000000878076b4       0xc0 cmd/built-in.o
 .text.do_i2c_mm
                0x0000000087807774       0x12 cmd/built-in.o
 .text.evalexp  0x0000000087807786       0x4c cmd/built-in.o
 .text.evalstr  0x00000000878077d2       0x3c cmd/built-in.o
 *fill*         0x000000008780780e        0x2 
 .text.binary_test
                0x0000000087807810       0xf4 cmd/built-in.o
 .text.do_itest
                0x0000000087807904       0x4c cmd/built-in.o
 .text.bin_data_init
                0x0000000087807950       0x1c cmd/built-in.o
 .text.k_data_save
                0x000000008780796c       0x34 cmd/built-in.o
 .text.k_data_restore
                0x00000000878079a0       0x34 cmd/built-in.o
 .text.getcxmodem
                0x00000000878079d4       0x16 cmd/built-in.o
 *fill*         0x00000000878079ea        0x2 
 .text.load_serial_ymodem
                0x00000000878079ec       0x90 cmd/built-in.o
 .text.bin_data_char
                0x0000000087807a7c       0x1c cmd/built-in.o
 .text.chk1.constprop.0
                0x0000000087807a98       0x20 cmd/built-in.o
 .text.s1_sendpacket.constprop.0
                0x0000000087807ab8       0x34 cmd/built-in.o
 .text.load_serial
                0x0000000087807aec      0x124 cmd/built-in.o
 .text.do_load_serial
                0x0000000087807c10       0x8c cmd/built-in.o
 .text.do_load_serial_bin
                0x0000000087807c9c      0x528 cmd/built-in.o
 .text.do_mem_md
                0x00000000878081c4       0xa0 cmd/built-in.o
 .text.do_mem_base
                0x0000000087808264       0x28 cmd/built-in.o
 .text.do_mem_crc
                0x000000008780828c       0x2c cmd/built-in.o
 .text.do_mem_mtest
                0x00000000878082b8      0x160 cmd/built-in.o
 .text.do_mem_mw
                0x0000000087808418       0x78 cmd/built-in.o
 .text.do_mem_loop
                0x0000000087808490       0x82 cmd/built-in.o
 *fill*         0x0000000087808512        0x2 
 .text.do_mem_cmp
                0x0000000087808514       0xe8 cmd/built-in.o
 .text.mod_mem.isra.0.part.0
                0x00000000878085fc       0xec cmd/built-in.o
 .text.do_mem_mm
                0x00000000878086e8       0x12 cmd/built-in.o
 *fill*         0x00000000878086fa        0x2 
 .text.do_mem_cp
                0x00000000878086fc       0x70 cmd/built-in.o
 .text.do_random
                0x000000008780876c       0xa0 cmd/built-in.o
 .text.do_mem_nm
                0x000000008780880c       0x12 cmd/built-in.o
 *fill*         0x000000008780881e        0x2 
 .text.do_sleep
                0x0000000087808820       0x84 cmd/built-in.o
 .text.do_mmcops
                0x00000000878088a4       0x84 cmd/built-in.o
 .text.init_mmc_device
                0x0000000087808928       0x48 cmd/built-in.o
 .text.do_mmc_rst_func
                0x0000000087808970       0x5c cmd/built-in.o
 .text.do_mmc_rescan
                0x00000000878089cc       0x18 cmd/built-in.o
 .text.do_mmc_partconf
                0x00000000878089e4       0xa4 cmd/built-in.o
 .text.do_mmc_bootbus
                0x0000000087808a88       0x70 cmd/built-in.o
 .text.do_mmc_hwpartition
                0x0000000087808af8      0x3a0 cmd/built-in.o
 .text.do_mmc_list
                0x0000000087808e98        0xc cmd/built-in.o
 .text.do_mmc_dev
                0x0000000087808ea4       0xc4 cmd/built-in.o
 .text.do_mmcinfo
                0x0000000087808f68      0x2bc cmd/built-in.o
 .text.do_mmc_setdsr
                0x0000000087809224       0x70 cmd/built-in.o
 .text.do_mmc_boot_resize
                0x0000000087809294       0x80 cmd/built-in.o
 .text.do_mmc_part
                0x0000000087809314       0x38 cmd/built-in.o
 .text.do_mmc_erase
                0x000000008780934c       0x9c cmd/built-in.o
 .text.do_mmc_write
                0x00000000878093e8       0xb0 cmd/built-in.o
 .text.do_mmc_read
                0x0000000087809498       0x9c cmd/built-in.o
 .text.mtd_arg_off
                0x0000000087809534       0x50 cmd/built-in.o
                0x0000000087809534                mtd_arg_off
 .text.mtd_arg_off_size
                0x0000000087809584       0xc4 cmd/built-in.o
                0x0000000087809584                mtd_arg_off_size
 .text.netboot_common
                0x0000000087809648      0x1d0 cmd/built-in.o
 .text.do_bootp
                0x0000000087809818        0x8 cmd/built-in.o
 .text.do_dhcp  0x0000000087809820        0x8 cmd/built-in.o
 .text.do_nfs   0x0000000087809828        0x8 cmd/built-in.o
 .text.do_tftpb
                0x0000000087809830       0x26 cmd/built-in.o
                0x0000000087809830                do_tftpb
 *fill*         0x0000000087809856        0x2 
 .text.do_ping  0x0000000087809858       0x48 cmd/built-in.o
 .text.do_pinmux
                0x00000000878098a0       0x40 cmd/built-in.o
 .text.do_list  0x00000000878098e0       0x68 cmd/built-in.o
 .text.show_pinmux
                0x0000000087809948       0x90 cmd/built-in.o
 .text.do_status
                0x00000000878099d8       0x98 cmd/built-in.o
 .text.do_dev   0x0000000087809a70       0x54 cmd/built-in.o
 .text.do_raw_read
                0x0000000087809ac4       0xd4 cmd/built-in.o
                0x0000000087809ac4                do_raw_read
 .text.bytes_per_second
                0x0000000087809b98       0x34 cmd/built-in.o
 .text.do_spi_flash
                0x0000000087809bcc      0x59c cmd/built-in.o
 .text.substitute
                0x000000008780a168       0x98 cmd/built-in.o
 .text.get_arg  0x000000008780a200       0x34 cmd/built-in.o
 .text.regex_sub.part.0
                0x000000008780a234      0x1f8 cmd/built-in.o
 .text.do_setexpr
                0x000000008780a42c       0xf0 cmd/built-in.o
 .text.do_false
                0x000000008780a51c        0x4 cmd/built-in.o
 .text.do_true  0x000000008780a520        0x4 cmd/built-in.o
 .text.do_test  0x000000008780a524      0x200 cmd/built-in.o
 .text.usb_get_class_desc
                0x000000008780a724       0x74 cmd/built-in.o
 .text.usb_display_class_sub
                0x000000008780a798       0xf8 cmd/built-in.o
 .text.usb_display_desc
                0x000000008780a890       0xf8 cmd/built-in.o
 .text.usb_show_tree_graph
                0x000000008780a988      0x178 cmd/built-in.o
 .text.usb_show_subtree
                0x000000008780ab00       0x1c cmd/built-in.o
 .text.usb_for_each_root_dev
                0x000000008780ab1c       0x3c cmd/built-in.o
 .text.usb_display_string
                0x000000008780ab58       0x2c cmd/built-in.o
 .text.usb_display_config
                0x000000008780ab84      0x1ac cmd/built-in.o
 .text.usb_show_info
                0x000000008780ad30       0x4a cmd/built-in.o
 .text.usb_find_device
                0x000000008780ad7a       0x64 cmd/built-in.o
 *fill*         0x000000008780adde        0x2 
 .text.do_usbboot
                0x000000008780ade0        0xc cmd/built-in.o
 .text.do_usb_start
                0x000000008780adec       0x20 cmd/built-in.o
 .text.usb_show_tree
                0x000000008780ae0c        0xc cmd/built-in.o
                0x000000008780ae0c                usb_show_tree
 .text.do_usb   0x000000008780ae18      0x294 cmd/built-in.o
 .text.common_diskboot
                0x000000008780b0ac      0x174 cmd/built-in.o
                0x000000008780b0ac                common_diskboot
 .text.do_fastboot
                0x000000008780b220      0x148 cmd/built-in.o
 .text.ums_fini
                0x000000008780b368       0x34 cmd/built-in.o
 .text.ums_write_sector
                0x000000008780b39c        0xe cmd/built-in.o
 .text.ums_read_sector
                0x000000008780b3aa        0xe cmd/built-in.o
 .text.do_usb_mass_storage
                0x000000008780b3b8      0x238 cmd/built-in.o
 .text.do_imgextract
                0x000000008780b5f0      0x1b4 cmd/built-in.o
 .text.del_gpt_info
                0x000000008780b7a4       0x28 cmd/built-in.o
 .text.extract_val
                0x000000008780b7cc       0x58 cmd/built-in.o
 .text.calc_parts_list_len
                0x000000008780b824       0x54 cmd/built-in.o
 .text.extract_env
                0x000000008780b878       0xa0 cmd/built-in.o
 .text.get_gpt_info
                0x000000008780b918       0xc4 cmd/built-in.o
 .text.create_gpt_partitions_list.isra.0
                0x000000008780b9dc       0xd0 cmd/built-in.o
 .text.set_gpt_info.isra.0
                0x000000008780baac      0x30c cmd/built-in.o
 .text.print_gpt_info
                0x000000008780bdb8       0xb4 cmd/built-in.o
 .text.do_gpt   0x000000008780be6c      0x484 cmd/built-in.o
 .text.do_env_delete
                0x000000008780c2f0       0x6c cmd/built-in.o
 .text.do_env_save
                0x000000008780c35c        0xe cmd/built-in.o
 *fill*         0x000000008780c36a        0x2 
 .text.do_env   0x000000008780c36c       0x3c cmd/built-in.o
 .text.env_print
                0x000000008780c3a8       0x78 cmd/built-in.o
 .text.do_env_print
                0x000000008780c420       0x78 cmd/built-in.o
 .text.do_env_import
                0x000000008780c498      0x1a0 cmd/built-in.o
 .text.do_env_default
                0x000000008780c638       0x5c cmd/built-in.o
 .text.do_env_exists
                0x000000008780c694       0x40 cmd/built-in.o
 .text._do_env_set.isra.0
                0x000000008780c6d4      0x120 cmd/built-in.o
 .text.do_env_set
                0x000000008780c7f4       0x14 cmd/built-in.o
 .text.env_get_id
                0x000000008780c808        0xc cmd/built-in.o
                0x000000008780c808                env_get_id
 .text.env_set  0x000000008780c814       0x3c cmd/built-in.o
                0x000000008780c814                env_set
 .text.env_set_ulong
                0x000000008780c850       0x16 cmd/built-in.o
                0x000000008780c850                env_set_ulong
 *fill*         0x000000008780c866        0x2 
 .text.env_set_hex
                0x000000008780c868       0x20 cmd/built-in.o
                0x000000008780c868                env_set_hex
 .text.do_env_export
                0x000000008780c888      0x158 cmd/built-in.o
 .text.env_match
                0x000000008780c9e0       0x48 cmd/built-in.o
                0x000000008780c9e0                env_match
 .text.env_get_f
                0x000000008780ca28       0x84 cmd/built-in.o
                0x000000008780ca28                env_get_f
 .text.env_get  0x000000008780caac       0x50 cmd/built-in.o
                0x000000008780caac                env_get
 .text.env_get_hex
                0x000000008780cafc       0x20 cmd/built-in.o
                0x000000008780cafc                env_get_hex
 .text.eth_env_get_enetaddr
                0x000000008780cb1c       0x34 cmd/built-in.o
                0x000000008780cb1c                eth_env_get_enetaddr
 .text.eth_env_set_enetaddr
                0x000000008780cb50       0x30 cmd/built-in.o
                0x000000008780cb50                eth_env_set_enetaddr
 .text.env_get_ulong
                0x000000008780cb80       0x1c cmd/built-in.o
                0x000000008780cb80                env_get_ulong
 .text.do_env_edit.part.0
                0x000000008780cb9c       0x70 cmd/built-in.o
 .text.do_env_edit
                0x000000008780cc0c       0x1c cmd/built-in.o
 .text.board_init_f_alloc_reserve
                0x000000008780cc28        0xc common/built-in.o
                0x000000008780cc28                board_init_f_alloc_reserve
 .text.board_init_f_init_reserve
                0x000000008780cc34       0x14 common/built-in.o
                0x000000008780cc34                board_init_f_init_reserve
 .text.show_boot_progress
                0x000000008780cc48        0x4 common/built-in.o
                0x000000008780cc48                show_boot_progress
 .text.main_loop
                0x000000008780cc4c       0x34 common/built-in.o
                0x000000008780cc4c                main_loop
 .text.mdelay   0x000000008780cc80        0xa common/built-in.o
 .text.dummy    0x000000008780cc8a        0x2 common/built-in.o
 .text.get_version
                0x000000008780cc8c        0x4 common/built-in.o
                0x000000008780cc8c                get_version
 .text.jumptable_init
                0x000000008780cc90      0x160 common/built-in.o
                0x000000008780cc90                jumptable_init
 .text.hash_command
                0x000000008780cdf0       0x74 common/built-in.o
                0x000000008780cdf0                hash_command
 .text.b_reset  0x000000008780ce64        0xe common/built-in.o
 .text.static_get
                0x000000008780ce72       0x12 common/built-in.o
 .text.static_peek
                0x000000008780ce84        0x6 common/built-in.o
 *fill*         0x000000008780ce8a        0x2 
 .text.mapset   0x000000008780ce8c       0x14 common/built-in.o
 .text.syntax_err
                0x000000008780cea0        0xc common/built-in.o
 .text.free_pipe_list
                0x000000008780ceac       0x90 common/built-in.o
 .text.xmalloc  0x000000008780cf3c       0x18 common/built-in.o
 .text.new_pipe
                0x000000008780cf54       0x16 common/built-in.o
 *fill*         0x000000008780cf6a        0x2 
 .text.xrealloc
                0x000000008780cf6c       0x18 common/built-in.o
 .text.done_command
                0x000000008780cf84       0x42 common/built-in.o
 .text.done_pipe
                0x000000008780cfc6       0x2c common/built-in.o
 *fill*         0x000000008780cff2        0x2 
 .text.done_word
                0x000000008780cff4      0x1c0 common/built-in.o
 .text.is_assignment
                0x000000008780d1b4       0x30 common/built-in.o
 .text.file_get
                0x000000008780d1e4      0x138 common/built-in.o
 .text.do_showvar
                0x000000008780d31c       0xa0 common/built-in.o
 .text.b_addchr
                0x000000008780d3bc       0x42 common/built-in.o
 *fill*         0x000000008780d3fe        0x2 
 .text.b_addqchr
                0x000000008780d400       0x30 common/built-in.o
 .text.file_peek
                0x000000008780d430        0x6 common/built-in.o
 *fill*         0x000000008780d436        0x2 
 .text.get_local_var
                0x000000008780d438       0x58 common/built-in.o
                0x000000008780d438                get_local_var
 .text.set_local_var
                0x000000008780d490      0x108 common/built-in.o
                0x000000008780d490                set_local_var
 .text.insert_var_value_sub
                0x000000008780d598      0x1bc common/built-in.o
 .text.parse_string_outer
                0x000000008780d754       0x90 common/built-in.o
                0x000000008780d754                parse_string_outer
 .text.run_list_real
                0x000000008780d7e4      0x4e0 common/built-in.o
 .text.parse_stream_outer
                0x000000008780dcc4      0x424 common/built-in.o
 .text.parse_file_outer
                0x000000008780e0e8       0x2c common/built-in.o
                0x000000008780e0e8                parse_file_outer
 .text.u_boot_hush_start
                0x000000008780e114       0x30 common/built-in.o
                0x000000008780e114                u_boot_hush_start
 .text.bootdelay_process
                0x000000008780e144      0x10c common/built-in.o
                0x000000008780e144                bootdelay_process
 .text.autoboot_command
                0x000000008780e250       0xa4 common/built-in.o
                0x000000008780e250                autoboot_command
 .text.log_init
                0x000000008780e2f4        0x8 common/built-in.o
 .text.display_text_info
                0x000000008780e2fc        0x4 common/built-in.o
 .text.setup_mon_len
                0x000000008780e300       0x18 common/built-in.o
 .text.reserve_round_4k
                0x000000008780e318       0x14 common/built-in.o
 .text.reserve_mmu
                0x000000008780e32c       0x2e common/built-in.o
                0x000000008780e32c                reserve_mmu
 .text.reserve_uboot
                0x000000008780e35a       0x30 common/built-in.o
 .text.reserve_malloc
                0x000000008780e38a       0x14 common/built-in.o
 .text.reserve_global_data
                0x000000008780e39e       0x16 common/built-in.o
 .text.reserve_fdt
                0x000000008780e3b4       0x3a common/built-in.o
 .text.dram_init_banksize
                0x000000008780e3ee       0x1a common/built-in.o
                0x000000008780e3ee                dram_init_banksize
 .text.setup_reloc
                0x000000008780e408       0x26 common/built-in.o
 .text.reloc_fdt
                0x000000008780e42e       0x2c common/built-in.o
 .text.reserve_board
                0x000000008780e45a       0x28 common/built-in.o
 .text.reserve_video
                0x000000008780e482       0x1c common/built-in.o
 *fill*         0x000000008780e49e        0x2 
 .text.announce_dram_init
                0x000000008780e4a0       0x10 common/built-in.o
 .text.init_baud_rate
                0x000000008780e4b0       0x1c common/built-in.o
 .text.initf_dm
                0x000000008780e4cc        0x6 common/built-in.o
 .text.initf_bootstage
                0x000000008780e4d2        0xc common/built-in.o
 .text.clear_bss
                0x000000008780e4de        0x4 common/built-in.o
                0x000000008780e4de                clear_bss
 .text.setup_spl_handoff
                0x000000008780e4e2        0x4 common/built-in.o
 .text.mach_cpu_init
                0x000000008780e4e6        0x4 common/built-in.o
                0x000000008780e4e6                mach_cpu_init
 .text.reserve_trace
                0x000000008780e4ea        0x4 common/built-in.o
 .text.setup_machine
                0x000000008780e4ee        0x4 common/built-in.o
 .text.reserve_bootstage
                0x000000008780e4f2        0x4 common/built-in.o
 .text.reserve_bloblist
                0x000000008780e4f6        0x4 common/built-in.o
 .text.display_new_sp
                0x000000008780e4fa        0x4 common/built-in.o
 .text.reloc_bootstage
                0x000000008780e4fe        0x4 common/built-in.o
 .text.reloc_bloblist
                0x000000008780e502        0x4 common/built-in.o
 .text.initf_console_record
                0x000000008780e506        0x4 common/built-in.o
 .text.reserve_arch
                0x000000008780e50a        0x4 common/built-in.o
                0x000000008780e50a                reserve_arch
 .text.arch_cpu_init_dm
                0x000000008780e50e        0x4 common/built-in.o
                0x000000008780e50e                arch_cpu_init_dm
 .text.checkcpu
                0x000000008780e512        0x4 common/built-in.o
                0x000000008780e512                checkcpu
 .text.coloured_LED_init
                0x000000008780e516        0x2 common/built-in.o
                0x000000008780e516                coloured_LED_init
 .text.red_led_on
                0x000000008780e518        0x2 common/built-in.o
                0x000000008780e518                red_led_on
 .text.board_add_ram_info
                0x000000008780e51a        0x2 common/built-in.o
                0x000000008780e51a                board_add_ram_info
 .text.show_dram_config
                0x000000008780e51c       0x28 common/built-in.o
 .text.board_get_usable_ram_top
                0x000000008780e544       0x10 common/built-in.o
                0x000000008780e544                board_get_usable_ram_top
 .text.setup_dest_addr
                0x000000008780e554       0x30 common/built-in.o
 .text.reserve_stacks
                0x000000008780e584       0x1a common/built-in.o
 *fill*         0x000000008780e59e        0x2 
 .text.board_init_f
                0x000000008780e5a0       0x48 common/built-in.o
                0x000000008780e5a0                board_init_f
 .text.initr_trace
                0x000000008780e5e8        0x4 common/built-in.o
 .text.initr_reloc
                0x000000008780e5ec       0x14 common/built-in.o
 .text.run_main_loop
                0x000000008780e600        0x8 common/built-in.o
 .text.initr_check_fastboot
                0x000000008780e608        0xa common/built-in.o
 *fill*         0x000000008780e612        0x2 
 .text.initr_net
                0x000000008780e614       0x14 common/built-in.o
 .text.initr_fastboot_setup
                0x000000008780e628        0xa common/built-in.o
 *fill*         0x000000008780e632        0x2 
 .text.initr_ethaddr
                0x000000008780e634       0x18 common/built-in.o
 .text.initr_enable_interrupts
                0x000000008780e64c        0xa common/built-in.o
 .text.initr_jumptable
                0x000000008780e656        0xa common/built-in.o
 .text.initr_env
                0x000000008780e660       0x48 common/built-in.o
 .text.initr_mmc
                0x000000008780e6a8       0x18 common/built-in.o
 .text.initr_serial
                0x000000008780e6c0        0xa common/built-in.o
 .text.initr_dm
                0x000000008780e6ca       0x12 common/built-in.o
 .text.initr_bootstage
                0x000000008780e6dc        0xc common/built-in.o
 .text.initr_malloc
                0x000000008780e6e8       0x1c common/built-in.o
 .text.initr_reloc_global_data
                0x000000008780e704       0x38 common/built-in.o
 .text.initr_caches
                0x000000008780e73c        0xa common/built-in.o
 .text.initr_binman
                0x000000008780e746        0x4 common/built-in.o
 .text.initr_barrier
                0x000000008780e74a        0x4 common/built-in.o
 .text.initr_console_record
                0x000000008780e74e        0x4 common/built-in.o
 .text.initr_dm_devices
                0x000000008780e752        0x4 common/built-in.o
 .text.power_init_board
                0x000000008780e756        0x4 common/built-in.o
                0x000000008780e756                power_init_board
 .text.initr_announce
                0x000000008780e75a        0x4 common/built-in.o
 .text.cpu_secondary_init_r
                0x000000008780e75e        0x2 common/built-in.o
                0x000000008780e75e                cpu_secondary_init_r
 .text.initr_secondary_cpu
                0x000000008780e760        0xa common/built-in.o
 *fill*         0x000000008780e76a        0x2 
 .text.board_init_r
                0x000000008780e76c       0x48 common/built-in.o
                0x000000008780e76c                board_init_r
 .text.show_board_info
                0x000000008780e7b4       0x2c common/built-in.o
                0x000000008780e7b4                show_board_info
 .text.bootm_find_images
                0x000000008780e7e0       0x6c common/built-in.o
                0x000000008780e7e0                bootm_find_images
 .text.bootm_disable_interrupts
                0x000000008780e84c       0x10 common/built-in.o
                0x000000008780e84c                bootm_disable_interrupts
 .text.do_bootm_states
                0x000000008780e85c      0x57c common/built-in.o
                0x000000008780e85c                do_bootm_states
 .text.switch_to_non_secure_mode
                0x000000008780edd8        0x2 common/built-in.o
                0x000000008780edd8                switch_to_non_secure_mode
 *fill*         0x000000008780edda        0x2 
 .text.do_bootm_vxworks
                0x000000008780eddc      0x14c common/built-in.o
                0x000000008780eddc                do_bootm_vxworks
 .text.copy_args
                0x000000008780ef28       0x34 common/built-in.o
 .text.do_bootm_rtems
                0x000000008780ef5c       0x2c common/built-in.o
 .text.do_bootm_plan9
                0x000000008780ef88       0x68 common/built-in.o
 .text.do_bootm_standalone
                0x000000008780eff0       0x3c common/built-in.o
 .text.do_bootm_qnxelf
                0x000000008780f02c       0x4c common/built-in.o
 .text.do_bootm_netbsd
                0x000000008780f078       0xa8 common/built-in.o
 .text.board_preboot_os
                0x000000008780f120        0x2 common/built-in.o
                0x000000008780f120                board_preboot_os
 .text.boot_selected_os
                0x000000008780f122       0x3e common/built-in.o
                0x000000008780f122                boot_selected_os
 .text.bootm_os_get_boot_func
                0x000000008780f160        0xc common/built-in.o
                0x000000008780f160                bootm_os_get_boot_func
 .text.of_bus_default_map
                0x000000008780f16c       0x7a common/built-in.o
 .text.fdt_pack_reg
                0x000000008780f1e6       0x92 common/built-in.o
 .text.of_bus_default_translate
                0x000000008780f278       0x66 common/built-in.o
 *fill*         0x000000008780f2de        0x2 
 .text.fdt_support_default_count_cells
                0x000000008780f2e0       0x34 common/built-in.o
                0x000000008780f2e0                fdt_support_default_count_cells
 .text.__of_translate_address
                0x000000008780f314      0x178 common/built-in.o
 .text.fdt_find_and_setprop
                0x000000008780f48c       0x48 common/built-in.o
                0x000000008780f48c                fdt_find_and_setprop
 .text.fdt_find_or_add_subnode
                0x000000008780f4d4       0x40 common/built-in.o
                0x000000008780f4d4                fdt_find_or_add_subnode
 .text.fdt_root
                0x000000008780f514       0x60 common/built-in.o
                0x000000008780f514                fdt_root
 .text.fdt_initrd
                0x000000008780f574      0x114 common/built-in.o
                0x000000008780f574                fdt_initrd
 .text.fdt_chosen
                0x000000008780f688       0x6c common/built-in.o
                0x000000008780f688                fdt_chosen
 .text.do_fixup_by_path
                0x000000008780f6f4       0x34 common/built-in.o
                0x000000008780f6f4                do_fixup_by_path
 .text.fdt_fixup_memory_banks
                0x000000008780f728       0xe8 common/built-in.o
                0x000000008780f728                fdt_fixup_memory_banks
 .text.fdt_fixup_memory
                0x000000008780f810       0x16 common/built-in.o
                0x000000008780f810                fdt_fixup_memory
 *fill*         0x000000008780f826        0x2 
 .text.fdt_fixup_ethernet
                0x000000008780f828      0x108 common/built-in.o
                0x000000008780f828                fdt_fixup_ethernet
 .text.fdt_shrink_to_minimum
                0x000000008780f930       0x8e common/built-in.o
                0x000000008780f930                fdt_shrink_to_minimum
 .text.fdt_increase_size
                0x000000008780f9be       0x10 common/built-in.o
                0x000000008780f9be                fdt_increase_size
 *fill*         0x000000008780f9ce        0x2 
 .text.fdt_translate_address
                0x000000008780f9d0        0xc common/built-in.o
                0x000000008780f9d0                fdt_translate_address
 .text.miiphy_get_dev_by_name
                0x000000008780f9dc       0x34 common/built-in.o
                0x000000008780f9dc                miiphy_get_dev_by_name
 .text.miiphy_init
                0x000000008780fa10       0x18 common/built-in.o
                0x000000008780fa10                miiphy_init
 .text.mdio_alloc
                0x000000008780fa28       0x1c common/built-in.o
                0x000000008780fa28                mdio_alloc
 .text.mdio_free
                0x000000008780fa44        0x4 common/built-in.o
                0x000000008780fa44                mdio_free
 .text.mdio_register
                0x000000008780fa48       0x4c common/built-in.o
                0x000000008780fa48                mdio_register
 .text.mdio_unregister
                0x000000008780fa94       0x24 common/built-in.o
                0x000000008780fa94                mdio_unregister
 .text.usb_set_maxpacket_ep
                0x000000008780fab8       0x56 common/built-in.o
 .text.usb_int_msg
                0x000000008780fb0e        0xe common/built-in.o
                0x000000008780fb0e                usb_int_msg
 .text.usb_control_msg
                0x000000008780fb1c       0x6c common/built-in.o
                0x000000008780fb1c                usb_control_msg
 .text.usb_get_descriptor
                0x000000008780fb88       0x36 common/built-in.o
 *fill*         0x000000008780fbbe        0x2 
 .text.get_descriptor_len
                0x000000008780fbc0       0x60 common/built-in.o
 .text.usb_setup_descriptor
                0x000000008780fc20       0x84 common/built-in.o
 .text.usb_get_string
                0x000000008780fca4       0x50 common/built-in.o
 .text.usb_string_sub
                0x000000008780fcf4       0x90 common/built-in.o
 .text.usb_bulk_msg
                0x000000008780fd84       0x4a common/built-in.o
                0x000000008780fd84                usb_bulk_msg
 .text.usb_maxpacket
                0x000000008780fdce       0x14 common/built-in.o
                0x000000008780fdce                usb_maxpacket
 .text.usb_clear_halt
                0x000000008780fde2       0x60 common/built-in.o
                0x000000008780fde2                usb_clear_halt
 *fill*         0x000000008780fe42        0x2 
 .text.usb_get_configuration_len
                0x000000008780fe44       0x50 common/built-in.o
                0x000000008780fe44                usb_get_configuration_len
 .text.usb_get_configuration_no
                0x000000008780fe94       0x1c common/built-in.o
                0x000000008780fe94                usb_get_configuration_no
 .text.usb_set_interface
                0x000000008780feb0       0x74 common/built-in.o
                0x000000008780feb0                usb_set_interface
 .text.usb_string
                0x000000008780ff24       0x9c common/built-in.o
                0x000000008780ff24                usb_string
 .text.usb_select_config
                0x000000008780ffc0      0x318 common/built-in.o
                0x000000008780ffc0                usb_select_config
 .text.usb_setup_device
                0x00000000878102d8       0xa4 common/built-in.o
                0x00000000878102d8                usb_setup_device
 .text.board_usb_init
                0x000000008781037c        0x4 common/built-in.o
                0x000000008781037c                board_usb_init
 .text.board_usb_cleanup
                0x0000000087810380        0x4 common/built-in.o
                0x0000000087810380                board_usb_cleanup
 .text.usb_device_has_child_on_port
                0x0000000087810384        0x4 common/built-in.o
                0x0000000087810384                usb_device_has_child_on_port
 .text.usb_find_usb2_hub_address_port
                0x0000000087810388       0x4c common/built-in.o
                0x0000000087810388                usb_find_usb2_hub_address_port
 .text.usb_set_port_feature
                0x00000000878103d4       0x2e common/built-in.o
 .text.usb_clear_port_feature
                0x0000000087810402       0x2e common/built-in.o
 .text.usb_get_hub_descriptor
                0x0000000087810430       0x42 common/built-in.o
 .text.usb_hub_reset_devices
                0x0000000087810472        0x2 common/built-in.o
                0x0000000087810472                usb_hub_reset_devices
 .text.usb_hub_is_root_hub
                0x0000000087810474       0x10 common/built-in.o
                0x0000000087810474                usb_hub_is_root_hub
 .text.usb_get_port_status
                0x0000000087810484       0x70 common/built-in.o
                0x0000000087810484                usb_get_port_status
 .text.usb_hub_port_connect_change
                0x00000000878104f4       0xf8 common/built-in.o
                0x00000000878104f4                usb_hub_port_connect_change
 .text.usb_hub_configure
                0x00000000878105ec      0x3ec common/built-in.o
 .text.usb_hub_scan
                0x00000000878109d8        0xe common/built-in.o
                0x00000000878109d8                usb_hub_scan
 .text.usb_hub_post_probe
                0x00000000878109e6        0x4 common/built-in.o
 .text.usb_stor_irq
                0x00000000878109ea       0x10 common/built-in.o
 *fill*         0x00000000878109fa        0x2 
 .text.usb_stor_BBB_reset
                0x00000000878109fc       0x94 common/built-in.o
 .text.usb_stor_CB_reset
                0x0000000087810a90       0x88 common/built-in.o
 .text.usb_stor_BBB_clear_endpt_stall.isra.0
                0x0000000087810b18       0x2c common/built-in.o
 .text.usb_stor_BBB_transport
                0x0000000087810b44      0x1b0 common/built-in.o
 .text.usb_stor_CB_comdat
                0x0000000087810cf4      0x158 common/built-in.o
 .text.usb_stor_CBI_get_status.isra.0
                0x0000000087810e4c       0x84 common/built-in.o
 .text.usb_stor_CB_transport
                0x0000000087810ed0      0x15c common/built-in.o
 .text.usb_request_sense.constprop.0
                0x000000008781102c       0x4c common/built-in.o
 .text.usb_stor_read
                0x0000000087811078       0xfc common/built-in.o
 .text.usb_stor_write
                0x0000000087811174       0xfc common/built-in.o
 .text.usb_stor_info
                0x0000000087811270       0x48 common/built-in.o
                0x0000000087811270                usb_stor_info
 .text.usb_stor_reset
                0x00000000878112b8        0xc common/built-in.o
                0x00000000878112b8                usb_stor_reset
 .text.usb_stor_scan
                0x00000000878112c4       0x30 common/built-in.o
                0x00000000878112c4                usb_stor_scan
 .text.usb_storage_probe
                0x00000000878112f4      0x178 common/built-in.o
                0x00000000878112f4                usb_storage_probe
 .text.usb_stor_get_info
                0x000000008781146c      0x224 common/built-in.o
                0x000000008781146c                usb_stor_get_info
 .text.usb_mass_storage_probe
                0x0000000087811690      0x100 common/built-in.o
 .text.iomux_doenv
                0x0000000087811790      0x128 common/built-in.o
                0x0000000087811790                iomux_doenv
 .text.splash_screen_prepare
                0x00000000878118b8       0x40 common/built-in.o
                0x00000000878118b8                splash_screen_prepare
 .text.splash_get_pos
                0x00000000878118f8       0x54 common/built-in.o
                0x00000000878118f8                splash_get_pos
 .text.splash_display_banner
                0x000000008781194c       0x3a common/built-in.o
                0x000000008781194c                splash_display_banner
 *fill*         0x0000000087811986        0x2 
 .text.splash_display
                0x0000000087811988       0x54 common/built-in.o
                0x0000000087811988                splash_display
 .text.delete_char.part.0
                0x00000000878119dc       0x84 common/built-in.o
 .text.cread_add_char
                0x0000000087811a60       0x80 common/built-in.o
 .text.cli_readline_into_buffer
                0x0000000087811ae0      0x658 common/built-in.o
                0x0000000087811ae0                cli_readline_into_buffer
 .text.cli_readline
                0x0000000087812138       0x10 common/built-in.o
                0x0000000087812138                cli_readline
 .text.console_tstc
                0x0000000087812148       0x60 common/built-in.o
 .text.console_putc
                0x00000000878121a8       0x38 common/built-in.o
 .text.console_puts
                0x00000000878121e0       0x38 common/built-in.o
 .text.on_console
                0x0000000087812218       0x70 common/built-in.o
 .text.serial_printf
                0x0000000087812288       0x32 common/built-in.o
                0x0000000087812288                serial_printf
 .text.puts     0x00000000878122ba       0x22 common/built-in.o
                0x00000000878122ba                puts
 .text.putc     0x00000000878122dc       0x22 common/built-in.o
                0x00000000878122dc                putc
 *fill*         0x00000000878122fe        0x2 
 .text.console_getc.isra.0
                0x0000000087812300       0x18 common/built-in.o
 .text.tstc     0x0000000087812318       0x1a common/built-in.o
                0x0000000087812318                tstc
 *fill*         0x0000000087812332        0x2 
 .text.getc     0x0000000087812334       0x34 common/built-in.o
                0x0000000087812334                getc
 .text.fputs    0x0000000087812368        0xa common/built-in.o
                0x0000000087812368                fputs
 *fill*         0x0000000087812372        0x2 
 .text.ctrlc    0x0000000087812374       0x34 common/built-in.o
                0x0000000087812374                ctrlc
 .text.confirm_yesno
                0x00000000878123a8       0x84 common/built-in.o
                0x00000000878123a8                confirm_yesno
 .text.disable_ctrlc
                0x000000008781242c       0x10 common/built-in.o
                0x000000008781242c                disable_ctrlc
 .text.had_ctrlc
                0x000000008781243c        0xc common/built-in.o
                0x000000008781243c                had_ctrlc
 .text.clear_ctrlc
                0x0000000087812448        0xc common/built-in.o
                0x0000000087812448                clear_ctrlc
 .text.search_device
                0x0000000087812454       0x16 common/built-in.o
                0x0000000087812454                search_device
 *fill*         0x000000008781246a        0x2 
 .text.console_assign
                0x000000008781246c       0x84 common/built-in.o
                0x000000008781246c                console_assign
 .text.console_init_f
                0x00000000878124f0        0xa common/built-in.o
                0x00000000878124f0                console_init_f
 *fill*         0x00000000878124fa        0x2 
 .text.stdio_print_current_devices
                0x00000000878124fc       0x78 common/built-in.o
                0x00000000878124fc                stdio_print_current_devices
 .text.console_init_r
                0x0000000087812574      0x10c common/built-in.o
                0x0000000087812574                console_init_r
 .text.sbrk     0x0000000087812680       0x40 common/built-in.o
                0x0000000087812680                sbrk
 .text.mem_malloc_init
                0x00000000878126c0       0x28 common/built-in.o
                0x00000000878126c0                mem_malloc_init
 .text.malloc_trim
                0x00000000878126e8       0x84 common/built-in.o
                0x00000000878126e8                malloc_trim
 .text.free     0x000000008781276c      0x168 common/built-in.o
                0x000000008781276c                free
 .text.malloc   0x00000000878128d4      0x428 common/built-in.o
                0x00000000878128d4                malloc
 .text.calloc   0x0000000087812cfc       0x9c common/built-in.o
                0x0000000087812cfc                calloc
 .text.realloc  0x0000000087812d98      0x2d0 common/built-in.o
                0x0000000087812d98                realloc
 .text.memalign
                0x0000000087813068      0x116 common/built-in.o
                0x0000000087813068                memalign
 .text.initf_malloc
                0x000000008781317e       0x14 common/built-in.o
                0x000000008781317e                initf_malloc
 .text.alloc_simple
                0x0000000087813192       0x3a common/built-in.o
 .text.malloc_simple
                0x00000000878131cc        0x6 common/built-in.o
                0x00000000878131cc                malloc_simple
 .text.memalign_simple
                0x00000000878131d2        0xa common/built-in.o
                0x00000000878131d2                memalign_simple
 .text.on_loadaddr
                0x00000000878131dc       0x1c common/built-in.o
 .text.image_check_hcrc
                0x00000000878131f8       0x2a common/built-in.o
                0x00000000878131f8                image_check_hcrc
 .text.image_check_dcrc
                0x0000000087813222       0x22 common/built-in.o
                0x0000000087813222                image_check_dcrc
 .text.image_multi_count
                0x0000000087813244       0x12 common/built-in.o
                0x0000000087813244                image_multi_count
 .text.image_multi_getimg
                0x0000000087813256       0x4a common/built-in.o
                0x0000000087813256                image_multi_getimg
 .text.env_get_bootm_low
                0x00000000878132a0       0x20 common/built-in.o
                0x00000000878132a0                env_get_bootm_low
 .text.env_get_bootm_size
                0x00000000878132c0       0x44 common/built-in.o
                0x00000000878132c0                env_get_bootm_size
 .text.env_get_bootm_mapsize
                0x0000000087813304       0x20 common/built-in.o
                0x0000000087813304                env_get_bootm_mapsize
 .text.memmove_wd
                0x0000000087813324        0xa common/built-in.o
                0x0000000087813324                memmove_wd
 *fill*         0x000000008781332e        0x2 
 .text.genimg_print_size
                0x0000000087813330       0x24 common/built-in.o
                0x0000000087813330                genimg_print_size
 .text.get_table_entry
                0x0000000087813354       0x12 common/built-in.o
                0x0000000087813354                get_table_entry
 .text.get_table_entry_name
                0x0000000087813366       0x12 common/built-in.o
                0x0000000087813366                get_table_entry_name
 .text.genimg_get_os_name
                0x0000000087813378       0x14 common/built-in.o
                0x0000000087813378                genimg_get_os_name
 .text.genimg_get_arch_name
                0x000000008781338c       0x14 common/built-in.o
                0x000000008781338c                genimg_get_arch_name
 .text.genimg_get_type_name
                0x00000000878133a0       0x14 common/built-in.o
                0x00000000878133a0                genimg_get_type_name
 .text.image_decomp
                0x00000000878133b4       0x9c common/built-in.o
                0x00000000878133b4                image_decomp
 .text.genimg_get_comp_name
                0x0000000087813450       0x14 common/built-in.o
                0x0000000087813450                genimg_get_comp_name
 .text.image_print_contents
                0x0000000087813464      0x114 common/built-in.o
                0x0000000087813464                image_print_contents
 .text.genimg_get_kernel_addr_fit
                0x0000000087813578       0x14 common/built-in.o
                0x0000000087813578                genimg_get_kernel_addr_fit
 .text.genimg_get_format
                0x000000008781358c       0x30 common/built-in.o
                0x000000008781358c                genimg_get_format
 .text.genimg_has_config
                0x00000000878135bc        0x4 common/built-in.o
                0x00000000878135bc                genimg_has_config
 .text.boot_get_ramdisk
                0x00000000878135c0      0x1e8 common/built-in.o
                0x00000000878135c0                boot_get_ramdisk
 .text.boot_ramdisk_high
                0x00000000878137a8       0xbc common/built-in.o
                0x00000000878137a8                boot_ramdisk_high
 .text.boot_get_setup
                0x0000000087813864        0x6 common/built-in.o
                0x0000000087813864                boot_get_setup
 .text.image_setup_linux
                0x000000008781386a       0x36 common/built-in.o
                0x000000008781386a                image_setup_linux
 .text.append_kernel_cmdline
                0x00000000878138a0      0x264 common/built-in.o
 .text.android_image_get_kernel
                0x0000000087813b04      0x1d8 common/built-in.o
                0x0000000087813b04                android_image_get_kernel
 .text.android_image_check_header
                0x0000000087813cdc       0x10 common/built-in.o
                0x0000000087813cdc                android_image_check_header
 .text.android_image_get_end
                0x0000000087813cec       0xe8 common/built-in.o
                0x0000000087813cec                android_image_get_end
 .text.android_image_get_kload
                0x0000000087813dd4       0x40 common/built-in.o
                0x0000000087813dd4                android_image_get_kload
 .text.android_image_get_kcomp
                0x0000000087813e14       0x40 common/built-in.o
                0x0000000087813e14                android_image_get_kcomp
 .text.android_image_get_ramdisk
                0x0000000087813e54       0xc4 common/built-in.o
                0x0000000087813e54                android_image_get_ramdisk
 .text.android_image_get_second
                0x0000000087813f18       0xe8 common/built-in.o
                0x0000000087813f18                android_image_get_second
 .text.android_print_contents
                0x0000000087814000      0x310 common/built-in.o
                0x0000000087814000                android_print_contents
 .text.fdt_error
                0x0000000087814310       0x24 common/built-in.o
 .text.boot_fdt_add_mem_rsv_regions
                0x0000000087814334       0xfc common/built-in.o
                0x0000000087814334                boot_fdt_add_mem_rsv_regions
 .text.boot_relocate_fdt
                0x0000000087814430      0x10c common/built-in.o
                0x0000000087814430                boot_relocate_fdt
 .text.boot_get_fdt
                0x000000008781453c      0x204 common/built-in.o
                0x000000008781453c                boot_get_fdt
 .text.ft_verify_fdt
                0x0000000087814740        0x4 common/built-in.o
                0x0000000087814740                ft_verify_fdt
 .text.image_setup_libfdt
                0x0000000087814744       0xd0 common/built-in.o
                0x0000000087814744                image_setup_libfdt
 .text.get_effective_memsize
                0x0000000087814814        0x6 common/built-in.o
                0x0000000087814814                get_effective_memsize
 .text.nulldev_putc
                0x000000008781481a        0x2 common/built-in.o
 .text.nulldev_puts
                0x000000008781481c        0x2 common/built-in.o
 .text.nulldev_input
                0x000000008781481e        0x4 common/built-in.o
 .text.stdio_serial_tstc
                0x0000000087814822        0x4 common/built-in.o
 .text.stdio_serial_getc
                0x0000000087814826        0x4 common/built-in.o
 .text.stdio_serial_puts
                0x000000008781482a        0x6 common/built-in.o
 .text.stdio_serial_putc
                0x0000000087814830        0x6 common/built-in.o
 *fill*         0x0000000087814836        0x2 
 .text.stdio_get_list
                0x0000000087814838        0x8 common/built-in.o
                0x0000000087814838                stdio_get_list
 .text.stdio_get_by_name
                0x0000000087814840       0xa4 common/built-in.o
                0x0000000087814840                stdio_get_by_name
 .text.stdio_clone
                0x00000000878148e4       0x22 common/built-in.o
                0x00000000878148e4                stdio_clone
 *fill*         0x0000000087814906        0x2 
 .text.stdio_register_dev
                0x0000000087814908       0x34 common/built-in.o
                0x0000000087814908                stdio_register_dev
 .text.stdio_register
                0x000000008781493c        0x6 common/built-in.o
                0x000000008781493c                stdio_register
 *fill*         0x0000000087814942        0x2 
 .text.stdio_deregister_dev
                0x0000000087814944       0xa8 common/built-in.o
                0x0000000087814944                stdio_deregister_dev
 .text.stdio_deregister
                0x00000000878149ec       0x1a common/built-in.o
                0x00000000878149ec                stdio_deregister
 *fill*         0x0000000087814a06        0x2 
 .text.stdio_init_tables
                0x0000000087814a08       0x14 common/built-in.o
                0x0000000087814a08                stdio_init_tables
 .text.stdio_add_devices
                0x0000000087814a1c       0x90 common/built-in.o
                0x0000000087814a1c                stdio_add_devices
 .text.run_command
                0x0000000087814aac        0xe common/built-in.o
                0x0000000087814aac                run_command
 .text.run_command_list
                0x0000000087814aba       0x46 common/built-in.o
                0x0000000087814aba                run_command_list
 .text.do_run   0x0000000087814b00       0x4c common/built-in.o
                0x0000000087814b00                do_run
 .text.cli_process_fdt
                0x0000000087814b4c       0x30 common/built-in.o
                0x0000000087814b4c                cli_process_fdt
 .text.cli_secure_boot_cmd
                0x0000000087814b7c       0x4c common/built-in.o
                0x0000000087814b7c                cli_secure_boot_cmd
 .text.cli_loop
                0x0000000087814bc8        0xe common/built-in.o
                0x0000000087814bc8                cli_loop
 .text.cli_init
                0x0000000087814bd6        0x4 common/built-in.o
                0x0000000087814bd6                cli_init
 .text.find_cmd_tbl
                0x0000000087814bda       0x64 common/built-in.o
                0x0000000087814bda                find_cmd_tbl
 *fill*         0x0000000087814c3e        0x2 
 .text.find_cmd
                0x0000000087814c40       0x1c common/built-in.o
                0x0000000087814c40                find_cmd
 .text.cmd_usage
                0x0000000087814c5c       0x3c common/built-in.o
                0x0000000087814c5c                cmd_usage
 .text._do_help
                0x0000000087814c98      0x108 common/built-in.o
                0x0000000087814c98                _do_help
 .text.var_complete
                0x0000000087814da0       0x50 common/built-in.o
                0x0000000087814da0                var_complete
 .text.complete_subcmdv
                0x0000000087814df0      0x10c common/built-in.o
                0x0000000087814df0                complete_subcmdv
 .text.cmd_auto_complete
                0x0000000087814efc      0x280 common/built-in.o
                0x0000000087814efc                cmd_auto_complete
 .text.cmd_get_data_size
                0x000000008781517c       0x34 common/built-in.o
                0x000000008781517c                cmd_get_data_size
 .text.cmd_always_repeatable
                0x00000000878151b0       0x10 common/built-in.o
                0x00000000878151b0                cmd_always_repeatable
 .text.cmd_never_repeatable
                0x00000000878151c0       0x10 common/built-in.o
                0x00000000878151c0                cmd_never_repeatable
 .text.cmd_process
                0x00000000878151d0       0xd8 common/built-in.o
                0x00000000878151d0                cmd_process
 .text.cmd_process_error
                0x00000000878152a8       0x1c common/built-in.o
                0x00000000878152a8                cmd_process_error
 .text.hex1_bin
                0x00000000878152c4       0x2c common/built-in.o
 .text.hex2_bin
                0x00000000878152f0       0x24 common/built-in.o
 .text.srec_decode
                0x0000000087815314      0x190 common/built-in.o
                0x0000000087815314                srec_decode
 .text.CYGACC_COMM_IF_GETC_TIMEOUT.isra.0
                0x00000000878154a4       0x2e common/built-in.o
 .text.xyzModem_flush
                0x00000000878154d2       0x14 common/built-in.o
 *fill*         0x00000000878154e6        0x2 
 .text.xyzModem_get_hdr
                0x00000000878154e8      0x168 common/built-in.o
 .text.xyzModem_stream_open
                0x0000000087815650      0x16c common/built-in.o
                0x0000000087815650                xyzModem_stream_open
 .text.xyzModem_stream_read
                0x00000000878157bc      0x1a8 common/built-in.o
                0x00000000878157bc                xyzModem_stream_read
 .text.xyzModem_stream_close
                0x0000000087815964       0x40 common/built-in.o
                0x0000000087815964                xyzModem_stream_close
 .text.xyzModem_stream_terminate
                0x00000000878159a4       0x68 common/built-in.o
                0x00000000878159a4                xyzModem_stream_terminate
 .text.xyzModem_error
                0x0000000087815a0c       0x18 common/built-in.o
                0x0000000087815a0c                xyzModem_error
 .text.part_driver_lookup_type
                0x0000000087815a24       0x44 disk/built-in.o
 .text.blk_get_dev
                0x0000000087815a68       0x18 disk/built-in.o
                0x0000000087815a68                blk_get_dev
 .text.dev_print
                0x0000000087815a80      0x184 disk/built-in.o
                0x0000000087815a80                dev_print
 .text.part_init
                0x0000000087815c04       0x38 disk/built-in.o
                0x0000000087815c04                part_init
 .text.part_print
                0x0000000087815c3c       0xb8 disk/built-in.o
                0x0000000087815c3c                part_print
 .text.part_get_info
                0x0000000087815cf4       0x36 disk/built-in.o
                0x0000000087815cf4                part_get_info
 *fill*         0x0000000087815d2a        0x2 
 .text.part_get_info_whole_disk
                0x0000000087815d2c       0x38 disk/built-in.o
                0x0000000087815d2c                part_get_info_whole_disk
 .text.blk_get_device_by_str
                0x0000000087815d64       0xbc disk/built-in.o
                0x0000000087815d64                blk_get_device_by_str
 .text.blk_get_device_part_str
                0x0000000087815e20      0x23c disk/built-in.o
                0x0000000087815e20                blk_get_device_part_str
 .text.part_set_generic_name
                0x000000008781605c       0x38 disk/built-in.o
                0x000000008781605c                part_set_generic_name
 .text.test_block_type
                0x0000000087816094       0x78 disk/built-in.o
 .text.print_partition_extended
                0x000000008781610c      0x1a4 disk/built-in.o
 .text.part_print_dos
                0x00000000878162b0       0x20 disk/built-in.o
                0x00000000878162b0                part_print_dos
 .text.part_test_dos
                0x00000000878162d0       0x58 disk/built-in.o
 .text.part_get_info_extended
                0x0000000087816328      0x1d8 disk/built-in.o
 .text.part_get_info_dos
                0x0000000087816500       0x1a disk/built-in.o
                0x0000000087816500                part_get_info_dos
 *fill*         0x000000008781651a        0x2 
 .text.print_efiname
                0x000000008781651c       0x3c disk/built-in.o
 .text.part_test_efi
                0x0000000087816558       0x78 disk/built-in.o
 .text.validate_gpt_header
                0x00000000878165d0      0x1a0 disk/built-in.o
 .text.is_gpt_valid
                0x0000000087816770      0x270 disk/built-in.o
 .text.is_pte_valid
                0x00000000878169e0       0x38 disk/built-in.o
 .text.find_valid_gpt
                0x0000000087816a18       0x48 disk/built-in.o
 .text.part_print_efi
                0x0000000087816a60      0x1b0 disk/built-in.o
                0x0000000087816a60                part_print_efi
 .text.part_get_info_efi
                0x0000000087816c10      0x134 disk/built-in.o
                0x0000000087816c10                part_get_info_efi
 .text.get_disk_guid
                0x0000000087816d44       0x62 disk/built-in.o
                0x0000000087816d44                get_disk_guid
 *fill*         0x0000000087816da6        0x2 
 .text.write_gpt_table
                0x0000000087816da8      0x374 disk/built-in.o
                0x0000000087816da8                write_gpt_table
 .text.gpt_fill_pte
                0x000000008781711c      0x25c disk/built-in.o
                0x000000008781711c                gpt_fill_pte
 .text.gpt_fill_header
                0x0000000087817378      0x1a8 disk/built-in.o
                0x0000000087817378                gpt_fill_header
 .text.gpt_restore
                0x0000000087817520       0xc8 disk/built-in.o
                0x0000000087817520                gpt_restore
 .text.gpt_verify_headers
                0x00000000878175e8       0x58 disk/built-in.o
                0x00000000878175e8                gpt_verify_headers
 .text.gpt_verify_partitions
                0x0000000087817640      0x178 disk/built-in.o
                0x0000000087817640                gpt_verify_partitions
 .text.is_valid_gpt_buf
                0x00000000878177b8       0xa4 disk/built-in.o
                0x00000000878177b8                is_valid_gpt_buf
 .text.write_backup_gpt_partitions
                0x000000008781785c      0x248 disk/built-in.o
                0x000000008781785c                write_backup_gpt_partitions
 .text.device_bind_common.isra.0
                0x0000000087817aa4      0x20c drivers/built-in.o
 .text.alloc_priv
                0x0000000087817cb0       0x38 drivers/built-in.o
 .text.device_bind_with_driver_data
                0x0000000087817ce8       0x16 drivers/built-in.o
                0x0000000087817ce8                device_bind_with_driver_data
 .text.device_bind
                0x0000000087817cfe       0x1c drivers/built-in.o
                0x0000000087817cfe                device_bind
 .text.device_bind_by_name
                0x0000000087817d1a       0x44 drivers/built-in.o
                0x0000000087817d1a                device_bind_by_name
 .text.device_ofdata_to_platdata
                0x0000000087817d5e       0xa2 drivers/built-in.o
                0x0000000087817d5e                device_ofdata_to_platdata
 .text.device_probe
                0x0000000087817e00       0xf8 drivers/built-in.o
                0x0000000087817e00                device_probe
 .text.dev_get_platdata
                0x0000000087817ef8       0x20 drivers/built-in.o
                0x0000000087817ef8                dev_get_platdata
 .text.dev_get_parent_platdata
                0x0000000087817f18       0x20 drivers/built-in.o
                0x0000000087817f18                dev_get_parent_platdata
 .text.dev_get_uclass_platdata
                0x0000000087817f38       0x20 drivers/built-in.o
                0x0000000087817f38                dev_get_uclass_platdata
 .text.dev_get_priv
                0x0000000087817f58       0x20 drivers/built-in.o
                0x0000000087817f58                dev_get_priv
 .text.dev_get_uclass_priv
                0x0000000087817f78       0x20 drivers/built-in.o
                0x0000000087817f78                dev_get_uclass_priv
 .text.dev_get_parent_priv
                0x0000000087817f98       0x20 drivers/built-in.o
                0x0000000087817f98                dev_get_parent_priv
 .text.device_find_first_child
                0x0000000087817fb8       0x12 drivers/built-in.o
                0x0000000087817fb8                device_find_first_child
 .text.device_find_next_child
                0x0000000087817fca       0x16 drivers/built-in.o
                0x0000000087817fca                device_find_next_child
 .text.dev_get_parent
                0x0000000087817fe0        0x4 drivers/built-in.o
                0x0000000087817fe0                dev_get_parent
 .text.dev_get_driver_data
                0x0000000087817fe4        0x4 drivers/built-in.o
                0x0000000087817fe4                dev_get_driver_data
 .text.dev_get_driver_ops
                0x0000000087817fe8        0x8 drivers/built-in.o
                0x0000000087817fe8                dev_get_driver_ops
 .text.device_get_uclass_id
                0x0000000087817ff0        0x8 drivers/built-in.o
                0x0000000087817ff0                device_get_uclass_id
 .text.dev_get_uclass_name
                0x0000000087817ff8        0xa drivers/built-in.o
                0x0000000087817ff8                dev_get_uclass_name
 .text.device_has_active_children
                0x0000000087818002       0x24 drivers/built-in.o
                0x0000000087818002                device_has_active_children
 .text.device_is_last_sibling
                0x0000000087818026       0x12 drivers/built-in.o
                0x0000000087818026                device_is_last_sibling
 .text.device_set_name_alloced
                0x0000000087818038        0xa drivers/built-in.o
                0x0000000087818038                device_set_name_alloced
 *fill*         0x0000000087818042        0x2 
 .text.devfdt_get_addr_index
                0x0000000087818044       0x74 drivers/built-in.o
                0x0000000087818044                devfdt_get_addr_index
 .text.devfdt_get_addr_size_index
                0x00000000878180b8       0x2c drivers/built-in.o
                0x00000000878180b8                devfdt_get_addr_size_index
 .text.devfdt_get_addr
                0x00000000878180e4        0x6 drivers/built-in.o
                0x00000000878180e4                devfdt_get_addr
 *fill*         0x00000000878180ea        0x2 
 .text.lists_driver_lookup_name
                0x00000000878180ec       0x2c drivers/built-in.o
                0x00000000878180ec                lists_driver_lookup_name
 .text.lists_uclass_lookup
                0x0000000087818118       0x20 drivers/built-in.o
                0x0000000087818118                lists_uclass_lookup
 .text.lists_bind_drivers
                0x0000000087818138       0x60 drivers/built-in.o
                0x0000000087818138                lists_bind_drivers
 .text.device_bind_driver_to_node
                0x0000000087818198       0x2c drivers/built-in.o
                0x0000000087818198                device_bind_driver_to_node
 .text.device_bind_driver
                0x00000000878181c4       0x12 drivers/built-in.o
                0x00000000878181c4                device_bind_driver
 *fill*         0x00000000878181d6        0x2 
 .text.lists_bind_fdt
                0x00000000878181d8       0xfc drivers/built-in.o
                0x00000000878181d8                lists_bind_fdt
 .text.dm_scan_fdt_node
                0x00000000878182d4       0x9c drivers/built-in.o
 .text.dm_scan_fdt_ofnode_path
                0x0000000087818370       0x24 drivers/built-in.o
 .text.dm_root  0x0000000087818394       0x1c drivers/built-in.o
                0x0000000087818394                dm_root
 .text.dm_init  0x00000000878183b0       0x4c drivers/built-in.o
                0x00000000878183b0                dm_init
 .text.dm_remove_devices_flags
                0x00000000878183fc       0x12 drivers/built-in.o
                0x00000000878183fc                dm_remove_devices_flags
 *fill*         0x000000008781840e        0x2 
 .text.dm_scan_platdata
                0x0000000087818410       0x20 drivers/built-in.o
                0x0000000087818410                dm_scan_platdata
 .text.dm_scan_fdt_dev
                0x0000000087818430       0x1c drivers/built-in.o
                0x0000000087818430                dm_scan_fdt_dev
 .text.dm_scan_fdt
                0x000000008781844c       0x14 drivers/built-in.o
                0x000000008781844c                dm_scan_fdt
 .text.dm_extended_scan_fdt
                0x0000000087818460       0x2c drivers/built-in.o
                0x0000000087818460                dm_extended_scan_fdt
 .text.dm_scan_other
                0x000000008781848c        0x4 drivers/built-in.o
                0x000000008781848c                dm_scan_other
 .text.dm_init_and_scan
                0x0000000087818490       0x2c drivers/built-in.o
                0x0000000087818490                dm_init_and_scan
 .text.uclass_find
                0x00000000878184bc       0x2e drivers/built-in.o
                0x00000000878184bc                uclass_find
 .text.uclass_get
                0x00000000878184ea       0xaa drivers/built-in.o
                0x00000000878184ea                uclass_get
 .text.dev_get_uclass_index
                0x0000000087818594       0x36 drivers/built-in.o
                0x0000000087818594                dev_get_uclass_index
 .text.uclass_find_device
                0x00000000878185ca       0x42 drivers/built-in.o
                0x00000000878185ca                uclass_find_device
 .text.uclass_find_first_device
                0x000000008781860c       0x22 drivers/built-in.o
                0x000000008781860c                uclass_find_first_device
 .text.uclass_find_next_device
                0x000000008781862e       0x18 drivers/built-in.o
                0x000000008781862e                uclass_find_next_device
 .text.uclass_find_device_by_name
                0x0000000087818646       0x46 drivers/built-in.o
                0x0000000087818646                uclass_find_device_by_name
 .text.uclass_find_device_by_seq
                0x000000008781868c       0x4c drivers/built-in.o
                0x000000008781868c                uclass_find_device_by_seq
 .text.uclass_find_device_by_ofnode
                0x00000000878186d8       0x42 drivers/built-in.o
                0x00000000878186d8                uclass_find_device_by_ofnode
 .text.uclass_find_device_by_phandle
                0x000000008781871a       0x60 drivers/built-in.o
                0x000000008781871a                uclass_find_device_by_phandle
 .text.uclass_get_device_tail
                0x000000008781877a       0x16 drivers/built-in.o
                0x000000008781877a                uclass_get_device_tail
 .text.uclass_get_device
                0x0000000087818790       0x1c drivers/built-in.o
                0x0000000087818790                uclass_get_device
 .text.uclass_get_device_by_name
                0x00000000878187ac       0x1c drivers/built-in.o
                0x00000000878187ac                uclass_get_device_by_name
 .text.uclass_get_device_by_seq
                0x00000000878187c8       0x34 drivers/built-in.o
                0x00000000878187c8                uclass_get_device_by_seq
 .text.uclass_get_device_by_ofnode
                0x00000000878187fc       0x1c drivers/built-in.o
                0x00000000878187fc                uclass_get_device_by_ofnode
 .text.uclass_get_device_by_phandle_id
                0x0000000087818818       0x4c drivers/built-in.o
                0x0000000087818818                uclass_get_device_by_phandle_id
 .text.uclass_get_device_by_phandle
                0x0000000087818864       0x1c drivers/built-in.o
                0x0000000087818864                uclass_get_device_by_phandle
 .text.uclass_first_device
                0x0000000087818880       0x1e drivers/built-in.o
                0x0000000087818880                uclass_first_device
 .text.uclass_first_device_err
                0x000000008781889e       0x16 drivers/built-in.o
                0x000000008781889e                uclass_first_device_err
 .text.uclass_next_device
                0x00000000878188b4       0x22 drivers/built-in.o
                0x00000000878188b4                uclass_next_device
 .text.uclass_next_device_err
                0x00000000878188d6       0x16 drivers/built-in.o
                0x00000000878188d6                uclass_next_device_err
 .text.uclass_first_device_check
                0x00000000878188ec       0x1e drivers/built-in.o
                0x00000000878188ec                uclass_first_device_check
 .text.uclass_next_device_check
                0x000000008781890a       0x1a drivers/built-in.o
                0x000000008781890a                uclass_next_device_check
 .text.uclass_bind_device
                0x0000000087818924       0x3a drivers/built-in.o
                0x0000000087818924                uclass_bind_device
 .text.uclass_unbind_device
                0x000000008781895e       0x24 drivers/built-in.o
                0x000000008781895e                uclass_unbind_device
 *fill*         0x0000000087818982        0x2 
 .text.uclass_resolve_seq
                0x0000000087818984       0x68 drivers/built-in.o
                0x0000000087818984                uclass_resolve_seq
 .text.uclass_pre_probe_device
                0x00000000878189ec       0x2e drivers/built-in.o
                0x00000000878189ec                uclass_pre_probe_device
 .text.uclass_post_probe_device
                0x0000000087818a1a       0x2e drivers/built-in.o
                0x0000000087818a1a                uclass_post_probe_device
 .text.uclass_pre_remove_device
                0x0000000087818a48        0xe drivers/built-in.o
                0x0000000087818a48                uclass_pre_remove_device
 .text.dm_warn  0x0000000087818a56       0x1a drivers/built-in.o
                0x0000000087818a56                dm_warn
 .text.dm_ofnode_pre_reloc
                0x0000000087818a70       0x40 drivers/built-in.o
                0x0000000087818a70                dm_ofnode_pre_reloc
 .text.devm_kmalloc_release
                0x0000000087818ab0        0x2 drivers/built-in.o
 .text.devm_kmalloc_match
                0x0000000087818ab2        0x8 drivers/built-in.o
 .text.release_nodes
                0x0000000087818aba       0x4c drivers/built-in.o
 .text._devres_alloc
                0x0000000087818b06       0x1a drivers/built-in.o
                0x0000000087818b06                _devres_alloc
 .text.devres_free
                0x0000000087818b20       0x34 drivers/built-in.o
                0x0000000087818b20                devres_free
 .text.devres_add
                0x0000000087818b54       0x54 drivers/built-in.o
                0x0000000087818b54                devres_add
 .text.devres_find
                0x0000000087818ba8       0x3c drivers/built-in.o
                0x0000000087818ba8                devres_find
 .text.devres_remove
                0x0000000087818be4       0x22 drivers/built-in.o
                0x0000000087818be4                devres_remove
 .text.devres_destroy
                0x0000000087818c06       0x16 drivers/built-in.o
                0x0000000087818c06                devres_destroy
 .text.devres_release_probe
                0x0000000087818c1c        0xa drivers/built-in.o
                0x0000000087818c1c                devres_release_probe
 .text.devres_release_all
                0x0000000087818c26        0xa drivers/built-in.o
                0x0000000087818c26                devres_release_all
 .text.devm_kmalloc
                0x0000000087818c30       0x20 drivers/built-in.o
                0x0000000087818c30                devm_kmalloc
 .text.devm_kfree
                0x0000000087818c50       0x38 drivers/built-in.o
                0x0000000087818c50                devm_kfree
 .text.device_unbind
                0x0000000087818c88       0x9c drivers/built-in.o
                0x0000000087818c88                device_unbind
 .text.device_chld_unbind
                0x0000000087818d24       0x3c drivers/built-in.o
                0x0000000087818d24                device_chld_unbind
 .text.device_free
                0x0000000087818d60       0x54 drivers/built-in.o
                0x0000000087818d60                device_free
 .text.device_remove
                0x0000000087818db4       0xdc drivers/built-in.o
                0x0000000087818db4                device_remove
 .text.device_chld_remove
                0x0000000087818e90       0x3c drivers/built-in.o
                0x0000000087818e90                device_chld_remove
 .text.simple_bus_post_bind
                0x0000000087818ecc       0x34 drivers/built-in.o
 .text.show_devices
                0x0000000087818f00       0xb8 drivers/built-in.o
 .text.dm_dump_all
                0x0000000087818fb8       0x30 drivers/built-in.o
                0x0000000087818fb8                dm_dump_all
 .text.dm_dump_uclass
                0x0000000087818fe8       0xa0 drivers/built-in.o
                0x0000000087818fe8                dm_dump_uclass
 .text.dm_dump_drivers
                0x0000000087819088       0x88 drivers/built-in.o
                0x0000000087819088                dm_dump_drivers
 .text.ofnode_read_u32
                0x0000000087819110       0x2e drivers/built-in.o
                0x0000000087819110                ofnode_read_u32
 .text.ofnode_read_u32_default
                0x000000008781913e       0x12 drivers/built-in.o
                0x000000008781913e                ofnode_read_u32_default
 .text.ofnode_read_prop
                0x0000000087819150       0x2a drivers/built-in.o
                0x0000000087819150                ofnode_read_prop
 .text.ofnode_read_string
                0x000000008781917a       0x20 drivers/built-in.o
                0x000000008781917a                ofnode_read_string
 .text.ofnode_read_size
                0x000000008781919a       0x18 drivers/built-in.o
                0x000000008781919a                ofnode_read_size
 .text.ofnode_find_subnode
                0x00000000878191b2       0x16 drivers/built-in.o
                0x00000000878191b2                ofnode_find_subnode
 .text.ofnode_read_u32_array
                0x00000000878191c8       0x18 drivers/built-in.o
                0x00000000878191c8                ofnode_read_u32_array
 .text.decode_timing_property
                0x00000000878191e0       0x3e drivers/built-in.o
 .text.ofnode_first_subnode
                0x000000008781921e       0x12 drivers/built-in.o
                0x000000008781921e                ofnode_first_subnode
 .text.ofnode_next_subnode
                0x0000000087819230       0x12 drivers/built-in.o
                0x0000000087819230                ofnode_next_subnode
 .text.ofnode_get_parent
                0x0000000087819242        0xe drivers/built-in.o
                0x0000000087819242                ofnode_get_parent
 .text.ofnode_get_name
                0x0000000087819250       0x14 drivers/built-in.o
                0x0000000087819250                ofnode_get_name
 .text.ofnode_get_by_phandle
                0x0000000087819264        0xe drivers/built-in.o
                0x0000000087819264                ofnode_get_by_phandle
 .text.ofnode_stringlist_search
                0x0000000087819272       0x26 drivers/built-in.o
                0x0000000087819272                ofnode_stringlist_search
 .text.ofnode_parse_phandle_with_args
                0x0000000087819298       0x42 drivers/built-in.o
                0x0000000087819298                ofnode_parse_phandle_with_args
 .text.ofnode_path
                0x00000000878192da       0x12 drivers/built-in.o
                0x00000000878192da                ofnode_path
 .text.ofnode_get_property
                0x00000000878192ec       0x14 drivers/built-in.o
                0x00000000878192ec                ofnode_get_property
 .text.ofnode_read_bool
                0x0000000087819300       0x10 drivers/built-in.o
                0x0000000087819300                ofnode_read_bool
 .text.ofnode_decode_display_timing
                0x0000000087819310      0x1d0 drivers/built-in.o
                0x0000000087819310                ofnode_decode_display_timing
 .text.ofnode_is_available
                0x00000000878194e0       0x14 drivers/built-in.o
                0x00000000878194e0                ofnode_is_available
 .text.ofnode_read_u8_array_ptr
                0x00000000878194f4       0x14 drivers/built-in.o
                0x00000000878194f4                ofnode_read_u8_array_ptr
 .text.ofnode_pre_reloc
                0x0000000087819508       0x40 drivers/built-in.o
                0x0000000087819508                ofnode_pre_reloc
 .text.spi_flash_post_bind
                0x0000000087819548        0x4 drivers/built-in.o
 .text.spi_flash_read_dm
                0x000000008781954c        0xe drivers/built-in.o
                0x000000008781954c                spi_flash_read_dm
 .text.spi_flash_write_dm
                0x000000008781955a        0xe drivers/built-in.o
                0x000000008781955a                spi_flash_write_dm
 .text.spi_flash_erase_dm
                0x0000000087819568        0x8 drivers/built-in.o
                0x0000000087819568                spi_flash_erase_dm
 .text.spi_flash_probe_bus_cs
                0x0000000087819570       0x50 drivers/built-in.o
                0x0000000087819570                spi_flash_probe_bus_cs
 .text.spi_flash_std_remove
                0x00000000878195c0        0x4 drivers/built-in.o
 .text.spi_flash_std_write
                0x00000000878195c4       0x22 drivers/built-in.o
 .text.spi_flash_std_read
                0x00000000878195e6       0x22 drivers/built-in.o
 .text.spi_flash_std_probe
                0x0000000087819608       0x4c drivers/built-in.o
                0x0000000087819608                spi_flash_std_probe
 .text.spi_flash_std_get_sw_write_prot
                0x0000000087819654        0xe drivers/built-in.o
 *fill*         0x0000000087819662        0x2 
 .text.spi_flash_std_erase
                0x0000000087819664       0x54 drivers/built-in.o
 .text.read_sr  0x00000000878196b8       0x1c drivers/built-in.o
 .text.write_enable
                0x00000000878196d4       0x12 drivers/built-in.o
 .text.write_disable
                0x00000000878196e6       0x12 drivers/built-in.o
 .text.clean_bar
                0x00000000878196f8       0x34 drivers/built-in.o
 .text.write_bar
                0x000000008781972c       0x3c drivers/built-in.o
 .text.stm_get_locked_range
                0x0000000087819768       0x6c drivers/built-in.o
 .text.spi_nor_read
                0x00000000878197d4       0x72 drivers/built-in.o
 .text.spi_nor_write_data
                0x0000000087819846       0x84 drivers/built-in.o
 .text.spi_nor_read_data
                0x00000000878198ca       0x8a drivers/built-in.o
 .text.spi_nor_wait_till_ready_with_timeout.constprop.0
                0x0000000087819954       0xc8 drivers/built-in.o
 .text.spi_nor_read_reg
                0x0000000087819a1c       0x36 drivers/built-in.o
 .text.spi_nor_write_reg
                0x0000000087819a52       0x38 drivers/built-in.o
 .text.stm_is_locked
                0x0000000087819a8a       0x62 drivers/built-in.o
 .text.spi_nor_write
                0x0000000087819aec      0x102 drivers/built-in.o
 .text.spi_nor_erase
                0x0000000087819bee       0xd2 drivers/built-in.o
 .text.write_sr_and_check.constprop.0
                0x0000000087819cc0       0x4e drivers/built-in.o
 .text.stm_is_locked_sr
                0x0000000087819d0e       0x5a drivers/built-in.o
 .text.stm_lock
                0x0000000087819d68      0x1e2 drivers/built-in.o
 .text.stm_is_unlocked_sr
                0x0000000087819f4a       0x56 drivers/built-in.o
 .text.stm_unlock
                0x0000000087819fa0      0x1ae drivers/built-in.o
 *fill*         0x000000008781a14e        0x2 
 .text.spi_nor_scan
                0x000000008781a150      0x5b4 drivers/built-in.o
                0x000000008781a150                spi_nor_scan
 .text.spi_flash_cmd_get_sw_write_prot
                0x000000008781a704       0x10 drivers/built-in.o
                0x000000008781a704                spi_flash_cmd_get_sw_write_prot
 .text.pinconfig_post_bind
                0x000000008781a714       0x98 drivers/built-in.o
 .text.pinctrl_post_bind
                0x000000008781a7ac       0x18 drivers/built-in.o
 .text.pinctrl_select_state
                0x000000008781a7c4       0xd8 drivers/built-in.o
                0x000000008781a7c4                pinctrl_select_state
 .text.pinctrl_get_pins_count
                0x000000008781a89c       0x10 drivers/built-in.o
                0x000000008781a89c                pinctrl_get_pins_count
 .text.pinctrl_get_pin_name
                0x000000008781a8ac       0x24 drivers/built-in.o
                0x000000008781a8ac                pinctrl_get_pin_name
 .text.pinctrl_get_pin_muxing
                0x000000008781a8d0       0x18 drivers/built-in.o
                0x000000008781a8d0                pinctrl_get_pin_muxing
 .text.imx_pinctrl_set_state
                0x000000008781a8e8      0x228 drivers/built-in.o
 .text.imx_pinctrl_probe
                0x000000008781ab10       0xbc drivers/built-in.o
                0x000000008781ab10                imx_pinctrl_probe
 .text.imx_pinctrl_remove
                0x000000008781abcc        0xa drivers/built-in.o
                0x000000008781abcc                imx_pinctrl_remove
 .text.imx6_pinctrl_probe
                0x000000008781abd6       0x14 drivers/built-in.o
 .text.get_desc
                0x000000008781abea       0x6a drivers/built-in.o
 .text.blk_post_probe
                0x000000008781ac54        0xe drivers/built-in.o
 *fill*         0x000000008781ac62        0x2 
 .text.blk_get_if_type_name
                0x000000008781ac64        0xc drivers/built-in.o
                0x000000008781ac64                blk_get_if_type_name
 .text.blk_get_devnum_by_typename
                0x000000008781ac70       0x84 drivers/built-in.o
                0x000000008781ac70                blk_get_devnum_by_typename
 .text.blk_list_part
                0x000000008781acf4       0x3e drivers/built-in.o
                0x000000008781acf4                blk_list_part
 .text.blk_print_part_devnum
                0x000000008781ad32       0x24 drivers/built-in.o
                0x000000008781ad32                blk_print_part_devnum
 *fill*         0x000000008781ad56        0x2 
 .text.blk_list_devices
                0x000000008781ad58       0x3c drivers/built-in.o
                0x000000008781ad58                blk_list_devices
 .text.blk_print_device_num
                0x000000008781ad94       0x28 drivers/built-in.o
                0x000000008781ad94                blk_print_device_num
 .text.blk_show_device
                0x000000008781adbc       0x54 drivers/built-in.o
                0x000000008781adbc                blk_show_device
 .text.blk_select_hwpart
                0x000000008781ae10       0x16 drivers/built-in.o
                0x000000008781ae10                blk_select_hwpart
 .text.blk_dselect_hwpart
                0x000000008781ae26        0x6 drivers/built-in.o
                0x000000008781ae26                blk_dselect_hwpart
 .text.blk_first_device
                0x000000008781ae2c       0x36 drivers/built-in.o
                0x000000008781ae2c                blk_first_device
 .text.blk_next_device
                0x000000008781ae62       0x2e drivers/built-in.o
                0x000000008781ae62                blk_next_device
 .text.blk_find_device
                0x000000008781ae90       0x50 drivers/built-in.o
                0x000000008781ae90                blk_find_device
 .text.blk_get_device
                0x000000008781aee0       0x16 drivers/built-in.o
                0x000000008781aee0                blk_get_device
 .text.blk_get_devnum_by_type
                0x000000008781aef6       0x1a drivers/built-in.o
                0x000000008781aef6                blk_get_devnum_by_type
 .text.blk_select_hwpart_devnum
                0x000000008781af10       0x18 drivers/built-in.o
                0x000000008781af10                blk_select_hwpart_devnum
 .text.blk_dread
                0x000000008781af28       0x6a drivers/built-in.o
                0x000000008781af28                blk_dread
 .text.blk_read_devnum
                0x000000008781af92       0x1e drivers/built-in.o
                0x000000008781af92                blk_read_devnum
 .text.blk_dwrite
                0x000000008781afb0       0x3c drivers/built-in.o
                0x000000008781afb0                blk_dwrite
 .text.blk_write_devnum
                0x000000008781afec       0x1e drivers/built-in.o
                0x000000008781afec                blk_write_devnum
 .text.blk_derase
                0x000000008781b00a       0x30 drivers/built-in.o
                0x000000008781b00a                blk_derase
 .text.blk_get_from_parent
                0x000000008781b03a       0x32 drivers/built-in.o
                0x000000008781b03a                blk_get_from_parent
 .text.blk_find_max_devnum
                0x000000008781b06c       0x46 drivers/built-in.o
                0x000000008781b06c                blk_find_max_devnum
 .text.blk_next_free_devnum
                0x000000008781b0b2       0x18 drivers/built-in.o
                0x000000008781b0b2                blk_next_free_devnum
 .text.blk_create_device
                0x000000008781b0ca       0xe4 drivers/built-in.o
                0x000000008781b0ca                blk_create_device
 *fill*         0x000000008781b1ae        0x2 
 .text.blk_create_devicef
                0x000000008781b1b0       0x6c drivers/built-in.o
                0x000000008781b1b0                blk_create_devicef
 .text.blkcache_read
                0x000000008781b21c       0x94 drivers/built-in.o
                0x000000008781b21c                blkcache_read
 .text.blkcache_fill
                0x000000008781b2b0       0xc0 drivers/built-in.o
                0x000000008781b2b0                blkcache_fill
 .text.blkcache_invalidate
                0x000000008781b370       0x60 drivers/built-in.o
                0x000000008781b370                blkcache_invalidate
 .text.blkcache_configure
                0x000000008781b3d0       0x5c drivers/built-in.o
                0x000000008781b3d0                blkcache_configure
 .text.blkcache_stats
                0x000000008781b42c       0x18 drivers/built-in.o
                0x000000008781b42c                blkcache_stats
 .text.fastboot_response
                0x000000008781b444       0x3e drivers/built-in.o
                0x000000008781b444                fastboot_response
 *fill*         0x000000008781b482        0x2 
 .text.fastboot_fail
                0x000000008781b484       0x14 drivers/built-in.o
                0x000000008781b484                fastboot_fail
 .text.fastboot_okay
                0x000000008781b498       0x1c drivers/built-in.o
                0x000000008781b498                fastboot_okay
 .text.fastboot_boot
                0x000000008781b4b4       0x60 drivers/built-in.o
                0x000000008781b4b4                fastboot_boot
 .text.fastboot_init
                0x000000008781b514       0x3c drivers/built-in.o
                0x000000008781b514                fastboot_init
 .text.mmc_sparse_reserve
                0x000000008781b550        0x4 drivers/built-in.o
 .text.mmc_sparse_write
                0x000000008781b554       0x88 drivers/built-in.o
 .text.get_fastboot_target_dev
                0x000000008781b5dc       0xb8 drivers/built-in.o
 .text.write_backup_gpt
                0x000000008781b694       0x64 drivers/built-in.o
                0x000000008781b694                write_backup_gpt
 .text.process_flash_blkdev
                0x000000008781b6f8      0x2a8 drivers/built-in.o
 .text.fastboot_process_erase
                0x000000008781b9a0      0x160 drivers/built-in.o
                0x000000008781b9a0                fastboot_process_erase
 .text.fastboot_process_flash
                0x000000008781bb00       0x34 drivers/built-in.o
                0x000000008781bb00                fastboot_process_flash
 .text.okay     0x000000008781bb34        0x6 drivers/built-in.o
 *fill*         0x000000008781bb3a        0x2 
 .text.upload   0x000000008781bb3c       0x70 drivers/built-in.o
 .text.download
                0x000000008781bbac       0x70 drivers/built-in.o
 .text.getvar   0x000000008781bc1c        0x4 drivers/built-in.o
 .text.run_acmd
                0x000000008781bc20       0x58 drivers/built-in.o
 .text.flash    0x000000008781bc78       0x38 drivers/built-in.o
 .text.reboot_bootloader
                0x000000008781bcb0        0x6 drivers/built-in.o
 *fill*         0x000000008781bcb6        0x2 
 .text.erase    0x000000008781bcb8       0x24 drivers/built-in.o
 .text.run_ucmd
                0x000000008781bcdc       0x40 drivers/built-in.o
 .text.fastboot_run_bootmode
                0x000000008781bd1c        0xc drivers/built-in.o
                0x000000008781bd1c                fastboot_run_bootmode
 .text.fastboot_data_remaining
                0x000000008781bd28       0x1c drivers/built-in.o
                0x000000008781bd28                fastboot_data_remaining
 .text.fastboot_data_download
                0x000000008781bd44       0x70 drivers/built-in.o
                0x000000008781bd44                fastboot_data_download
 .text.fastboot_data_complete
                0x000000008781bdb4       0x40 drivers/built-in.o
                0x000000008781bdb4                fastboot_data_complete
 .text.fastboot_acmd_complete
                0x000000008781bdf4        0xc drivers/built-in.o
                0x000000008781bdf4                fastboot_acmd_complete
 .text.fastboot_handle_command
                0x000000008781be00       0x74 drivers/built-in.o
                0x000000008781be00                fastboot_handle_command
 .text.fastboot_puts
                0x000000008781be74       0x5c drivers/built-in.o
 .text.fastboot_putc
                0x000000008781bed0       0x28 drivers/built-in.o
 .text.get_block_size
                0x000000008781bef8       0x50 drivers/built-in.o
                0x000000008781bef8                get_block_size
 .text.fastboot_none_resp
                0x000000008781bf48        0x6 drivers/built-in.o
                0x000000008781bf48                fastboot_none_resp
 *fill*         0x000000008781bf4e        0x2 
 .text.board_fastboot_setup
                0x000000008781bf50      0x340 drivers/built-in.o
                0x000000008781bf50                board_fastboot_setup
 .text.fastboot_setup
                0x000000008781c290       0xac drivers/built-in.o
                0x000000008781c290                fastboot_setup
 .text.strcmp_l1
                0x000000008781c33c       0x20 drivers/built-in.o
 .text.get_serial
                0x000000008781c35c       0x30 drivers/built-in.o
                0x000000008781c35c                get_serial
 .text.get_single_var
                0x000000008781c38c      0x368 drivers/built-in.o
 .text.fastboot_getvar
                0x000000008781c6f4      0x300 drivers/built-in.o
                0x000000008781c6f4                fastboot_getvar
 .text.bootloader_mmc_offset
                0x000000008781c9f4      0x190 drivers/built-in.o
 .text.bootloader_gpt_overlay
                0x000000008781cb84       0x28 drivers/built-in.o
                0x000000008781cb84                bootloader_gpt_overlay
 .text.fastboot_flash_add_ptn
                0x000000008781cbac       0x28 drivers/built-in.o
                0x000000008781cbac                fastboot_flash_add_ptn
 .text._fastboot_parts_load_from_ptable
                0x000000008781cbd4      0x220 drivers/built-in.o
 .text.fastboot_load_partitions
                0x000000008781cdf4       0x10 drivers/built-in.o
                0x000000008781cdf4                fastboot_load_partitions
 .text.fastboot_flash_dump_ptn
                0x000000008781ce04       0x3c drivers/built-in.o
                0x000000008781ce04                fastboot_flash_dump_ptn
 .text.fastboot_flash_find_ptn
                0x000000008781ce40       0x54 drivers/built-in.o
                0x000000008781ce40                fastboot_flash_find_ptn
 .text.fastboot_parts_is_raw
                0x000000008781ce94       0x54 drivers/built-in.o
                0x000000008781ce94                fastboot_parts_is_raw
 .text.fastboot_parts_get_name
                0x000000008781cee8       0xac drivers/built-in.o
                0x000000008781cee8                fastboot_parts_get_name
 .text.fastboot_parts_is_slot
                0x000000008781cf94       0x54 drivers/built-in.o
                0x000000008781cf94                fastboot_parts_is_slot
 .text.finish_access
                0x000000008781cfe8       0x28 drivers/built-in.o
 .text.wait_busy
                0x000000008781d010       0x1a drivers/built-in.o
 *fill*         0x000000008781d02a        0x2 
 .text.prepare_access
                0x000000008781d02c       0x7c drivers/built-in.o
 .text.setup_direct_access
                0x000000008781d0a8       0xe0 drivers/built-in.o
 .text.fuse_bank_physical
                0x000000008781d188       0x94 drivers/built-in.o
                0x000000008781d188                fuse_bank_physical
 .text.fuse_word_physical
                0x000000008781d21c       0x36 drivers/built-in.o
                0x000000008781d21c                fuse_word_physical
 *fill*         0x000000008781d252        0x2 
 .text.fuse_read
                0x000000008781d254       0x58 drivers/built-in.o
                0x000000008781d254                fuse_read
 .text.fuse_sense
                0x000000008781d2ac       0x98 drivers/built-in.o
                0x000000008781d2ac                fuse_sense
 .text.fuse_prog
                0x000000008781d344       0x4c drivers/built-in.o
                0x000000008781d344                fuse_prog
 .text.fuse_override
                0x000000008781d390       0x54 drivers/built-in.o
                0x000000008781d390                fuse_override
 .text.mmc_send_ext_csd
                0x000000008781d3e4       0x2e drivers/built-in.o
 *fill*         0x000000008781d412        0x2 
 .text.mmc_send_op_cond_iter
                0x000000008781d414       0x44 drivers/built-in.o
 .text.mmc_go_idle
                0x000000008781d458       0x32 drivers/built-in.o
 .text.mmc_set_capacity
                0x000000008781d48a       0x6c drivers/built-in.o
 *fill*         0x000000008781d4f6        0x2 
 .text.mmc_read_and_compare_ext_csd
                0x000000008781d4f8       0x78 drivers/built-in.o
 .text.mmc_power_on.isra.0
                0x000000008781d570       0x20 drivers/built-in.o
 .text.mmc_mode_name
                0x000000008781d590       0x18 drivers/built-in.o
                0x000000008781d590                mmc_mode_name
 .text.mmc_send_status
                0x000000008781d5a8       0x3c drivers/built-in.o
                0x000000008781d5a8                mmc_send_status
 .text.__mmc_switch.constprop.0
                0x000000008781d5e4       0xb6 drivers/built-in.o
 *fill*         0x000000008781d69a        0x2 
 .text.mmc_set_card_speed.constprop.0
                0x000000008781d69c       0x68 drivers/built-in.o
 .text.mmc_poll_for_busy
                0x000000008781d704       0x78 drivers/built-in.o
                0x000000008781d704                mmc_poll_for_busy
 .text.mmc_set_blocklen
                0x000000008781d77c       0x42 drivers/built-in.o
                0x000000008781d77c                mmc_set_blocklen
 *fill*         0x000000008781d7be        0x2 
 .text.mmc_bread
                0x000000008781d7c0       0xe8 drivers/built-in.o
                0x000000008781d7c0                mmc_bread
 .text.mmc_switch
                0x000000008781d8a8        0x4 drivers/built-in.o
                0x000000008781d8a8                mmc_switch
 .text.mmc_startup_v4
                0x000000008781d8ac      0x2a8 drivers/built-in.o
 .text.mmc_switch_part
                0x000000008781db54       0x56 drivers/built-in.o
                0x000000008781db54                mmc_switch_part
 *fill*         0x000000008781dbaa        0x2 
 .text.mmc_hwpart_config
                0x000000008781dbac      0x2ec drivers/built-in.o
                0x000000008781dbac                mmc_hwpart_config
 .text.mmc_set_clock
                0x000000008781de98       0x20 drivers/built-in.o
                0x000000008781de98                mmc_set_clock
 .text.mmc_startup
                0x000000008781deb8      0x8ac drivers/built-in.o
 .text.mmc_dump_capabilities
                0x000000008781e764        0x2 drivers/built-in.o
                0x000000008781e764                mmc_dump_capabilities
 *fill*         0x000000008781e766        0x2 
 .text.mmc_get_op_cond
                0x000000008781e768      0x1e0 drivers/built-in.o
                0x000000008781e768                mmc_get_op_cond
 .text.mmc_start_init
                0x000000008781e948       0x44 drivers/built-in.o
                0x000000008781e948                mmc_start_init
 .text.mmc_init
                0x000000008781e98c       0xa6 drivers/built-in.o
                0x000000008781e98c                mmc_init
 .text.mmc_set_dsr
                0x000000008781ea32        0x6 drivers/built-in.o
                0x000000008781ea32                mmc_set_dsr
 .text.mmc_initialize
                0x000000008781ea38       0x7c drivers/built-in.o
                0x000000008781ea38                mmc_initialize
 .text.mmc_blk_probe
                0x000000008781eab4       0x14 drivers/built-in.o
 .text.dm_mmc_set_ios
                0x000000008781eac8       0x10 drivers/built-in.o
                0x000000008781eac8                dm_mmc_set_ios
 .text.mmc_set_ios
                0x000000008781ead8        0x8 drivers/built-in.o
                0x000000008781ead8                mmc_set_ios
 .text.dm_mmc_wait_dat0
                0x000000008781eae0       0x10 drivers/built-in.o
                0x000000008781eae0                dm_mmc_wait_dat0
 .text.mmc_wait_dat0
                0x000000008781eaf0        0x8 drivers/built-in.o
                0x000000008781eaf0                mmc_wait_dat0
 .text.dm_mmc_get_wp
                0x000000008781eaf8       0x10 drivers/built-in.o
                0x000000008781eaf8                dm_mmc_get_wp
 .text.mmc_getwp
                0x000000008781eb08        0x8 drivers/built-in.o
                0x000000008781eb08                mmc_getwp
 .text.dm_mmc_get_cd
                0x000000008781eb10       0x10 drivers/built-in.o
                0x000000008781eb10                dm_mmc_get_cd
 .text.mmc_getcd
                0x000000008781eb20        0x8 drivers/built-in.o
                0x000000008781eb20                mmc_getcd
 .text.dm_mmc_host_power_cycle
                0x000000008781eb28        0xe drivers/built-in.o
                0x000000008781eb28                dm_mmc_host_power_cycle
 .text.mmc_host_power_cycle
                0x000000008781eb36        0x8 drivers/built-in.o
                0x000000008781eb36                mmc_host_power_cycle
 .text.dm_mmc_deferred_probe
                0x000000008781eb3e        0xe drivers/built-in.o
                0x000000008781eb3e                dm_mmc_deferred_probe
 .text.mmc_deferred_probe
                0x000000008781eb4c        0x8 drivers/built-in.o
                0x000000008781eb4c                mmc_deferred_probe
 .text.mmc_of_parse
                0x000000008781eb54      0x1fc drivers/built-in.o
                0x000000008781eb54                mmc_of_parse
 .text.mmc_get_mmc_dev
                0x000000008781ed50       0x16 drivers/built-in.o
                0x000000008781ed50                mmc_get_mmc_dev
 .text.dm_mmc_send_cmd
                0x000000008781ed66       0x26 drivers/built-in.o
                0x000000008781ed66                dm_mmc_send_cmd
 .text.mmc_send_cmd
                0x000000008781ed8c        0x8 drivers/built-in.o
                0x000000008781ed8c                mmc_send_cmd
 .text.mmc_select_hwpart
                0x000000008781ed94       0x48 drivers/built-in.o
 .text.find_mmc_device
                0x000000008781eddc       0x30 drivers/built-in.o
                0x000000008781eddc                find_mmc_device
 .text.get_mmc_num
                0x000000008781ee0c       0x10 drivers/built-in.o
                0x000000008781ee0c                get_mmc_num
 .text.mmc_get_blk_desc
                0x000000008781ee1c       0x1a drivers/built-in.o
                0x000000008781ee1c                mmc_get_blk_desc
 .text.mmc_do_preinit
                0x000000008781ee36       0x38 drivers/built-in.o
                0x000000008781ee36                mmc_do_preinit
 *fill*         0x000000008781ee6e        0x2 
 .text.print_mmc_devices
                0x000000008781ee70       0x98 drivers/built-in.o
                0x000000008781ee70                print_mmc_devices
 .text.mmc_bind
                0x000000008781ef08       0x80 drivers/built-in.o
                0x000000008781ef08                mmc_bind
 .text.mmc_berase
                0x000000008781ef88      0x11c drivers/built-in.o
                0x000000008781ef88                mmc_berase
 .text.mmc_bwrite
                0x000000008781f0a4      0x10c drivers/built-in.o
                0x000000008781f0a4                mmc_bwrite
 .text.mmc_boot_partition_size_change
                0x000000008781f1b0       0x7c drivers/built-in.o
                0x000000008781f1b0                mmc_boot_partition_size_change
 .text.mmc_set_boot_bus_width
                0x000000008781f22c       0x12 drivers/built-in.o
                0x000000008781f22c                mmc_set_boot_bus_width
 .text.mmc_set_part_conf
                0x000000008781f23e       0x20 drivers/built-in.o
                0x000000008781f23e                mmc_set_part_conf
 .text.mmc_set_rst_n_function
                0x000000008781f25e        0xa drivers/built-in.o
                0x000000008781f25e                mmc_set_rst_n_function
 .text.fsl_esdhc_get_cd
                0x000000008781f268       0x46 drivers/built-in.o
 .text.fsl_esdhc_bind
                0x000000008781f2ae       0x18 drivers/built-in.o
 .text.fsl_esdhc_set_ios
                0x000000008781f2c6      0x11a drivers/built-in.o
 .text.check_and_invalidate_dcache_range.isra.0
                0x000000008781f3e0       0x22 drivers/built-in.o
 *fill*         0x000000008781f402        0x2 
 .text.fsl_esdhc_send_cmd
                0x000000008781f404      0x344 drivers/built-in.o
 .text.init_clk_usdhc
                0x000000008781f748        0x2 drivers/built-in.o
                0x000000008781f748                init_clk_usdhc
 *fill*         0x000000008781f74a        0x2 
 .text.fsl_esdhc_probe
                0x000000008781f74c      0x38c drivers/built-in.o
 .text.console_normal_set_row
                0x000000008781fad8       0x5a drivers/built-in.o
 *fill*         0x000000008781fb32        0x2 
 .text.console_normal_putc_xy
                0x000000008781fb34       0xd0 drivers/built-in.o
 .text.console_normal_probe
                0x000000008781fc04       0x28 drivers/built-in.o
 .text.console_normal_move_rows
                0x000000008781fc2c       0x2e drivers/built-in.o
 .text.backlight_enable
                0x000000008781fc5a       0x10 drivers/built-in.o
                0x000000008781fc5a                backlight_enable
 .text.backlight_set_brightness
                0x000000008781fc6a       0x10 drivers/built-in.o
                0x000000008781fc6a                backlight_set_brightness
 .text.panel_enable_backlight
                0x000000008781fc7a       0x10 drivers/built-in.o
                0x000000008781fc7a                panel_enable_backlight
 .text.panel_get_display_timing
                0x000000008781fc8a       0x10 drivers/built-in.o
                0x000000008781fc8a                panel_get_display_timing
 .text.simple_panel_set_backlight
                0x000000008781fc9a       0x1e drivers/built-in.o
 .text.simple_panel_enable_backlight
                0x000000008781fcb8       0x1a drivers/built-in.o
 *fill*         0x000000008781fcd2        0x2 
 .text.simple_panel_ofdata_to_platdata
                0x000000008781fcd4       0x54 drivers/built-in.o
 .text.simple_panel_probe
                0x000000008781fd28       0x16 drivers/built-in.o
 .text.alloc_fb
                0x000000008781fd3e       0x2a drivers/built-in.o
 .text.video_pre_remove
                0x000000008781fd68       0x10 drivers/built-in.o
 .text.video_pre_probe
                0x000000008781fd78       0x20 drivers/built-in.o
 .text.video_post_bind
                0x000000008781fd98       0x44 drivers/built-in.o
 .text.video_set_flush_dcache
                0x000000008781fddc        0xe drivers/built-in.o
                0x000000008781fddc                video_set_flush_dcache
 .text.video_reserve
                0x000000008781fdea       0x2e drivers/built-in.o
                0x000000008781fdea                video_reserve
 .text.video_clear
                0x000000008781fe18       0x44 drivers/built-in.o
                0x000000008781fe18                video_clear
 .text.video_set_default_colors
                0x000000008781fe5c       0x30 drivers/built-in.o
                0x000000008781fe5c                video_set_default_colors
 .text.video_post_probe
                0x000000008781fe8c       0x94 drivers/built-in.o
 .text.video_sync
                0x000000008781ff20       0x24 drivers/built-in.o
                0x000000008781ff20                video_sync
 .text.video_sync_all
                0x000000008781ff44       0x28 drivers/built-in.o
                0x000000008781ff44                video_sync_all
 .text.video_get_xsize
                0x000000008781ff6c        0xa drivers/built-in.o
                0x000000008781ff6c                video_get_xsize
 .text.video_get_ysize
                0x000000008781ff76        0xa drivers/built-in.o
                0x000000008781ff76                video_get_ysize
 .text.set_cursor_position
                0x000000008781ff80       0x28 drivers/built-in.o
 .text.vidconsole_pre_probe
                0x000000008781ffa8       0x1a drivers/built-in.o
 .text.parsenum
                0x000000008781ffc2       0x14 drivers/built-in.o
 *fill*         0x000000008781ffd6        0x2 
 .text.vidconsole_post_probe
                0x000000008781ffd8       0x54 drivers/built-in.o
 .text.vidconsole_putc_xy
                0x000000008782002c       0x18 drivers/built-in.o
                0x000000008782002c                vidconsole_putc_xy
 .text.vidconsole_move_rows
                0x0000000087820044       0x18 drivers/built-in.o
                0x0000000087820044                vidconsole_move_rows
 .text.vidconsole_set_row
                0x000000008782005c       0x10 drivers/built-in.o
                0x000000008782005c                vidconsole_set_row
 .text.vidconsole_newline
                0x000000008782006c       0x58 drivers/built-in.o
 .text.vid_console_color
                0x00000000878200c4       0x50 drivers/built-in.o
                0x00000000878200c4                vid_console_color
 .text.vidconsole_put_char
                0x0000000087820114      0x378 drivers/built-in.o
                0x0000000087820114                vidconsole_put_char
 .text.vidconsole_putc
                0x000000008782048c       0x16 drivers/built-in.o
 .text.do_video_puts
                0x00000000878204a2       0x3c drivers/built-in.o
 .text.vidconsole_put_string
                0x00000000878204de       0x1c drivers/built-in.o
                0x00000000878204de                vidconsole_put_string
 .text.vidconsole_puts
                0x00000000878204fa       0x16 drivers/built-in.o
 .text.vidconsole_position_cursor
                0x0000000087820510       0x42 drivers/built-in.o
                0x0000000087820510                vidconsole_position_cursor
 .text.do_video_setcursor
                0x0000000087820552       0x44 drivers/built-in.o
 .text.fb_put_byte
                0x0000000087820596       0x12 drivers/built-in.o
                0x0000000087820596                fb_put_byte
 .text.fb_put_word
                0x00000000878205a8       0x24 drivers/built-in.o
                0x00000000878205a8                fb_put_word
 .text.video_bmp_display
                0x00000000878205cc      0x4b4 drivers/built-in.o
                0x00000000878205cc                video_bmp_display
 .text.ofnode_get_child_by_name
                0x0000000087820a80       0x36 drivers/built-in.o
                0x0000000087820a80                ofnode_get_child_by_name
 *fill*         0x0000000087820ab6        0x2 
 .text.ofnode_graph_get_next_endpoint
                0x0000000087820ab8       0x74 drivers/built-in.o
                0x0000000087820ab8                ofnode_graph_get_next_endpoint
 .text.ofnode_graph_get_remote_endpoint
                0x0000000087820b2c       0x34 drivers/built-in.o
                0x0000000087820b2c                ofnode_graph_get_remote_endpoint
 .text.ofnode_graph_get_port_parent
                0x0000000087820b60       0x3c drivers/built-in.o
                0x0000000087820b60                ofnode_graph_get_port_parent
 .text.ofnode_graph_get_remote_port_parent
                0x0000000087820b9c        0xe drivers/built-in.o
                0x0000000087820b9c                ofnode_graph_get_remote_port_parent
 .text.find_device_by_ofnode
                0x0000000087820baa       0x52 drivers/built-in.o
                0x0000000087820baa                find_device_by_ofnode
 .text.video_link_add_node
                0x0000000087820bfc       0xc8 drivers/built-in.o
 .text.video_link_get_next_device
                0x0000000087820cc4       0x78 drivers/built-in.o
                0x0000000087820cc4                video_link_get_next_device
 .text.video_link_get_video_device
                0x0000000087820d3c       0x54 drivers/built-in.o
                0x0000000087820d3c                video_link_get_video_device
 .text.list_videolink
                0x0000000087820d90       0xb0 drivers/built-in.o
 .text.do_videolink
                0x0000000087820e40       0x1e drivers/built-in.o
 *fill*         0x0000000087820e5e        0x2 
 .text.video_link_get_display_timings
                0x0000000087820e60       0xe0 drivers/built-in.o
                0x0000000087820e60                video_link_get_display_timings
 .text.video_link_init
                0x0000000087820f40       0x98 drivers/built-in.o
                0x0000000087820f40                video_link_init
 .text.video_link_shut_down
                0x0000000087820fd8       0x12 drivers/built-in.o
                0x0000000087820fd8                video_link_shut_down
 *fill*         0x0000000087820fea        0x2 
 .text.mxs_video_bind
                0x0000000087820fec       0x14 drivers/built-in.o
 .text.mxs_video_remove
                0x0000000087821000       0x68 drivers/built-in.o
 .text.mxsfb_system_setup
                0x0000000087821068        0x2 drivers/built-in.o
                0x0000000087821068                mxsfb_system_setup
 *fill*         0x000000008782106a        0x2 
 .text.mxs_video_probe
                0x000000008782106c      0x2ac drivers/built-in.o
 .text.reset_cpu
                0x0000000087821318       0x1c drivers/built-in.o
                0x0000000087821318                reset_cpu
 .text.thermal_get_temp
                0x0000000087821334       0x10 drivers/built-in.o
                0x0000000087821334                thermal_get_temp
 *fill*         0x0000000087821344        0x4 
 .text.read_cpu_temperature
                0x0000000087821348      0x114 drivers/built-in.o
 .text.imx_thermal_get_temp
                0x000000008782145c       0x54 drivers/built-in.o
                0x000000008782145c                imx_thermal_get_temp
 .text.imx_thermal_probe
                0x00000000878214b0       0x7c drivers/built-in.o
 .text.gen_74x164_direction_input
                0x000000008782152c        0x6 drivers/gpio/built-in.o
 .text.gen_74x164_get_function
                0x0000000087821532        0x4 drivers/gpio/built-in.o
 .text.gen_74x164_xlate
                0x0000000087821536       0x12 drivers/gpio/built-in.o
 .text.gen_74x164_get_value
                0x0000000087821548       0x20 drivers/gpio/built-in.o
 .text.gen_74x164_write_conf
                0x0000000087821568       0x34 drivers/gpio/built-in.o
 .text.gen_74x164_set_value
                0x000000008782159c       0x38 drivers/gpio/built-in.o
 .text.gen_74x164_direction_output
                0x00000000878215d4        0x4 drivers/gpio/built-in.o
 .text.gen_74x164_probe
                0x00000000878215d8       0xb0 drivers/gpio/built-in.o
 .text.gpio_post_bind
                0x0000000087821688        0x4 drivers/gpio/built-in.o
 .text.get_function
                0x000000008782168c       0x5e drivers/gpio/built-in.o
 .text.gpio_to_device
                0x00000000878216ea       0x4a drivers/gpio/built-in.o
 .text.check_reserved
                0x0000000087821734       0x4c drivers/gpio/built-in.o
 .text.gpio_renumber
                0x0000000087821780       0x46 drivers/gpio/built-in.o
 .text.gpio_pre_remove
                0x00000000878217c6       0x30 drivers/gpio/built-in.o
 .text.gpio_post_probe
                0x00000000878217f6       0x24 drivers/gpio/built-in.o
 *fill*         0x000000008782181a        0x2 
 .text.dm_gpio_lookup_name
                0x000000008782181c       0xa0 drivers/gpio/built-in.o
                0x000000008782181c                dm_gpio_lookup_name
 .text.gpio_lookup_name
                0x00000000878218bc       0x3c drivers/gpio/built-in.o
                0x00000000878218bc                gpio_lookup_name
 .text.gpio_xlate_offs_flags
                0x00000000878218f8       0x26 drivers/gpio/built-in.o
                0x00000000878218f8                gpio_xlate_offs_flags
 .text.dm_gpio_request
                0x000000008782191e       0x62 drivers/gpio/built-in.o
                0x000000008782191e                dm_gpio_request
 .text.dm_gpio_requestf
                0x0000000087821980       0x2a drivers/gpio/built-in.o
 .text.gpio_request
                0x00000000878219aa       0x18 drivers/gpio/built-in.o
                0x00000000878219aa                gpio_request
 .text._dm_gpio_free
                0x00000000878219c2       0x42 drivers/gpio/built-in.o
                0x00000000878219c2                _dm_gpio_free
 .text.gpio_free
                0x0000000087821a04       0x18 drivers/gpio/built-in.o
                0x0000000087821a04                gpio_free
 .text.gpio_direction_input
                0x0000000087821a1c       0x2c drivers/gpio/built-in.o
                0x0000000087821a1c                gpio_direction_input
 .text.gpio_direction_output
                0x0000000087821a48       0x2c drivers/gpio/built-in.o
                0x0000000087821a48                gpio_direction_output
 .text.dm_gpio_get_value
                0x0000000087821a74       0x2c drivers/gpio/built-in.o
                0x0000000087821a74                dm_gpio_get_value
 .text.dm_gpio_set_value
                0x0000000087821aa0       0x34 drivers/gpio/built-in.o
                0x0000000087821aa0                dm_gpio_set_value
 .text.dm_gpio_set_dir_flags
                0x0000000087821ad4       0x58 drivers/gpio/built-in.o
                0x0000000087821ad4                dm_gpio_set_dir_flags
 .text.gpio_request_tail
                0x0000000087821b2c       0x90 drivers/gpio/built-in.o
 .text._gpio_request_by_name_nodev
                0x0000000087821bbc       0x50 drivers/gpio/built-in.o
 .text.gpio_get_value
                0x0000000087821c0c       0x16 drivers/gpio/built-in.o
                0x0000000087821c0c                gpio_get_value
 .text.gpio_get_bank_info
                0x0000000087821c22       0x10 drivers/gpio/built-in.o
                0x0000000087821c22                gpio_get_bank_info
 .text.gpio_get_function
                0x0000000087821c32        0x8 drivers/gpio/built-in.o
                0x0000000087821c32                gpio_get_function
 .text.gpio_get_raw_function
                0x0000000087821c3a        0x8 drivers/gpio/built-in.o
                0x0000000087821c3a                gpio_get_raw_function
 *fill*         0x0000000087821c42        0x2 
 .text.gpio_get_status
                0x0000000087821c44       0xbc drivers/gpio/built-in.o
                0x0000000087821c44                gpio_get_status
 .text.gpio_request_by_name_nodev
                0x0000000087821d00       0x18 drivers/gpio/built-in.o
                0x0000000087821d00                gpio_request_by_name_nodev
 .text.gpio_request_by_name
                0x0000000087821d18       0x54 drivers/gpio/built-in.o
                0x0000000087821d18                gpio_request_by_name
 .text.dm_gpio_free
                0x0000000087821d6c        0xa drivers/gpio/built-in.o
                0x0000000087821d6c                dm_gpio_free
 .text.gpio_free_list
                0x0000000087821d76       0x28 drivers/gpio/built-in.o
                0x0000000087821d76                gpio_free_list
 .text.gpio_free_list_nodev
                0x0000000087821d9e        0xa drivers/gpio/built-in.o
                0x0000000087821d9e                gpio_free_list_nodev
 .text.gpio_request_list_by_name_nodev
                0x0000000087821da8       0x50 drivers/gpio/built-in.o
                0x0000000087821da8                gpio_request_list_by_name_nodev
 .text.gpio_request_list_by_name
                0x0000000087821df8        0x6 drivers/gpio/built-in.o
                0x0000000087821df8                gpio_request_list_by_name
 .text.mxc_gpio_bind
                0x0000000087821dfe        0x4 drivers/gpio/built-in.o
 .text.mxc_gpio_get_function
                0x0000000087821e02       0x20 drivers/gpio/built-in.o
 .text.mxc_gpio_get_value
                0x0000000087821e22       0x18 drivers/gpio/built-in.o
 .text.mxc_gpio_direction_input
                0x0000000087821e3a       0x24 drivers/gpio/built-in.o
 .text.mxc_gpio_ofdata_to_platdata
                0x0000000087821e5e       0x24 drivers/gpio/built-in.o
 *fill*         0x0000000087821e82        0x2 
 .text.mxc_gpio_probe
                0x0000000087821e84       0x4c drivers/gpio/built-in.o
 .text.mxc_gpio_direction_output
                0x0000000087821ed0       0x3c drivers/gpio/built-in.o
 .text.mxc_gpio_set_value
                0x0000000087821f0c       0x2c drivers/gpio/built-in.o
 .text.i2c_setup_offset
                0x0000000087821f38       0x42 drivers/i2c/built-in.o
 .text.i2c_probe_chip
                0x0000000087821f7a       0x44 drivers/i2c/built-in.o
 *fill*         0x0000000087821fbe        0x2 
 .text.i2c_uclass_init
                0x0000000087821fc0       0x20 drivers/i2c/built-in.o
                0x0000000087821fc0                i2c_uclass_init
 .text.i2c_pre_probe
                0x0000000087821fe0       0x48 drivers/i2c/built-in.o
 .text.i2c_post_bind
                0x0000000087822028       0x1e drivers/i2c/built-in.o
 .text.dm_i2c_read
                0x0000000087822046       0xe2 drivers/i2c/built-in.o
                0x0000000087822046                dm_i2c_read
 .text.dm_i2c_write
                0x0000000087822128      0x136 drivers/i2c/built-in.o
                0x0000000087822128                dm_i2c_write
 *fill*         0x000000008782225e        0x2 
 .text.i2c_get_chip
                0x0000000087822260       0xa0 drivers/i2c/built-in.o
                0x0000000087822260                i2c_get_chip
 .text.dm_i2c_probe
                0x0000000087822300       0x24 drivers/i2c/built-in.o
                0x0000000087822300                dm_i2c_probe
 .text.dm_i2c_set_bus_speed
                0x0000000087822324       0x26 drivers/i2c/built-in.o
                0x0000000087822324                dm_i2c_set_bus_speed
 *fill*         0x000000008782234a        0x2 
 .text.i2c_post_probe
                0x000000008782234c       0x2c drivers/i2c/built-in.o
 .text.dm_i2c_get_bus_speed
                0x0000000087822378       0x1c drivers/i2c/built-in.o
                0x0000000087822378                dm_i2c_get_bus_speed
 .text.i2c_set_chip_flags
                0x0000000087822394       0x28 drivers/i2c/built-in.o
                0x0000000087822394                i2c_set_chip_flags
 .text.i2c_get_chip_flags
                0x00000000878223bc       0x10 drivers/i2c/built-in.o
                0x00000000878223bc                i2c_get_chip_flags
 .text.i2c_set_chip_offset_len
                0x00000000878223cc       0x16 drivers/i2c/built-in.o
                0x00000000878223cc                i2c_set_chip_offset_len
 .text.i2c_get_chip_offset_len
                0x00000000878223e2        0xa drivers/i2c/built-in.o
                0x00000000878223e2                i2c_get_chip_offset_len
 .text.i2c_deblock
                0x00000000878223ec       0xfc drivers/i2c/built-in.o
                0x00000000878223ec                i2c_deblock
 .text.i2c_chip_ofdata_to_platdata
                0x00000000878224e8       0x38 drivers/i2c/built-in.o
                0x00000000878224e8                i2c_chip_ofdata_to_platdata
 .text.i2c_child_post_bind
                0x0000000087822520       0x1e drivers/i2c/built-in.o
 *fill*         0x000000008782253e        0x2 
 .text.wait_for_sr_state
                0x0000000087822540       0xc4 drivers/i2c/built-in.o
 .text.tx_byte  0x0000000087822604       0x3e drivers/i2c/built-in.o
 *fill*         0x0000000087822642        0x2 
 .text.i2c_imx_stop
                0x0000000087822644       0x44 drivers/i2c/built-in.o
 .text.mxc_i2c_set_bus_speed
                0x0000000087822688       0x80 drivers/i2c/built-in.o
 .text.__i2c_force_reset_slave
                0x0000000087822708        0x2 drivers/i2c/built-in.o
                0x0000000087822708                __i2c_force_reset_slave
                0x0000000087822708                i2c_force_reset_slave
 *fill*         0x000000008782270a        0x2 
 .text.i2c_idle_bus
                0x000000008782270c       0xf4 drivers/i2c/built-in.o
                0x000000008782270c                i2c_idle_bus
 .text.i2c_init_transfer.constprop.0
                0x0000000087822800      0x164 drivers/i2c/built-in.o
 .text.mxc_i2c_xfer
                0x0000000087822964      0x1de drivers/i2c/built-in.o
 .text.mxc_i2c_probe_chip
                0x0000000087822b42       0x20 drivers/i2c/built-in.o
 *fill*         0x0000000087822b62        0x2 
 .text.mxc_i2c_probe
                0x0000000087822b64       0xd0 drivers/i2c/built-in.o
 .text.eth_phy_binds_nodes
                0x0000000087822c34       0x50 drivers/net/built-in.o
                0x0000000087822c34                eth_phy_binds_nodes
 .text.eth_phy_set_mdio_bus
                0x0000000087822c84       0x2c drivers/net/built-in.o
                0x0000000087822c84                eth_phy_set_mdio_bus
 .text.eth_phy_get_mdio_bus
                0x0000000087822cb0       0x4c drivers/net/built-in.o
                0x0000000087822cb0                eth_phy_get_mdio_bus
 .text.fec_reg_setup
                0x0000000087822cfc       0x4c drivers/net/built-in.o
 .text.fecmxc_free_pkt
                0x0000000087822d48        0xe drivers/net/built-in.o
 .text.fec_free_descs
                0x0000000087822d56       0x28 drivers/net/built-in.o
 *fill*         0x0000000087822d7e        0x2 
 .text.fec_phy_write
                0x0000000087822d80       0x60 drivers/net/built-in.o
 .text.fec_phy_read
                0x0000000087822de0       0x6c drivers/net/built-in.o
 .text.fecmxc_set_hwaddr
                0x0000000087822e4c       0x76 drivers/net/built-in.o
 .text.fecmxc_read_rom_hwaddr
                0x0000000087822ec2       0x44 drivers/net/built-in.o
 .text.fecmxc_halt
                0x0000000087822f06       0x58 drivers/net/built-in.o
 *fill*         0x0000000087822f5e        0x2 
 .text.fecmxc_ofdata_to_platdata
                0x0000000087822f60       0xc4 drivers/net/built-in.o
 .text.fecmxc_remove
                0x0000000087823024       0x2e drivers/net/built-in.o
 *fill*         0x0000000087823052        0x2 
 .text.fecmxc_send
                0x0000000087823054       0xec drivers/net/built-in.o
 .text.fec_mii_setspeed.isra.0
                0x0000000087823140       0x54 drivers/net/built-in.o
 .text.fecmxc_init
                0x0000000087823194      0x268 drivers/net/built-in.o
 .text.fecmxc_recv
                0x00000000878233fc      0x19c drivers/net/built-in.o
 .text.fec_get_miibus
                0x0000000087823598       0x70 drivers/net/built-in.o
                0x0000000087823598                fec_get_miibus
 .text.fecmxc_probe
                0x0000000087823608      0x23c drivers/net/built-in.o
 .text.genphy_shutdown
                0x0000000087823844        0x4 drivers/net/phy/built-in.o
                0x0000000087823844                genphy_shutdown
 .text.genphy_restart_aneg
                0x0000000087823848       0x4a drivers/net/phy/built-in.o
                0x0000000087823848                genphy_restart_aneg
 .text.genphy_config_aneg
                0x0000000087823892      0x1e2 drivers/net/phy/built-in.o
                0x0000000087823892                genphy_config_aneg
 .text.genphy_config
                0x0000000087823a74       0xa4 drivers/net/phy/built-in.o
                0x0000000087823a74                genphy_config
 .text.genphy_update_link
                0x0000000087823b18       0xf8 drivers/net/phy/built-in.o
                0x0000000087823b18                genphy_update_link
 .text.genphy_parse_link
                0x0000000087823c10      0x14a drivers/net/phy/built-in.o
                0x0000000087823c10                genphy_parse_link
 .text.genphy_startup
                0x0000000087823d5a       0x16 drivers/net/phy/built-in.o
                0x0000000087823d5a                genphy_startup
 .text.phy_register
                0x0000000087823d70       0x18 drivers/net/phy/built-in.o
                0x0000000087823d70                phy_register
 .text.genphy_init
                0x0000000087823d88        0xc drivers/net/phy/built-in.o
                0x0000000087823d88                genphy_init
 .text.phy_init
                0x0000000087823d94        0xe drivers/net/phy/built-in.o
                0x0000000087823d94                phy_init
 .text.get_phy_id
                0x0000000087823da2       0x3e drivers/net/phy/built-in.o
                0x0000000087823da2                get_phy_id
 .text.get_phy_device_by_mask
                0x0000000087823de0      0x1f8 drivers/net/phy/built-in.o
 .text.phy_reset
                0x0000000087823fd8       0xb0 drivers/net/phy/built-in.o
                0x0000000087823fd8                phy_reset
 .text.phy_find_by_mask
                0x0000000087824088       0x24 drivers/net/phy/built-in.o
                0x0000000087824088                phy_find_by_mask
 .text.phy_connect_dev
                0x00000000878240ac       0x30 drivers/net/phy/built-in.o
                0x00000000878240ac                phy_connect_dev
 .text.phy_connect
                0x00000000878240dc       0x3c drivers/net/phy/built-in.o
                0x00000000878240dc                phy_connect
 .text.phy_startup
                0x0000000087824118        0xc drivers/net/phy/built-in.o
                0x0000000087824118                phy_startup
 .text.phy_config
                0x0000000087824124        0x4 drivers/net/phy/built-in.o
                0x0000000087824124                phy_config
 .text.phy_get_interface_by_name
                0x0000000087824128       0x28 drivers/net/phy/built-in.o
                0x0000000087824128                phy_get_interface_by_name
 .text.smsc_startup
                0x0000000087824150       0x42 drivers/net/phy/built-in.o
 *fill*         0x0000000087824192        0x2 
 .text.phy_smsc_init
                0x0000000087824194       0x44 drivers/net/phy/built-in.o
                0x0000000087824194                phy_smsc_init
 .text.regulator_post_bind
                0x00000000878241d8       0x74 drivers/power/regulator/built-in.o
 .text.regulator_get_value
                0x000000008782424c       0x1c drivers/power/regulator/built-in.o
                0x000000008782424c                regulator_get_value
 .text.regulator_get_enable
                0x0000000087824268       0x1c drivers/power/regulator/built-in.o
                0x0000000087824268                regulator_get_enable
 .text.regulator_set_enable
                0x0000000087824284       0x76 drivers/power/regulator/built-in.o
                0x0000000087824284                regulator_set_enable
 *fill*         0x00000000878242fa        0x2 
 .text.regulator_pre_probe
                0x00000000878242fc      0x12c drivers/power/regulator/built-in.o
 .text.device_get_supply_regulator
                0x0000000087824428        0xc drivers/power/regulator/built-in.o
                0x0000000087824428                device_get_supply_regulator
 .text.regulator_common_ofdata_to_platdata
                0x0000000087824434       0x68 drivers/power/regulator/built-in.o
                0x0000000087824434                regulator_common_ofdata_to_platdata
 .text.regulator_common_get_enable
                0x000000008782449c        0xe drivers/power/regulator/built-in.o
                0x000000008782449c                regulator_common_get_enable
 *fill*         0x00000000878244aa        0x2 
 .text.regulator_common_set_enable
                0x00000000878244ac       0x48 drivers/power/regulator/built-in.o
                0x00000000878244ac                regulator_common_set_enable
 .text.fixed_regulator_set_enable
                0x00000000878244f4       0x18 drivers/power/regulator/built-in.o
 .text.fixed_regulator_get_enable
                0x000000008782450c       0x14 drivers/power/regulator/built-in.o
 .text.fixed_regulator_get_current
                0x0000000087824520       0x1e drivers/power/regulator/built-in.o
 .text.fixed_regulator_get_value
                0x000000008782453e       0x1e drivers/power/regulator/built-in.o
 .text.fixed_regulator_ofdata_to_platdata
                0x000000008782455c       0x30 drivers/power/regulator/built-in.o
 .text.gpio_regulator_set_enable
                0x000000008782458c       0x18 drivers/power/regulator/built-in.o
 .text.gpio_regulator_get_enable
                0x00000000878245a4       0x14 drivers/power/regulator/built-in.o
 .text.gpio_regulator_set_value
                0x00000000878245b8       0x50 drivers/power/regulator/built-in.o
 .text.gpio_regulator_get_value
                0x0000000087824608       0x3c drivers/power/regulator/built-in.o
 .text.gpio_regulator_ofdata_to_platdata
                0x0000000087824644       0x80 drivers/power/regulator/built-in.o
 .text.serial_stub_start
                0x00000000878246c4        0x6 drivers/serial/built-in.o
 .text.serial_stub_stop
                0x00000000878246ca        0x6 drivers/serial/built-in.o
 .text.serial_stub_putc
                0x00000000878246d0        0x8 drivers/serial/built-in.o
 .text.serial_stub_puts
                0x00000000878246d8        0x8 drivers/serial/built-in.o
 .text.serial_stub_getc
                0x00000000878246e0        0x6 drivers/serial/built-in.o
 .text.serial_stub_tstc
                0x00000000878246e6        0x6 drivers/serial/built-in.o
 .text.get_current
                0x00000000878246ec       0x28 drivers/serial/built-in.o
 .text.serial_null
                0x0000000087824714        0x2 drivers/serial/built-in.o
                0x0000000087824714                ns16550_serial_initialize
                0x0000000087824714                sh_serial_initialize
                0x0000000087824714                mtk_serial_initialize
                0x0000000087824714                xen_debug_serial_initialize
                0x0000000087824714                mcf_serial_initialize
                0x0000000087824714                mpc85xx_serial_initialize
                0x0000000087824714                pxa_serial_initialize
                0x0000000087824714                atmel_serial_initialize
                0x0000000087824714                pl01x_serial_initialize
                0x0000000087824714                xen_serial_initialize
 *fill*         0x0000000087824716        0x2 
 .text.serial_register
                0x0000000087824718       0x10 drivers/serial/built-in.o
                0x0000000087824718                serial_register
 .text.serial_stdio_init
                0x0000000087824728       0x64 drivers/serial/built-in.o
                0x0000000087824728                serial_stdio_init
 .text.serial_assign
                0x000000008782478c       0x2c drivers/serial/built-in.o
                0x000000008782478c                serial_assign
 .text.serial_initialize
                0x00000000878247b8       0x3a drivers/serial/built-in.o
                0x00000000878247b8                serial_initialize
 .text.serial_init
                0x00000000878247f2       0x1a drivers/serial/built-in.o
                0x00000000878247f2                serial_init
 .text.serial_setbrg
                0x000000008782480c        0xe drivers/serial/built-in.o
                0x000000008782480c                serial_setbrg
 *fill*         0x000000008782481a        0x2 
 .text.on_baudrate
                0x000000008782481c       0x9c drivers/serial/built-in.o
 .text.serial_getc
                0x00000000878248b8        0xe drivers/serial/built-in.o
                0x00000000878248b8                serial_getc
 .text.serial_tstc
                0x00000000878248c6        0xe drivers/serial/built-in.o
                0x00000000878248c6                serial_tstc
 .text.serial_putc
                0x00000000878248d4       0x12 drivers/serial/built-in.o
                0x00000000878248d4                serial_putc
 .text.serial_puts
                0x00000000878248e6       0x12 drivers/serial/built-in.o
                0x00000000878248e6                serial_puts
 .text.default_serial_puts
                0x00000000878248f8       0x1a drivers/serial/built-in.o
                0x00000000878248f8                default_serial_puts
 *fill*         0x0000000087824912        0x2 
 .text.mxc_serial_getc
                0x0000000087824914       0x20 drivers/serial/built-in.o
 .text.mxc_serial_putc
                0x0000000087824934       0x2c drivers/serial/built-in.o
 .text.mxc_serial_tstc
                0x0000000087824960       0x50 drivers/serial/built-in.o
 .text.mxc_serial_setbrg
                0x00000000878249b0       0x5c drivers/serial/built-in.o
 .text.mxc_serial_init
                0x0000000087824a0c       0x6c drivers/serial/built-in.o
 .text.mxc_serial_initialize
                0x0000000087824a78        0xc drivers/serial/built-in.o
                0x0000000087824a78                mxc_serial_initialize
 .text.default_serial_console
                0x0000000087824a84        0x8 drivers/serial/built-in.o
                0x0000000087824a84                default_serial_console
 .text.spi_child_pre_probe
                0x0000000087824a8c       0x22 drivers/spi/built-in.o
 *fill*         0x0000000087824aae        0x2 
 .text.spi_post_probe
                0x0000000087824ab0       0x20 drivers/spi/built-in.o
 .text.dm_spi_claim_bus
                0x0000000087824ad0       0xac drivers/spi/built-in.o
                0x0000000087824ad0                dm_spi_claim_bus
 .text.dm_spi_release_bus
                0x0000000087824b7c        0xe drivers/spi/built-in.o
                0x0000000087824b7c                dm_spi_release_bus
 .text.dm_spi_xfer
                0x0000000087824b8a       0x2a drivers/spi/built-in.o
                0x0000000087824b8a                dm_spi_xfer
 .text.spi_claim_bus
                0x0000000087824bb4        0x6 drivers/spi/built-in.o
                0x0000000087824bb4                spi_claim_bus
 .text.spi_release_bus
                0x0000000087824bba        0x6 drivers/spi/built-in.o
                0x0000000087824bba                spi_release_bus
 .text.spi_xfer
                0x0000000087824bc0        0x6 drivers/spi/built-in.o
                0x0000000087824bc0                spi_xfer
 *fill*         0x0000000087824bc6        0x2 
 .text.spi_find_chip_select
                0x0000000087824bc8       0x58 drivers/spi/built-in.o
                0x0000000087824bc8                spi_find_chip_select
 .text.spi_find_bus_and_cs
                0x0000000087824c20       0x2e drivers/spi/built-in.o
                0x0000000087824c20                spi_find_bus_and_cs
 *fill*         0x0000000087824c4e        0x2 
 .text.spi_get_bus_and_cs
                0x0000000087824c50       0xf4 drivers/spi/built-in.o
                0x0000000087824c50                spi_get_bus_and_cs
 .text.spi_slave_ofdata_to_platdata
                0x0000000087824d44      0x10c drivers/spi/built-in.o
                0x0000000087824d44                spi_slave_ofdata_to_platdata
 .text.spi_child_post_bind
                0x0000000087824e50       0x1e drivers/spi/built-in.o
 .text.soft_spi_release_bus
                0x0000000087824e6e        0x4 drivers/spi/built-in.o
 .text.soft_spi_set_speed
                0x0000000087824e72        0x4 drivers/spi/built-in.o
 .text.soft_spi_set_mode
                0x0000000087824e76        0xe drivers/spi/built-in.o
 .text.soft_spi_scl
                0x0000000087824e84       0x18 drivers/spi/built-in.o
 .text.soft_spi_claim_bus
                0x0000000087824e9c        0x6 drivers/spi/built-in.o
 .text.soft_spi_xfer
                0x0000000087824ea2      0x132 drivers/spi/built-in.o
 .text.soft_spi_ofdata_to_platdata
                0x0000000087824fd4       0x20 drivers/spi/built-in.o
 .text.soft_spi_probe
                0x0000000087824ff4       0xb4 drivers/spi/built-in.o
 .text.spi_check_buswidth_req.isra.0
                0x00000000878250a8       0x50 drivers/spi/built-in.o
 .text.spi_mem_default_supports_op
                0x00000000878250f8       0x56 drivers/spi/built-in.o
                0x00000000878250f8                spi_mem_default_supports_op
 .text.spi_mem_supports_op
                0x000000008782514e       0x26 drivers/spi/built-in.o
                0x000000008782514e                spi_mem_supports_op
 .text.spi_mem_exec_op
                0x0000000087825174      0x130 drivers/spi/built-in.o
                0x0000000087825174                spi_mem_exec_op
 .text.spi_mem_adjust_op_size
                0x00000000878252a4       0x5c drivers/spi/built-in.o
                0x00000000878252a4                spi_mem_adjust_op_size
 .text.fsl_qspi_set_speed
                0x0000000087825300        0x4 drivers/spi/built-in.o
 .text.fsl_qspi_child_pre_probe
                0x0000000087825304       0x1e drivers/spi/built-in.o
 *fill*         0x0000000087825322        0x2 
 .text.fsl_qspi_ofdata_to_platdata
                0x0000000087825324       0xdc drivers/spi/built-in.o
 .text.qspi_read32
                0x0000000087825400        0xc drivers/spi/built-in.o
 .text.qspi_write32
                0x000000008782540c        0xa drivers/spi/built-in.o
 .text.fsl_qspi_set_mode
                0x0000000087825416        0x4 drivers/spi/built-in.o
 *fill*         0x000000008782541a        0x2 
 .text.qspi_xfer
                0x000000008782541c      0x5fc drivers/spi/built-in.o
                0x000000008782541c                qspi_xfer
 .text.fsl_qspi_xfer
                0x0000000087825a18       0x22 drivers/spi/built-in.o
 .text.qspi_module_disable
                0x0000000087825a3a       0x26 drivers/spi/built-in.o
                0x0000000087825a3a                qspi_module_disable
 .text.fsl_qspi_release_bus
                0x0000000087825a60       0x12 drivers/spi/built-in.o
 .text.fsl_qspi_claim_bus
                0x0000000087825a72       0x6a drivers/spi/built-in.o
 .text.qspi_cfg_smpr
                0x0000000087825adc       0x28 drivers/spi/built-in.o
                0x0000000087825adc                qspi_cfg_smpr
 .text.fsl_qspi_probe
                0x0000000087825b04      0x564 drivers/spi/built-in.o
 .text.usb_get_dr_mode
                0x0000000087826068       0x48 drivers/usb/common/built-in.o
                0x0000000087826068                usb_get_dr_mode
 .text.usb_ether_register
                0x00000000878260b0       0xbe drivers/usb/eth/built-in.o
                0x00000000878260b0                usb_ether_register
 .text.usb_ether_deregister
                0x000000008782616e        0x4 drivers/usb/eth/built-in.o
                0x000000008782616e                usb_ether_deregister
 *fill*         0x0000000087826172        0x2 
 .text.usb_ether_receive
                0x0000000087826174       0x70 drivers/usb/eth/built-in.o
                0x0000000087826174                usb_ether_receive
 .text.usb_ether_advance_rxbuf
                0x00000000878261e4       0x16 drivers/usb/eth/built-in.o
                0x00000000878261e4                usb_ether_advance_rxbuf
 .text.usb_ether_get_rx_bytes
                0x00000000878261fa       0x16 drivers/usb/eth/built-in.o
                0x00000000878261fa                usb_ether_get_rx_bytes
 .text.asix_eth_stop
                0x0000000087826210        0x2 drivers/usb/eth/built-in.o
                0x0000000087826210                asix_eth_stop
 *fill*         0x0000000087826212        0x2 
 .text.asix_send_common
                0x0000000087826214       0x64 drivers/usb/eth/built-in.o
 .text.asix_eth_send
                0x0000000087826278       0x18 drivers/usb/eth/built-in.o
                0x0000000087826278                asix_eth_send
 .text.asix_eth_recv
                0x0000000087826290       0x7e drivers/usb/eth/built-in.o
                0x0000000087826290                asix_eth_recv
 .text.asix_free_pkt
                0x000000008782630e       0x1a drivers/usb/eth/built-in.o
 .text.asix_write_cmd.isra.0
                0x0000000087826328       0x36 drivers/usb/eth/built-in.o
 .text.asix_write_hwaddr_common
                0x000000008782635e       0x2c drivers/usb/eth/built-in.o
 .text.asix_write_hwaddr
                0x000000008782638a       0x28 drivers/usb/eth/built-in.o
                0x000000008782638a                asix_write_hwaddr
 .text.asix_mdio_write
                0x00000000878263b2       0x52 drivers/usb/eth/built-in.o
 .text.asix_sw_reset
                0x0000000087826404       0x28 drivers/usb/eth/built-in.o
 .text.asix_read_cmd.isra.0
                0x000000008782642c       0x3a drivers/usb/eth/built-in.o
 .text.asix_mdio_read
                0x0000000087826466       0x52 drivers/usb/eth/built-in.o
 .text.asix_read_rx_ctl
                0x00000000878264b8       0x2a drivers/usb/eth/built-in.o
 .text.asix_eth_probe
                0x00000000878264e2      0x20e drivers/usb/eth/built-in.o
 .text.asix_eth_start
                0x00000000878266f0       0x94 drivers/usb/eth/built-in.o
 .text.usb_ep_autoconfig
                0x0000000087826784      0x144 drivers/usb/gadget/built-in.o
                0x0000000087826784                usb_ep_autoconfig
 .text.usb_ep_autoconfig_reset
                0x00000000878268c8       0x28 drivers/usb/gadget/built-in.o
                0x00000000878268c8                usb_ep_autoconfig_reset
 .text.usb_descriptor_fillbuf
                0x00000000878268f0       0x38 drivers/usb/gadget/built-in.o
                0x00000000878268f0                usb_descriptor_fillbuf
 .text.usb_gadget_get_string
                0x0000000087826928       0xe4 drivers/usb/gadget/built-in.o
                0x0000000087826928                usb_gadget_get_string
 .text.ci_ep_disable
                0x0000000087826a0c        0xa drivers/usb/gadget/built-in.o
 .text.ci_ep_dequeue
                0x0000000087826a16       0x4a drivers/usb/gadget/built-in.o
 .text.ci_udc_gadget_start
                0x0000000087826a60       0x20 drivers/usb/gadget/built-in.o
 .text.ci_ep_free_request
                0x0000000087826a80       0x30 drivers/usb/gadget/built-in.o
 .text.ci_udc_gadget_stop
                0x0000000087826ab0       0x28 drivers/usb/gadget/built-in.o
 .text.ci_ep_alloc_request
                0x0000000087826ad8       0x40 drivers/usb/gadget/built-in.o
 .text.ci_udc_otg_ofdata_to_platdata
                0x0000000087826b18       0x44 drivers/usb/gadget/built-in.o
 .text.ci_udc_otg_remove
                0x0000000087826b5c       0x24 drivers/usb/gadget/built-in.o
 .text.ci_flush_qh
                0x0000000087826b80       0x14 drivers/usb/gadget/built-in.o
 .text.stop_activity
                0x0000000087826b94       0x7c drivers/usb/gadget/built-in.o
 .text.ci_flush_qtd
                0x0000000087826c10       0x14 drivers/usb/gadget/built-in.o
 .text.ci_udc_probe
                0x0000000087826c24      0x1dc drivers/usb/gadget/built-in.o
 .text.ci_udc_otg_probe
                0x0000000087826e00      0x1cc drivers/usb/gadget/built-in.o
 .text.ep_enable
                0x0000000087826fcc       0x44 drivers/usb/gadget/built-in.o
 .text.ci_ep_enable
                0x0000000087827010       0x40 drivers/usb/gadget/built-in.o
 .text.ci_ep_submit_next_request
                0x0000000087827050      0x140 drivers/usb/gadget/built-in.o
 .text.ci_ep_queue
                0x0000000087827190       0xb0 drivers/usb/gadget/built-in.o
 .text.ci_init_after_reset
                0x0000000087827240        0x2 drivers/usb/gadget/built-in.o
                0x0000000087827240                ci_init_after_reset
 *fill*         0x0000000087827242        0x2 
 .text.udc_irq  0x0000000087827244      0x374 drivers/usb/gadget/built-in.o
                0x0000000087827244                udc_irq
 .text.ci_udc_handle_interrupts
                0x00000000878275b8       0x1c drivers/usb/gadget/built-in.o
                0x00000000878275b8                ci_udc_handle_interrupts
 .text.ci_udc_gadget_handle_interrupts
                0x00000000878275d4        0x4 drivers/usb/gadget/built-in.o
 .text.udc_disconnect
                0x00000000878275d8       0x34 drivers/usb/gadget/built-in.o
                0x00000000878275d8                udc_disconnect
 .text.ci_pullup
                0x000000008782760c       0x58 drivers/usb/gadget/built-in.o
 .text.count_configs
                0x0000000087827664       0x58 drivers/usb/gadget/built-in.o
 .text.collect_langs
                0x00000000878276bc       0x32 drivers/usb/gadget/built-in.o
 .text.composite_setup_complete
                0x00000000878276ee        0x2 drivers/usb/gadget/built-in.o
 .text.count_ext_prop
                0x00000000878276f0       0x32 drivers/usb/gadget/built-in.o
 .text.len_ext_prop
                0x0000000087827722       0x3a drivers/usb/gadget/built-in.o
 .text.composite_suspend
                0x000000008782775c       0x44 drivers/usb/gadget/built-in.o
 .text.composite_resume
                0x00000000878277a0       0x44 drivers/usb/gadget/built-in.o
 .text.g_dnl_unbind
                0x00000000878277e4       0x12 drivers/usb/gadget/built-in.o
 .text.lookup_string
                0x00000000878277f6       0x2a drivers/usb/gadget/built-in.o
 .text.composite_unbind
                0x0000000087827820       0xb0 drivers/usb/gadget/built-in.o
 .text.composite_bind
                0x00000000878278d0      0x148 drivers/usb/gadget/built-in.o
 .text.g_dnl_do_config
                0x0000000087827a18       0x28 drivers/usb/gadget/built-in.o
 .text.reset_config.isra.0
                0x0000000087827a40       0x2e drivers/usb/gadget/built-in.o
 *fill*         0x0000000087827a6e        0x2 
 .text.composite_disconnect
                0x0000000087827a70       0x28 drivers/usb/gadget/built-in.o
 .text.count_ext_compat
                0x0000000087827a98       0x6c drivers/usb/gadget/built-in.o
 .text.composite_setup
                0x0000000087827b04      0xa9c drivers/usb/gadget/built-in.o
 .text.usb_add_function
                0x00000000878285a0       0x88 drivers/usb/gadget/built-in.o
                0x00000000878285a0                usb_add_function
 .text.usb_interface_id
                0x0000000087828628       0x1e drivers/usb/gadget/built-in.o
                0x0000000087828628                usb_interface_id
 .text.usb_add_config
                0x0000000087828646       0xaa drivers/usb/gadget/built-in.o
                0x0000000087828646                usb_add_config
 .text.usb_string_id
                0x00000000878286f0       0x18 drivers/usb/gadget/built-in.o
                0x00000000878286f0                usb_string_id
 .text.usb_composite_register
                0x0000000087828708       0x3c drivers/usb/gadget/built-in.o
                0x0000000087828708                usb_composite_register
 .text.usb_composite_unregister
                0x0000000087828744       0x20 drivers/usb/gadget/built-in.o
                0x0000000087828744                usb_composite_unregister
 .text.g_dnl_set_serialnumber
                0x0000000087828764       0x24 drivers/usb/gadget/built-in.o
                0x0000000087828764                g_dnl_set_serialnumber
 .text.on_serialno
                0x0000000087828788        0xc drivers/usb/gadget/built-in.o
 .text.g_dnl_bind_fixup
                0x0000000087828794        0x4 drivers/usb/gadget/built-in.o
                0x0000000087828794                g_dnl_bind_fixup
 .text.g_dnl_get_board_bcd_device_number
                0x0000000087828798        0x2 drivers/usb/gadget/built-in.o
                0x0000000087828798                g_dnl_get_board_bcd_device_number
 *fill*         0x000000008782879a        0x2 
 .text.g_dnl_bind
                0x000000008782879c       0xf0 drivers/usb/gadget/built-in.o
 .text.g_dnl_board_usb_cable_connected
                0x000000008782888c        0x6 drivers/usb/gadget/built-in.o
                0x000000008782888c                g_dnl_board_usb_cable_connected
 *fill*         0x0000000087828892        0x2 
 .text.g_dnl_detach
                0x0000000087828894        0xc drivers/usb/gadget/built-in.o
                0x0000000087828894                g_dnl_detach
 .text.g_dnl_trigger_detach
                0x00000000878288a0        0xc drivers/usb/gadget/built-in.o
                0x00000000878288a0                g_dnl_trigger_detach
 .text.g_dnl_clear_detach
                0x00000000878288ac        0xc drivers/usb/gadget/built-in.o
                0x00000000878288ac                g_dnl_clear_detach
 .text.g_dnl_register
                0x00000000878288b8       0x2c drivers/usb/gadget/built-in.o
                0x00000000878288b8                g_dnl_register
 .text.g_dnl_unregister
                0x00000000878288e4        0xc drivers/usb/gadget/built-in.o
                0x00000000878288e4                g_dnl_unregister
 .text.board_usb_gadget_port_auto
                0x00000000878288f0        0x6 drivers/usb/gadget/built-in.o
                0x00000000878288f0                board_usb_gadget_port_auto
 .text.raise_exception
                0x00000000878288f6       0x1a drivers/usb/gadget/built-in.o
 .text.ep0_queue
                0x0000000087828910       0x16 drivers/usb/gadget/built-in.o
 .text.bulk_in_complete
                0x0000000087828926       0x22 drivers/usb/gadget/built-in.o
 .text.bulk_out_complete
                0x0000000087828948       0x22 drivers/usb/gadget/built-in.o
 .text.fsg_set_alt
                0x000000008782896a       0x12 drivers/usb/gadget/built-in.o
 .text.fsg_disable
                0x000000008782897c        0xe drivers/usb/gadget/built-in.o
 *fill*         0x000000008782898a        0x2 
 .text.fsg_setup
                0x000000008782898c       0x9c drivers/usb/gadget/built-in.o
 .text.fsg_unbind
                0x0000000087828a28       0x2e drivers/usb/gadget/built-in.o
 *fill*         0x0000000087828a56        0x2 
 .text.store_cdrom_address
                0x0000000087828a58       0x50 drivers/usb/gadget/built-in.o
 .text.fsg_set_halt.isra.0
                0x0000000087828aa8        0x8 drivers/usb/gadget/built-in.o
 .text.start_transfer.isra.0
                0x0000000087828ab0       0x20 drivers/usb/gadget/built-in.o
 .text.halt_bulk_in_endpoint.isra.0
                0x0000000087828ad0       0x1e drivers/usb/gadget/built-in.o
 *fill*         0x0000000087828aee        0x2 
 .text.sleep_thread.isra.0
                0x0000000087828af0       0x9c drivers/usb/gadget/built-in.o
 .text.do_read  0x0000000087828b8c      0x188 drivers/usb/gadget/built-in.o
 .text.send_status
                0x0000000087828d14       0xb4 drivers/usb/gadget/built-in.o
 .text.do_write
                0x0000000087828dc8      0x24c drivers/usb/gadget/built-in.o
 .text.check_command.isra.0
                0x0000000087829014      0x108 drivers/usb/gadget/built-in.o
 .text.do_mode_sense.isra.0
                0x000000008782911c       0xe8 drivers/usb/gadget/built-in.o
 .text.fsg_add  0x0000000087829204      0x21c drivers/usb/gadget/built-in.o
                0x0000000087829204                fsg_add
 .text.do_set_interface
                0x0000000087829420      0x188 drivers/usb/gadget/built-in.o
 .text.fsg_main_thread
                0x00000000878295a8      0xdb0 drivers/usb/gadget/built-in.o
                0x00000000878295a8                fsg_main_thread
 .text.usb_copy_descriptors
                0x000000008782a358       0x4c drivers/usb/gadget/built-in.o
                0x000000008782a358                usb_copy_descriptors
 .text.fsg_bind
                0x000000008782a3a4       0x94 drivers/usb/gadget/built-in.o
 .text.fsg_init
                0x000000008782a438       0x1c drivers/usb/gadget/built-in.o
                0x000000008782a438                fsg_init
 .text.fastboot_start_ep
                0x000000008782a454       0x3c drivers/usb/gadget/built-in.o
 .text.fastboot_add
                0x000000008782a490       0x74 drivers/usb/gadget/built-in.o
 .text.fastboot_disable
                0x000000008782a504       0x46 drivers/usb/gadget/built-in.o
 *fill*         0x000000008782a54a        0x2 
 .text.fastboot_complete
                0x000000008782a54c       0x18 drivers/usb/gadget/built-in.o
 .text.do_acmd_complete
                0x000000008782a564        0xa drivers/usb/gadget/built-in.o
 .text.compl_do_reset
                0x000000008782a56e        0xc drivers/usb/gadget/built-in.o
 .text.do_exit_on_complete
                0x000000008782a57a        0x4 drivers/usb/gadget/built-in.o
 .text.do_bootm_on_complete
                0x000000008782a57e        0xe drivers/usb/gadget/built-in.o
 .text.fastboot_unbind
                0x000000008782a58c       0x38 drivers/usb/gadget/built-in.o
 .text.fastboot_bind
                0x000000008782a5c4      0x140 drivers/usb/gadget/built-in.o
 .text.fastboot_fifo_complete
                0x000000008782a704       0x38 drivers/usb/gadget/built-in.o
 .text.rx_bytes_expected.isra.0
                0x000000008782a73c       0x36 drivers/usb/gadget/built-in.o
 *fill*         0x000000008782a772        0x2 
 .text.fastboot_set_alt
                0x000000008782a774       0xe0 drivers/usb/gadget/built-in.o
 .text.fastboot_tx_write_more
                0x000000008782a854       0xa4 drivers/usb/gadget/built-in.o
                0x000000008782a854                fastboot_tx_write_more
 .text.fastboot_tx_write
                0x000000008782a8f8       0x48 drivers/usb/gadget/built-in.o
                0x000000008782a8f8                fastboot_tx_write
 .text.fastboot_tx_write_str
                0x000000008782a940       0x14 drivers/usb/gadget/built-in.o
 .text.rx_handler_command
                0x000000008782a954       0xf4 drivers/usb/gadget/built-in.o
 .text.rx_handler_dl_image
                0x000000008782aa48       0x80 drivers/usb/gadget/built-in.o
 .text.usb_gadget_remove_driver
                0x000000008782aac8       0x2e drivers/usb/gadget/udc/built-in.o
 .text.usb_udc_release
                0x000000008782aaf6        0x6 drivers/usb/gadget/udc/built-in.o
 .text.usb_add_gadget_udc_release
                0x000000008782aafc       0x44 drivers/usb/gadget/udc/built-in.o
                0x000000008782aafc                usb_add_gadget_udc_release
 .text.usb_add_gadget_udc
                0x000000008782ab40        0x6 drivers/usb/gadget/udc/built-in.o
                0x000000008782ab40                usb_add_gadget_udc
 *fill*         0x000000008782ab46        0x2 
 .text.usb_del_gadget_udc
                0x000000008782ab48       0x4c drivers/usb/gadget/udc/built-in.o
                0x000000008782ab48                usb_del_gadget_udc
 .text.usb_gadget_probe_driver
                0x000000008782ab94       0xac drivers/usb/gadget/udc/built-in.o
                0x000000008782ab94                usb_gadget_probe_driver
 .text.usb_gadget_register_driver
                0x000000008782ac40        0x4 drivers/usb/gadget/udc/built-in.o
                0x000000008782ac40                usb_gadget_register_driver
 .text.usb_gadget_unregister_driver
                0x000000008782ac44       0x44 drivers/usb/gadget/udc/built-in.o
                0x000000008782ac44                usb_gadget_unregister_driver
 .text.usb_gadget_initialize
                0x000000008782ac88       0x5c drivers/usb/gadget/udc/built-in.o
                0x000000008782ac88                usb_gadget_initialize
 .text.usb_gadget_release
                0x000000008782ace4       0x28 drivers/usb/gadget/udc/built-in.o
                0x000000008782ace4                usb_gadget_release
 .text.usb_gadget_handle_interrupts
                0x000000008782ad0c       0x2c drivers/usb/gadget/udc/built-in.o
                0x000000008782ad0c                usb_gadget_handle_interrupts
 .text.usb_match_device
                0x000000008782ad38       0x7c drivers/usb/host/built-in.o
 .text.usb_child_post_bind
                0x000000008782adb4       0x50 drivers/usb/host/built-in.o
 .text.usb_match_one_id_intf.isra.0
                0x000000008782ae04       0x50 drivers/usb/host/built-in.o
 .text.remove_inactive_children.isra.0
                0x000000008782ae54       0x46 drivers/usb/host/built-in.o
 .text.usb_lock_async
                0x000000008782ae9a       0x14 drivers/usb/host/built-in.o
                0x000000008782ae9a                usb_lock_async
 *fill*         0x000000008782aeae        0x2 
 .text.usb_disable_asynch
                0x000000008782aeb0       0x14 drivers/usb/host/built-in.o
                0x000000008782aeb0                usb_disable_asynch
 .text.submit_int_msg
                0x000000008782aec4       0x2e drivers/usb/host/built-in.o
                0x000000008782aec4                submit_int_msg
 .text.submit_control_msg
                0x000000008782aef2       0x4e drivers/usb/host/built-in.o
                0x000000008782aef2                submit_control_msg
 .text.submit_bulk_msg
                0x000000008782af40       0x24 drivers/usb/host/built-in.o
                0x000000008782af40                submit_bulk_msg
 .text.usb_alloc_device
                0x000000008782af64       0x14 drivers/usb/host/built-in.o
                0x000000008782af64                usb_alloc_device
 .text.usb_reset_root_port
                0x000000008782af78       0x16 drivers/usb/host/built-in.o
                0x000000008782af78                usb_reset_root_port
 .text.usb_update_hub_device
                0x000000008782af8e       0x16 drivers/usb/host/built-in.o
                0x000000008782af8e                usb_update_hub_device
 .text.usb_get_max_xfer_size
                0x000000008782afa4       0x14 drivers/usb/host/built-in.o
                0x000000008782afa4                usb_get_max_xfer_size
 .text.usb_stop
                0x000000008782afb8       0x64 drivers/usb/host/built-in.o
                0x000000008782afb8                usb_stop
 .text.usb_get_bus
                0x000000008782b01c       0x18 drivers/usb/host/built-in.o
                0x000000008782b01c                usb_get_bus
 .text.usb_scan_device
                0x000000008782b034      0x1c8 drivers/usb/host/built-in.o
                0x000000008782b034                usb_scan_device
 .text.usb_scan_bus.isra.0
                0x000000008782b1fc       0x4c drivers/usb/host/built-in.o
 .text.usb_init
                0x000000008782b248      0x10c drivers/usb/host/built-in.o
                0x000000008782b248                usb_init
 .text.usb_child_pre_probe
                0x000000008782b354       0x46 drivers/usb/host/built-in.o
                0x000000008782b354                usb_child_pre_probe
 .text.ehci_get_port_speed
                0x000000008782b39a        0x6 drivers/usb/host/built-in.o
 .text.ehci_set_usbmode
                0x000000008782b3a0       0x18 drivers/usb/host/built-in.o
 .text.ehci_get_portsc_register
                0x000000008782b3b8       0x1c drivers/usb/host/built-in.o
 .text.ehci_get_max_xfer_size
                0x000000008782b3d4        0xa drivers/usb/host/built-in.o
 .text.ehci_powerup_fixup
                0x000000008782b3de        0x8 drivers/usb/host/built-in.o
 .text.handshake
                0x000000008782b3e6       0x32 drivers/usb/host/built-in.o
 .text.ehci_td_buffer
                0x000000008782b418       0x58 drivers/usb/host/built-in.o
 .text.ehci_shutdown
                0x000000008782b470       0xa0 drivers/usb/host/built-in.o
 .text._ehci_poll_int_queue
                0x000000008782b510       0x84 drivers/usb/host/built-in.o
 .text.ehci_poll_int_queue
                0x000000008782b594        0x8 drivers/usb/host/built-in.o
 .text.ehci_disable_async.part.0
                0x000000008782b59c       0x44 drivers/usb/host/built-in.o
 .text.disable_periodic.isra.0
                0x000000008782b5e0       0x3c drivers/usb/host/built-in.o
 .text.enable_periodic.isra.0
                0x000000008782b61c       0x44 drivers/usb/host/built-in.o
 .text.ehci_get_ctrl.isra.0
                0x000000008782b660        0xe drivers/usb/host/built-in.o
 *fill*         0x000000008782b66e        0x2 
 .text._ehci_destroy_int_queue
                0x000000008782b670       0xa4 drivers/usb/host/built-in.o
 .text.ehci_destroy_int_queue
                0x000000008782b714        0x8 drivers/usb/host/built-in.o
 .text.ehci_update_endpt2_dev_n_port.isra.0
                0x000000008782b71c       0x42 drivers/usb/host/built-in.o
 *fill*         0x000000008782b75e        0x2 
 .text.ehci_submit_async
                0x000000008782b760      0x420 drivers/usb/host/built-in.o
 .text.ehci_submit_bulk_msg
                0x000000008782bb80       0x22 drivers/usb/host/built-in.o
 *fill*         0x000000008782bba2        0x2 
 .text._ehci_create_int_queue.isra.0
                0x000000008782bba4      0x290 drivers/usb/host/built-in.o
 .text.ehci_create_int_queue
                0x000000008782be34       0x14 drivers/usb/host/built-in.o
 .text.ehci_submit_int_msg
                0x000000008782be48       0x80 drivers/usb/host/built-in.o
 .text.ehci_submit_control_msg
                0x000000008782bec8      0x3e0 drivers/usb/host/built-in.o
 .text.ehci_lock_async
                0x000000008782c2a8       0x22 drivers/usb/host/built-in.o
 *fill*         0x000000008782c2ca        0x2 
 .text.ehci_register
                0x000000008782c2cc      0x284 drivers/usb/host/built-in.o
                0x000000008782c2cc                ehci_register
 .text.ehci_deregister
                0x000000008782c550       0x14 drivers/usb/host/built-in.o
                0x000000008782c550                ehci_deregister
 .text.ehci_usb_remove
                0x000000008782c564       0x2a drivers/usb/host/built-in.o
                0x000000008782c564                ehci_usb_remove
 *fill*         0x000000008782c58e        0x2 
 .text.mx6_init_after_reset
                0x000000008782c590      0x104 drivers/usb/host/built-in.o
 .text.ehci_mx6_powerup_fixup
                0x000000008782c694       0x30 drivers/usb/host/built-in.o
 .text.ehci_usb_probe
                0x000000008782c6c4      0x338 drivers/usb/host/built-in.o
 .text.ehci_usb_bind
                0x000000008782c9fc       0x20 drivers/usb/host/built-in.o
 .text.board_ehci_usb_phy_mode
                0x000000008782ca1c        0x4 drivers/usb/host/built-in.o
                0x000000008782ca1c                board_ehci_usb_phy_mode
 .text.ehci_usb_ofdata_to_platdata
                0x000000008782ca20       0x6c drivers/usb/host/built-in.o
 .text.board_ehci_hcd_init
                0x000000008782ca8c        0x4 drivers/usb/imx/built-in.o
                0x000000008782ca8c                board_ehci_hcd_init
 .text.ehci_mx6_common_init
                0x000000008782ca90      0x160 drivers/usb/imx/built-in.o
                0x000000008782ca90                ehci_mx6_common_init
 .text.env_get_yesno
                0x000000008782cbf0       0x2a env/built-in.o
                0x000000008782cbf0                env_get_yesno
 .text.env_get_default
                0x000000008782cc1a       0x2a env/built-in.o
                0x000000008782cc1a                env_get_default
 .text.env_set_default
                0x000000008782cc44       0x6c env/built-in.o
                0x000000008782cc44                env_set_default
 .text.env_set_default_vars
                0x000000008782ccb0       0x2c env/built-in.o
                0x000000008782ccb0                env_set_default_vars
 .text.env_import
                0x000000008782ccdc       0x8c env/built-in.o
                0x000000008782ccdc                env_import
 .text.env_export
                0x000000008782cd68       0x54 env/built-in.o
                0x000000008782cd68                env_export
 .text.env_relocate
                0x000000008782cdbc       0x28 env/built-in.o
                0x000000008782cdbc                env_relocate
 .text.env_complete
                0x000000008782cde4      0x110 env/built-in.o
                0x000000008782cde4                env_complete
 .text.env_get_location
                0x000000008782cef4        0xe env/built-in.o
                0x000000008782cef4                env_get_location
 *fill*         0x000000008782cf02        0x2 
 .text.env_driver_lookup
                0x000000008782cf04       0x30 env/built-in.o
 .text.env_get_char_spec
                0x000000008782cf34        0x8 env/built-in.o
                0x000000008782cf34                env_get_char_spec
 .text.env_get_char
                0x000000008782cf3c       0x14 env/built-in.o
                0x000000008782cf3c                env_get_char
 .text.env_load
                0x000000008782cf50       0x6c env/built-in.o
                0x000000008782cf50                env_load
 .text.env_save
                0x000000008782cfbc       0x58 env/built-in.o
                0x000000008782cfbc                env_save
 .text.env_init
                0x000000008782d014       0x58 env/built-in.o
                0x000000008782d014                env_init
 .text.env_get_offset
                0x000000008782d06c        0x2 env/built-in.o
                0x000000008782d06c                env_get_offset
 *fill*         0x000000008782d06e        0x2 
 .text.regex_callback
                0x000000008782d070       0xd8 env/built-in.o
 .text.env_attr_walk
                0x000000008782d148       0xb2 env/built-in.o
                0x000000008782d148                env_attr_walk
 *fill*         0x000000008782d1fa        0x2 
 .text.env_attr_lookup
                0x000000008782d1fc       0x4c env/built-in.o
                0x000000008782d1fc                env_attr_lookup
 .text.skip_num
                0x000000008782d248       0x3c env/built-in.o
 .text.clear_flags
                0x000000008782d284        0x8 env/built-in.o
 .text.on_flags
                0x000000008782d28c       0x38 env/built-in.o
 .text.env_flags_parse_vartype
                0x000000008782d2c4       0x30 env/built-in.o
                0x000000008782d2c4                env_flags_parse_vartype
 .text.env_flags_parse_varaccess
                0x000000008782d2f4       0x30 env/built-in.o
                0x000000008782d2f4                env_flags_parse_varaccess
 .text.set_flags
                0x000000008782d324       0x68 env/built-in.o
 .text.eth_validate_ethaddr_str
                0x000000008782d38c       0x52 env/built-in.o
                0x000000008782d38c                eth_validate_ethaddr_str
 *fill*         0x000000008782d3de        0x2 
 .text.env_flags_init
                0x000000008782d3e0       0x90 env/built-in.o
                0x000000008782d3e0                env_flags_init
 .text.env_flags_validate
                0x000000008782d470      0x188 env/built-in.o
                0x000000008782d470                env_flags_validate
 .text.clear_callback
                0x000000008782d5f8        0x8 env/built-in.o
 .text.find_env_callback
                0x000000008782d600       0x38 env/built-in.o
 .text.on_callbacks
                0x000000008782d638       0x38 env/built-in.o
 .text.set_callback
                0x000000008782d670       0x54 env/built-in.o
 .text.env_callback_init
                0x000000008782d6c4       0x78 env/built-in.o
                0x000000008782d6c4                env_callback_init
 .text.mmc_get_env_addr
                0x000000008782d73c       0x9c env/built-in.o
                0x000000008782d73c                mmc_get_env_addr
 .text.fini_mmc_for_env.isra.0
                0x000000008782d7d8       0x1c env/built-in.o
 .text.init_mmc_for_env
                0x000000008782d7f4       0x60 env/built-in.o
 .text.env_mmc_save
                0x000000008782d854       0xbc env/built-in.o
 .text.env_mmc_load
                0x000000008782d910       0xb0 env/built-in.o
 .text.fs_probe_unsupported
                0x000000008782d9c0       0x14 fs/built-in.o
 .text.fs_ls_unsupported
                0x000000008782d9d4        0x6 fs/built-in.o
 .text.fs_exists_unsupported
                0x000000008782d9da        0x4 fs/built-in.o
 .text.fs_size_unsupported
                0x000000008782d9de        0x6 fs/built-in.o
 .text.fs_read_unsupported
                0x000000008782d9e4        0x6 fs/built-in.o
 .text.fs_close_unsupported
                0x000000008782d9ea        0x2 fs/built-in.o
 .text.fs_opendir_unsupported
                0x000000008782d9ec        0x6 fs/built-in.o
 *fill*         0x000000008782d9f2        0x2 
 .text.fs_get_info
                0x000000008782d9f4       0x24 fs/built-in.o
 .text.fs_write_unsupported
                0x000000008782da18        0x6 fs/built-in.o
 .text.fs_mkdir_unsupported
                0x000000008782da1e        0x6 fs/built-in.o
 .text.fs_ln_unsupported
                0x000000008782da24        0x6 fs/built-in.o
 .text.fs_uuid_unsupported
                0x000000008782da2a        0x6 fs/built-in.o
 .text.fs_unlink_unsupported
                0x000000008782da30        0x6 fs/built-in.o
 *fill*         0x000000008782da36        0x2 
 .text.fs_get_type
                0x000000008782da38        0xc fs/built-in.o
                0x000000008782da38                fs_get_type
 .text.fs_set_blk_dev
                0x000000008782da44       0x70 fs/built-in.o
                0x000000008782da44                fs_set_blk_dev
 .text.fs_set_blk_dev_with_part
                0x000000008782dab4       0x68 fs/built-in.o
                0x000000008782dab4                fs_set_blk_dev_with_part
 .text.fs_close
                0x000000008782db1c       0x18 fs/built-in.o
                0x000000008782db1c                fs_close
 .text.fs_ls    0x000000008782db34       0x20 fs/built-in.o
                0x000000008782db34                fs_ls
 .text.fs_exists
                0x000000008782db54       0x20 fs/built-in.o
                0x000000008782db54                fs_exists
 .text.fs_size  0x000000008782db74       0x24 fs/built-in.o
                0x000000008782db74                fs_size
 .text.fs_read  0x000000008782db98       0x40 fs/built-in.o
                0x000000008782db98                fs_read
 .text.fs_write
                0x000000008782dbd8       0x60 fs/built-in.o
                0x000000008782dbd8                fs_write
 .text.fs_opendir
                0x000000008782dc38       0x50 fs/built-in.o
                0x000000008782dc38                fs_opendir
 .text.fs_readdir
                0x000000008782dc88       0x3c fs/built-in.o
                0x000000008782dc88                fs_readdir
 .text.fs_closedir
                0x000000008782dcc4       0x2c fs/built-in.o
                0x000000008782dcc4                fs_closedir
 .text.fs_ls_generic
                0x000000008782dcf0       0x78 fs/built-in.o
 .text.fs_unlink
                0x000000008782dd68       0x20 fs/built-in.o
                0x000000008782dd68                fs_unlink
 .text.fs_mkdir
                0x000000008782dd88       0x20 fs/built-in.o
                0x000000008782dd88                fs_mkdir
 .text.fs_ln    0x000000008782dda8       0x38 fs/built-in.o
                0x000000008782dda8                fs_ln
 .text.do_size  0x000000008782dde0       0x40 fs/built-in.o
                0x000000008782dde0                do_size
 .text.do_load  0x000000008782de20      0x22c fs/built-in.o
                0x000000008782de20                do_load
 .text.do_ls    0x000000008782e04c       0x40 fs/built-in.o
                0x000000008782e04c                do_ls
 .text.file_exists
                0x000000008782e08c       0x1a fs/built-in.o
                0x000000008782e08c                file_exists
 *fill*         0x000000008782e0a6        0x2 
 .text.do_save  0x000000008782e0a8       0xfc fs/built-in.o
                0x000000008782e0a8                do_save
 .text.do_fs_type
                0x000000008782e1a4       0x50 fs/built-in.o
                0x000000008782e1a4                do_fs_type
 .text.do_rm    0x000000008782e1f4       0x2c fs/built-in.o
                0x000000008782e1f4                do_rm
 .text.do_mkdir
                0x000000008782e220       0x34 fs/built-in.o
                0x000000008782e220                do_mkdir
 .text.do_ln    0x000000008782e254       0x2e fs/built-in.o
                0x000000008782e254                do_ln
 *fill*         0x000000008782e282        0x2 
 .text.get_fs   0x000000008782e284        0x8 fs/built-in.o
                0x000000008782e284                get_fs
 .text.ext4fs_free_node
                0x000000008782e28c       0x1c fs/built-in.o
                0x000000008782e28c                ext4fs_free_node
 .text.ext4fs_ls
                0x000000008782e2a8       0x5c fs/built-in.o
                0x000000008782e2a8                ext4fs_ls
 .text.ext4fs_exists
                0x000000008782e304       0x14 fs/built-in.o
                0x000000008782e304                ext4fs_exists
 .text.ext4fs_size
                0x000000008782e318        0x4 fs/built-in.o
                0x000000008782e318                ext4fs_size
 .text.ext4fs_probe
                0x000000008782e31c       0x1e fs/built-in.o
                0x000000008782e31c                ext4fs_probe
 *fill*         0x000000008782e33a        0x2 
 .text.ext4fs_uuid
                0x000000008782e33c       0x20 fs/built-in.o
                0x000000008782e33c                ext4fs_uuid
 .text.ext_cache_init
                0x000000008782e35c        0x8 fs/built-in.o
                0x000000008782e35c                ext_cache_init
 .text.ext_cache_fini
                0x000000008782e364       0x14 fs/built-in.o
                0x000000008782e364                ext_cache_fini
 .text.ext4fs_read_file
                0x000000008782e378      0x26c fs/built-in.o
                0x000000008782e378                ext4fs_read_file
 .text.ext4fs_read
                0x000000008782e5e4       0x38 fs/built-in.o
                0x000000008782e5e4                ext4fs_read
 .text.ext4_read_file
                0x000000008782e61c       0x50 fs/built-in.o
                0x000000008782e61c                ext4_read_file
 .text.ext_cache_read
                0x000000008782e66c       0x50 fs/built-in.o
                0x000000008782e66c                ext_cache_read
 .text.ext4fs_get_group_descriptor
                0x000000008782e6bc        0xa fs/built-in.o
                0x000000008782e6bc                ext4fs_get_group_descriptor
 .text.ext4fs_sb_get_free_blocks
                0x000000008782e6c6       0x10 fs/built-in.o
                0x000000008782e6c6                ext4fs_sb_get_free_blocks
 .text.ext4fs_sb_set_free_blocks
                0x000000008782e6d6        0xa fs/built-in.o
                0x000000008782e6d6                ext4fs_sb_set_free_blocks
 .text.ext4fs_bg_get_free_blocks
                0x000000008782e6e0       0x12 fs/built-in.o
                0x000000008782e6e0                ext4fs_bg_get_free_blocks
 .text.ext4fs_bg_get_block_id
                0x000000008782e6f2       0x1c fs/built-in.o
                0x000000008782e6f2                ext4fs_bg_get_block_id
 .text.ext4fs_bg_get_inode_id
                0x000000008782e70e       0x1c fs/built-in.o
                0x000000008782e70e                ext4fs_bg_get_inode_id
 .text.ext4fs_bg_get_inode_table_id
                0x000000008782e72a       0x1c fs/built-in.o
                0x000000008782e72a                ext4fs_bg_get_inode_table_id
 .text.ext4fs_div_roundup
                0x000000008782e746       0x14 fs/built-in.o
                0x000000008782e746                ext4fs_div_roundup
 *fill*         0x000000008782e75a        0x2 
 .text.put_ext4
                0x000000008782e75c      0x11c fs/built-in.o
                0x000000008782e75c                put_ext4
 .text.ext4fs_set_block_bmap
                0x000000008782e878       0x6c fs/built-in.o
                0x000000008782e878                ext4fs_set_block_bmap
 .text.ext4fs_reset_block_bmap
                0x000000008782e8e4       0x68 fs/built-in.o
                0x000000008782e8e4                ext4fs_reset_block_bmap
 .text.ext4fs_set_inode_bmap
                0x000000008782e94c       0x50 fs/built-in.o
                0x000000008782e94c                ext4fs_set_inode_bmap
 .text.ext4fs_reset_inode_bmap
                0x000000008782e99c       0x4c fs/built-in.o
                0x000000008782e99c                ext4fs_reset_inode_bmap
 .text.ext4fs_checksum_update
                0x000000008782e9e8       0x5a fs/built-in.o
                0x000000008782e9e8                ext4fs_checksum_update
 *fill*         0x000000008782ea42        0x2 
 .text.ext4fs_get_new_blk_no
                0x000000008782ea44      0x2cc fs/built-in.o
                0x000000008782ea44                ext4fs_get_new_blk_no
 .text.ext4fs_get_new_inode_no
                0x000000008782ed10      0x2b0 fs/built-in.o
                0x000000008782ed10                ext4fs_get_new_inode_no
 .text.ext4fs_allocate_blocks
                0x000000008782efc0      0x414 fs/built-in.o
                0x000000008782efc0                ext4fs_allocate_blocks
 .text.ext4fs_read_inode
                0x000000008782f3d4      0x132 fs/built-in.o
                0x000000008782f3d4                ext4fs_read_inode
 *fill*         0x000000008782f506        0x2 
 .text.ext4fs_iget
                0x000000008782f508       0x1c fs/built-in.o
                0x000000008782f508                ext4fs_iget
 .text.read_allocated_block
                0x000000008782f524      0x630 fs/built-in.o
                0x000000008782f524                read_allocated_block
 .text.ext4fs_update_parent_dentry
                0x000000008782fb54      0x254 fs/built-in.o
                0x000000008782fb54                ext4fs_update_parent_dentry
 .text.search_dir
                0x000000008782fda8       0xd0 fs/built-in.o
 .text.ext4fs_get_parent_inode_num
                0x000000008782fe78      0x2c0 fs/built-in.o
                0x000000008782fe78                ext4fs_get_parent_inode_num
 .text.ext4fs_filename_unlink
                0x0000000087830138      0x120 fs/built-in.o
                0x0000000087830138                ext4fs_filename_unlink
 .text.ext4fs_reinit_global
                0x0000000087830258       0x78 fs/built-in.o
                0x0000000087830258                ext4fs_reinit_global
 .text.ext4fs_close
                0x00000000878302d0       0x38 fs/built-in.o
                0x00000000878302d0                ext4fs_close
 .text.ext4fs_iterate_dir
                0x0000000087830308      0x1f4 fs/built-in.o
                0x0000000087830308                ext4fs_iterate_dir
 .text.ext4fs_find_file1
                0x00000000878304fc      0x1cc fs/built-in.o
 .text.ext4fs_find_file
                0x00000000878306c8       0x44 fs/built-in.o
                0x00000000878306c8                ext4fs_find_file
 .text.ext4fs_open
                0x000000008783070c       0x64 fs/built-in.o
                0x000000008783070c                ext4fs_open
 .text.ext4fs_mount
                0x0000000087830770       0x90 fs/built-in.o
                0x0000000087830770                ext4fs_mount
 .text.ext4fs_set_blk_dev
                0x0000000087830800       0x54 fs/built-in.o
                0x0000000087830800                ext4fs_set_blk_dev
 .text.ext4fs_devread
                0x0000000087830854       0x28 fs/built-in.o
                0x0000000087830854                ext4fs_devread
 .text.ext4_read_superblock
                0x000000008783087c       0x28 fs/built-in.o
                0x000000008783087c                ext4_read_superblock
 .text.ext4fs_update
                0x00000000878308a4       0xbc fs/built-in.o
 .text.ext4fs_get_bgdtable
                0x0000000087830960       0x78 fs/built-in.o
                0x0000000087830960                ext4fs_get_bgdtable
 .text.ext4fs_deinit
                0x00000000878309d8       0xfc fs/built-in.o
                0x00000000878309d8                ext4fs_deinit
 .text.ext4fs_init
                0x0000000087830ad4      0x1d8 fs/built-in.o
                0x0000000087830ad4                ext4fs_init
 .text.ext4fs_write
                0x0000000087830cac      0xc3c fs/built-in.o
                0x0000000087830cac                ext4fs_write
 .text.ext4_write_file
                0x00000000878318e8       0x48 fs/built-in.o
                0x00000000878318e8                ext4_write_file
 .text.ext4fs_create_link
                0x0000000087831930       0x1a fs/built-in.o
                0x0000000087831930                ext4fs_create_link
 *fill*         0x000000008783194a        0x2 
 .text.ext4fs_dump_metadata
                0x000000008783194c       0x3c fs/built-in.o
                0x000000008783194c                ext4fs_dump_metadata
 .text.ext4fs_free_journal
                0x0000000087831988       0x80 fs/built-in.o
                0x0000000087831988                ext4fs_free_journal
 .text.ext4fs_log_gdt
                0x0000000087831a08       0x88 fs/built-in.o
                0x0000000087831a08                ext4fs_log_gdt
 .text.ext4fs_log_journal
                0x0000000087831a90       0x98 fs/built-in.o
                0x0000000087831a90                ext4fs_log_journal
 .text.ext4fs_put_metadata
                0x0000000087831b28       0x8c fs/built-in.o
                0x0000000087831b28                ext4fs_put_metadata
 .text.ext4fs_push_revoke_blk
                0x0000000087831bb4       0x90 fs/built-in.o
                0x0000000087831bb4                ext4fs_push_revoke_blk
 .text.ext4fs_free_revoke_blks
                0x0000000087831c44       0x3c fs/built-in.o
                0x0000000087831c44                ext4fs_free_revoke_blks
 .text.check_blknr_for_revoke
                0x0000000087831c80       0x3c fs/built-in.o
                0x0000000087831c80                check_blknr_for_revoke
 .text.recover_transaction
                0x0000000087831cbc       0xf0 fs/built-in.o
                0x0000000087831cbc                recover_transaction
 .text.print_jrnl_status
                0x0000000087831dac       0x14 fs/built-in.o
                0x0000000087831dac                print_jrnl_status
 .text.ext4fs_check_journal_state
                0x0000000087831dc0      0x1fc fs/built-in.o
                0x0000000087831dc0                ext4fs_check_journal_state
 .text.ext4fs_init_journal
                0x0000000087831fbc      0x198 fs/built-in.o
                0x0000000087831fbc                ext4fs_init_journal
 .text.ext4fs_update_journal
                0x0000000087832154      0x234 fs/built-in.o
                0x0000000087832154                ext4fs_update_journal
 .text.ext2fs_crc16
                0x0000000087832388       0x24 fs/built-in.o
                0x0000000087832388                ext2fs_crc16
 .text.downcase
                0x00000000878323ac       0x28 fs/built-in.o
 .text.mkcksum  0x00000000878323d4       0x36 fs/built-in.o
 .text.fat_itr_child
                0x000000008783240a       0x3e fs/built-in.o
 .text.disk_read
                0x0000000087832448       0x30 fs/built-in.o
 .text.get_cluster
                0x0000000087832478       0xe6 fs/built-in.o
 *fill*         0x000000008783255e        0x2 
 .text.read_bootsectandvi
                0x0000000087832560       0xc0 fs/built-in.o
 .text.fat_itr_root
                0x0000000087832620      0x130 fs/built-in.o
 .text.split_filename
                0x0000000087832750       0x88 fs/built-in.o
 .text.disk_write
                0x00000000878327d8       0x50 fs/built-in.o
 .text.flush_dirty_fat_buffer
                0x0000000087832828       0x58 fs/built-in.o
 .text.get_fatent
                0x0000000087832880      0x104 fs/built-in.o
 .text.next_dent
                0x0000000087832984       0xbc fs/built-in.o
 .text.set_fatent_value
                0x0000000087832a40      0x174 fs/built-in.o
 .text.determine_fatent
                0x0000000087832bb4       0x24 fs/built-in.o
 .text.clear_fatent
                0x0000000087832bd8       0x54 fs/built-in.o
 .text.set_name
                0x0000000087832c2c       0xcc fs/built-in.o
 .text.set_sectors.isra.0
                0x0000000087832cf8       0xec fs/built-in.o
 .text.normalize_longname
                0x0000000087832de4       0x58 fs/built-in.o
 .text.fat_itr_next
                0x0000000087832e3c      0x190 fs/built-in.o
 .text.fat_itr_resolve
                0x0000000087832fcc       0xf4 fs/built-in.o
 .text.flush_dir
                0x00000000878330c0       0x3a fs/built-in.o
 *fill*         0x00000000878330fa        0x2 
 .text.new_dir_table
                0x00000000878330fc       0x80 fs/built-in.o
 .text.fill_dir_slot
                0x000000008783317c      0x168 fs/built-in.o
 .text.find_directory_entry
                0x00000000878332e4       0x5e fs/built-in.o
 *fill*         0x0000000087833342        0x2 
 .text.set_contents
                0x0000000087833344      0x748 fs/built-in.o
 .text.fat_set_blk_dev
                0x0000000087833a8c       0x8c fs/built-in.o
                0x0000000087833a8c                fat_set_blk_dev
 .text.file_fat_detectfs
                0x0000000087833b18       0xd4 fs/built-in.o
                0x0000000087833b18                file_fat_detectfs
 .text.fat_exists
                0x0000000087833bec       0x44 fs/built-in.o
                0x0000000087833bec                fat_exists
 .text.fat_size
                0x0000000087833c30       0x7c fs/built-in.o
                0x0000000087833c30                fat_size
 .text.file_fat_read_at
                0x0000000087833cac      0x308 fs/built-in.o
                0x0000000087833cac                file_fat_read_at
 .text.fat_read_file
                0x0000000087833fb4       0x30 fs/built-in.o
                0x0000000087833fb4                fat_read_file
 .text.fat_opendir
                0x0000000087833fe4       0x60 fs/built-in.o
                0x0000000087833fe4                fat_opendir
 .text.fat_readdir
                0x0000000087834044       0x54 fs/built-in.o
                0x0000000087834044                fat_readdir
 .text.fat_closedir
                0x0000000087834098       0x16 fs/built-in.o
                0x0000000087834098                fat_closedir
 .text.fat_close
                0x00000000878340ae        0x2 fs/built-in.o
                0x00000000878340ae                fat_close
 .text.file_fat_write_at
                0x00000000878340b0      0x1d4 fs/built-in.o
                0x00000000878340b0                file_fat_write_at
 .text.file_fat_write
                0x0000000087834284       0x1a fs/built-in.o
                0x0000000087834284                file_fat_write
 *fill*         0x000000008783429e        0x2 
 .text.fat_unlink
                0x00000000878342a0      0x1d0 fs/built-in.o
                0x00000000878342a0                fat_unlink
 .text.fat_mkdir
                0x0000000087834470      0x27c fs/built-in.o
                0x0000000087834470                fat_mkdir
 .text.fs_devread
                0x00000000878346ec      0x168 fs/built-in.o
                0x00000000878346ec                fs_devread
 .text.efi_uc_destroy
                0x0000000087834854       0x10 lib/built-in.o
 .text.efi_uc_init
                0x0000000087834864       0x10 lib/built-in.o
 .text.check_node_type
                0x0000000087834874       0x54 lib/built-in.o
 .text.efi_uc_start
                0x00000000878348c8       0x8c lib/built-in.o
 .text.efi_uc_supported
                0x0000000087834954       0x84 lib/built-in.o
 .text.disconnect_child
                0x00000000878349d8       0x44 lib/built-in.o
 .text.efi_uc_stop
                0x0000000087834a1c       0xcc lib/built-in.o
 .text.efi_driver_init
                0x0000000087834ae8       0xb8 lib/built-in.o
                0x0000000087834ae8                efi_driver_init
 .text.efi_bl_write
                0x0000000087834ba0       0x3a lib/built-in.o
 .text.efi_bl_read
                0x0000000087834bda       0x3a lib/built-in.o
 .text.efi_bl_bind
                0x0000000087834c14       0xc4 lib/built-in.o
 .text.get_var.constprop.0
                0x0000000087834cd8       0x7c lib/built-in.o
 .text.efi_deserialize_load_option
                0x0000000087834d54       0x3e lib/built-in.o
                0x0000000087834d54                efi_deserialize_load_option
 *fill*         0x0000000087834d92        0x2 
 .text.try_load_entry
                0x0000000087834d94      0x128 lib/built-in.o
 .text.efi_bootmgr_load
                0x0000000087834ebc       0xf4 lib/built-in.o
                0x0000000087834ebc                efi_bootmgr_load
 .text.efi_is_event
                0x0000000087834fb0       0x24 lib/built-in.o
 .text.__efi_entry_check
                0x0000000087834fd4       0x28 lib/built-in.o
                0x0000000087834fd4                __efi_entry_check
 .text.__efi_exit_check
                0x0000000087834ffc       0x20 lib/built-in.o
                0x0000000087834ffc                __efi_exit_check
 .text.efi_process_event_queue
                0x000000008783501c       0x5c lib/built-in.o
 .text.efi_queue_event
                0x0000000087835078       0x58 lib/built-in.o
 .text.efi_set_mem
                0x00000000878350d0       0x1c lib/built-in.o
 .text.efi_copy_mem
                0x00000000878350ec       0x1a lib/built-in.o
 *fill*         0x0000000087835106        0x2 
 .text.efi_calculate_crc32
                0x0000000087835108       0x30 lib/built-in.o
 .text.efi_set_watchdog_timer
                0x0000000087835138       0x18 lib/built-in.o
 .text.efi_get_next_monotonic_count
                0x0000000087835150       0x34 lib/built-in.o
 .text.efi_register_protocol_notify
                0x0000000087835184       0x60 lib/built-in.o
 .text.efi_close_event
                0x00000000878351e4       0xb0 lib/built-in.o
 .text.efi_free_pool_ext
                0x0000000087835294       0x18 lib/built-in.o
 .text.efi_allocate_pool_ext
                0x00000000878352ac       0x1c lib/built-in.o
 .text.efi_get_memory_map_ext
                0x00000000878352c8       0x26 lib/built-in.o
 .text.efi_free_pages_ext
                0x00000000878352ee       0x1c lib/built-in.o
 .text.efi_allocate_pages_ext
                0x000000008783530a       0x20 lib/built-in.o
 *fill*         0x000000008783532a        0x2 
 .text.efi_raise_tpl
                0x000000008783532c       0x24 lib/built-in.o
 .text.efi_save_gd
                0x0000000087835350        0xc lib/built-in.o
                0x0000000087835350                efi_save_gd
 .text.efi_restore_gd
                0x000000008783535c       0x10 lib/built-in.o
                0x000000008783535c                efi_restore_gd
 .text.is_valid_tpl
                0x000000008783536c       0x24 lib/built-in.o
                0x000000008783536c                is_valid_tpl
 .text.efi_signal_event
                0x0000000087835390       0x68 lib/built-in.o
                0x0000000087835390                efi_signal_event
 .text.efi_exit_boot_services
                0x00000000878353f8       0xdc lib/built-in.o
 .text.efi_signal_event_ext
                0x00000000878354d4       0x2c lib/built-in.o
 .text.efi_add_handle
                0x0000000087835500       0x1c lib/built-in.o
                0x0000000087835500                efi_add_handle
 .text.efi_create_handle
                0x000000008783551c       0x20 lib/built-in.o
                0x000000008783551c                efi_create_handle
 .text.efi_create_event
                0x000000008783553c       0xbc lib/built-in.o
                0x000000008783553c                efi_create_event
 .text.efi_create_event_ex
                0x00000000878355f8       0x44 lib/built-in.o
                0x00000000878355f8                efi_create_event_ex
 .text.efi_create_event_ext
                0x000000008783563c       0x2a lib/built-in.o
 *fill*         0x0000000087835666        0x2 
 .text.efi_timer_check
                0x0000000087835668       0x70 lib/built-in.o
                0x0000000087835668                efi_timer_check
 .text.efi_stall
                0x00000000878356d8       0x3a lib/built-in.o
 *fill*         0x0000000087835712        0x2 
 .text.efi_check_event
                0x0000000087835714       0x58 lib/built-in.o
 .text.efi_wait_for_event
                0x000000008783576c       0x9c lib/built-in.o
 .text.efi_restore_tpl
                0x0000000087835808       0x28 lib/built-in.o
 .text.efi_set_timer
                0x0000000087835830       0x9c lib/built-in.o
                0x0000000087835830                efi_set_timer
 .text.efi_set_timer_ext
                0x00000000878358cc       0x20 lib/built-in.o
 .text.efi_search_obj
                0x00000000878358ec       0x1c lib/built-in.o
                0x00000000878358ec                efi_search_obj
 .text.efi_search_protocol
                0x0000000087835908       0x44 lib/built-in.o
                0x0000000087835908                efi_search_protocol
 .text.efi_remove_protocol
                0x000000008783594c       0x38 lib/built-in.o
                0x000000008783594c                efi_remove_protocol
 .text.efi_locate_protocol
                0x0000000087835984       0xa4 lib/built-in.o
 .text.efi_open_protocol_information
                0x0000000087835a28       0x8c lib/built-in.o
 .text.efi_locate_handle
                0x0000000087835ab4       0xe0 lib/built-in.o
 .text.efi_locate_handle_buffer
                0x0000000087835b94       0x80 lib/built-in.o
                0x0000000087835b94                efi_locate_handle_buffer
 .text.efi_locate_device_path
                0x0000000087835c14       0xc4 lib/built-in.o
 .text.efi_locate_handle_ext
                0x0000000087835cd8       0x26 lib/built-in.o
 *fill*         0x0000000087835cfe        0x2 
 .text.efi_remove_all_protocols
                0x0000000087835d00       0x38 lib/built-in.o
                0x0000000087835d00                efi_remove_all_protocols
 .text.efi_delete_handle
                0x0000000087835d38       0x24 lib/built-in.o
                0x0000000087835d38                efi_delete_handle
 .text.efi_close_protocol
                0x0000000087835d5c       0x84 lib/built-in.o
                0x0000000087835d5c                efi_close_protocol
 .text.efi_delete_image
                0x0000000087835de0       0x90 lib/built-in.o
 .text.efi_open_protocol
                0x0000000087835e70      0x1a4 lib/built-in.o
 .text.efi_disconnect_controller
                0x0000000087836014      0x170 lib/built-in.o
 .text.efi_disconnect_all_drivers
                0x0000000087836184       0xf4 lib/built-in.o
 .text.efi_start_image
                0x0000000087836278       0xc0 lib/built-in.o
                0x0000000087836278                efi_start_image
 .text.efi_handle_protocol
                0x0000000087836338       0x20 lib/built-in.o
                0x0000000087836338                efi_handle_protocol
 .text.efi_bind_controller
                0x0000000087836358       0x74 lib/built-in.o
 .text.efi_exit
                0x00000000878363cc       0xc8 lib/built-in.o
 .text.efi_uninstall_protocol
                0x0000000087836494       0x84 lib/built-in.o
 .text.efi_uninstall_protocol_interface
                0x0000000087836518       0x3a lib/built-in.o
 *fill*         0x0000000087836552        0x2 
 .text.efi_unload_image
                0x0000000087836554       0x80 lib/built-in.o
                0x0000000087836554                efi_unload_image
 .text.efi_protocols_per_handle
                0x00000000878365d4       0x78 lib/built-in.o
 .text.efi_connect_controller
                0x000000008783664c      0x124 lib/built-in.o
 .text.efi_add_protocol
                0x0000000087836770       0xc8 lib/built-in.o
                0x0000000087836770                efi_add_protocol
 .text.efi_install_protocol_interface
                0x0000000087836838       0x44 lib/built-in.o
 .text.efi_install_multiple_protocol_interfaces
                0x000000008783687c       0xc0 lib/built-in.o
                0x000000008783687c                efi_install_multiple_protocol_interfaces
 .text.efi_uninstall_multiple_protocol_interfaces
                0x000000008783693c       0x90 lib/built-in.o
 .text.efi_reinstall_protocol_interface
                0x00000000878369cc       0x46 lib/built-in.o
 *fill*         0x0000000087836a12        0x2 
 .text.efi_install_configuration_table
                0x0000000087836a14       0xfc lib/built-in.o
                0x0000000087836a14                efi_install_configuration_table
 .text.efi_install_configuration_table_ext
                0x0000000087836b10       0x18 lib/built-in.o
 .text.efi_setup_loaded_image
                0x0000000087836b28       0xbc lib/built-in.o
                0x0000000087836b28                efi_setup_loaded_image
 .text.efi_load_image
                0x0000000087836be4      0x1dc lib/built-in.o
                0x0000000087836be4                efi_load_image
 .text.efi_initialize_system_table
                0x0000000087836dc0       0x50 lib/built-in.o
                0x0000000087836dc0                efi_initialize_system_table
 .text.efi_cout_enable_cursor
                0x0000000087836e10       0x2c lib/built-in.o
 .text.efi_cout_set_cursor_position
                0x0000000087836e3c       0x64 lib/built-in.o
 .text.efi_cout_clear_screen
                0x0000000087836ea0       0x24 lib/built-in.o
 .text.efi_cout_set_attribute
                0x0000000087836ec4       0x4c lib/built-in.o
 .text.efi_cout_test_string
                0x0000000087836f10        0xe lib/built-in.o
 *fill*         0x0000000087836f1e        0x2 
 .text.efi_cout_reset
                0x0000000087836f20       0x34 lib/built-in.o
 .text.efi_cin_set_state
                0x0000000087836f54       0x14 lib/built-in.o
 .text.efi_cout_output_string
                0x0000000087836f68       0xe4 lib/built-in.o
 .text.efi_cin_unregister_key_notify
                0x000000008783704c       0x48 lib/built-in.o
 .text.efi_cin_empty_buffer
                0x0000000087837094       0x18 lib/built-in.o
 .text.efi_cin_reset
                0x00000000878370ac       0x20 lib/built-in.o
 .text.efi_cin_reset_ex
                0x00000000878370cc       0x20 lib/built-in.o
 .text.efi_cin_register_key_notify
                0x00000000878370ec       0x5c lib/built-in.o
 .text.term_get_char
                0x0000000087837148       0x2a lib/built-in.o
 *fill*         0x0000000087837172        0x2 
 .text.efi_cout_set_mode
                0x0000000087837174       0x4c lib/built-in.o
 .text.efi_cout_query_mode
                0x00000000878371c0       0x50 lib/built-in.o
 .text.set_shift_mask
                0x0000000087837210       0x44 lib/built-in.o
                0x0000000087837210                set_shift_mask
 .text.analyze_modifiers.constprop.0
                0x0000000087837254       0x58 lib/built-in.o
 .text.efi_cin_check
                0x00000000878372ac      0x280 lib/built-in.o
 .text.efi_cin_read_key_stroke
                0x000000008783752c       0x58 lib/built-in.o
 .text.efi_console_timer_notify
                0x0000000087837584       0x12 lib/built-in.o
 *fill*         0x0000000087837596        0x2 
 .text.efi_cin_read_key_stroke_ex
                0x0000000087837598       0x98 lib/built-in.o
 .text.efi_key_notify
                0x0000000087837630       0x12 lib/built-in.o
 *fill*         0x0000000087837642        0x2 
 .text.efi_console_register
                0x0000000087837644      0x204 lib/built-in.o
                0x0000000087837644                efi_console_register
 .text.dp_size  0x0000000087837848       0x50 lib/built-in.o
 .text.dp_alloc
                0x0000000087837898       0x24 lib/built-in.o
 .text.dp_part_size
                0x00000000878378bc       0x2e lib/built-in.o
 .text.dp_part_node
                0x00000000878378ea      0x130 lib/built-in.o
 *fill*         0x0000000087837a1a        0x2 
 .text.dp_fill  0x0000000087837a1c      0x130 lib/built-in.o
 .text.dp_part_fill
                0x0000000087837b4c       0x36 lib/built-in.o
 .text.efi_dp_next
                0x0000000087837b82       0x20 lib/built-in.o
                0x0000000087837b82                efi_dp_next
 .text.efi_dp_match
                0x0000000087837ba2       0x42 lib/built-in.o
                0x0000000087837ba2                efi_dp_match
 .text.efi_dp_last_node
                0x0000000087837be4       0x1c lib/built-in.o
                0x0000000087837be4                efi_dp_last_node
 .text.efi_dp_instance_size
                0x0000000087837c00       0x26 lib/built-in.o
                0x0000000087837c00                efi_dp_instance_size
 *fill*         0x0000000087837c26        0x2 
 .text.find_obj
                0x0000000087837c28       0x94 lib/built-in.o
 .text.efi_dp_find_obj
                0x0000000087837cbc       0x2c lib/built-in.o
                0x0000000087837cbc                efi_dp_find_obj
 .text.efi_dp_size
                0x0000000087837ce8       0x20 lib/built-in.o
                0x0000000087837ce8                efi_dp_size
 .text.efi_dp_dup
                0x0000000087837d08       0x26 lib/built-in.o
                0x0000000087837d08                efi_dp_dup
 *fill*         0x0000000087837d2e        0x2 
 .text.efi_dp_append
                0x0000000087837d30       0x54 lib/built-in.o
                0x0000000087837d30                efi_dp_append
 .text.efi_dp_append_node
                0x0000000087837d84       0x88 lib/built-in.o
                0x0000000087837d84                efi_dp_append_node
 .text.efi_dp_create_device_node
                0x0000000087837e0c       0x24 lib/built-in.o
                0x0000000087837e0c                efi_dp_create_device_node
 .text.efi_dp_append_instance
                0x0000000087837e30       0x64 lib/built-in.o
                0x0000000087837e30                efi_dp_append_instance
 .text.efi_dp_get_next_instance
                0x0000000087837e94       0x58 lib/built-in.o
                0x0000000087837e94                efi_dp_get_next_instance
 .text.efi_dp_is_multi_instance
                0x0000000087837eec       0x1e lib/built-in.o
                0x0000000087837eec                efi_dp_is_multi_instance
 *fill*         0x0000000087837f0a        0x2 
 .text.efi_dp_from_part
                0x0000000087837f0c       0x2c lib/built-in.o
                0x0000000087837f0c                efi_dp_from_part
 .text.efi_dp_part_node
                0x0000000087837f38       0x22 lib/built-in.o
                0x0000000087837f38                efi_dp_part_node
 *fill*         0x0000000087837f5a        0x2 
 .text.efi_dp_from_file
                0x0000000087837f5c       0xa0 lib/built-in.o
                0x0000000087837f5c                efi_dp_from_file
 .text.efi_dp_from_eth
                0x0000000087837ffc       0x34 lib/built-in.o
                0x0000000087837ffc                efi_dp_from_eth
 .text.efi_dp_from_mem
                0x0000000087838030       0xa0 lib/built-in.o
                0x0000000087838030                efi_dp_from_mem
 .text.efi_dp_split_file_path
                0x00000000878380d0       0x60 lib/built-in.o
                0x00000000878380d0                efi_dp_split_file_path
 .text.efi_dp_from_name
                0x0000000087838130       0xb0 lib/built-in.o
                0x0000000087838130                efi_dp_from_name
 .text.dp_unknown
                0x00000000878381e0       0x18 lib/built-in.o
 .text.efi_convert_single_device_node_to_text
                0x00000000878381f8      0x420 lib/built-in.o
 .text.efi_str_to_u16
                0x0000000087838618       0x34 lib/built-in.o
 .text.efi_convert_device_path_to_text
                0x000000008783864c       0x4c lib/built-in.o
 .text.efi_convert_device_node_to_text
                0x0000000087838698       0x2a lib/built-in.o
 .text.efi_dp_str
                0x00000000878386c2       0x1c lib/built-in.o
                0x00000000878386c2                efi_dp_str
 .text.create_device_node
                0x00000000878386de       0x20 lib/built-in.o
 .text.is_device_path_multi_instance
                0x00000000878386fe       0x18 lib/built-in.o
 .text.get_next_device_path_instance
                0x0000000087838716       0x1c lib/built-in.o
 .text.append_device_path_instance
                0x0000000087838732       0x1c lib/built-in.o
 .text.append_device_node
                0x000000008783874e       0x1c lib/built-in.o
 .text.append_device_path
                0x000000008783876a       0x1c lib/built-in.o
 .text.duplicate_device_path
                0x0000000087838786       0x18 lib/built-in.o
 .text.get_device_path_size
                0x000000008783879e       0x1a lib/built-in.o
 .text.efi_file_open_ex
                0x00000000878387b8        0x8 lib/built-in.o
 .text.efi_file_read_ex
                0x00000000878387c0        0x8 lib/built-in.o
 .text.efi_file_flush
                0x00000000878387c8        0xe lib/built-in.o
 *fill*         0x00000000878387d6        0x2 
 .text.efi_file_getpos
                0x00000000878387d8       0x28 lib/built-in.o
 .text.set_blk_dev.isra.0
                0x0000000087838800        0x8 lib/built-in.o
 .text.file_open
                0x0000000087838808      0x218 lib/built-in.o
 .text.efi_open_volume
                0x0000000087838a20       0x2c lib/built-in.o
 .text.efi_file_open
                0x0000000087838a4c       0x74 lib/built-in.o
 .text.efi_file_write
                0x0000000087838ac0       0x90 lib/built-in.o
 .text.efi_file_delete
                0x0000000087838b50       0x32 lib/built-in.o
 *fill*         0x0000000087838b82        0x2 
 .text.efi_get_file_size
                0x0000000087838b84       0x24 lib/built-in.o
 .text.efi_file_getinfo
                0x0000000087838ba8      0x160 lib/built-in.o
 .text.efi_file_setpos
                0x0000000087838d08       0x58 lib/built-in.o
 .text.efi_file_read
                0x0000000087838d60      0x170 lib/built-in.o
 .text.efi_file_write_ex
                0x0000000087838ed0        0x8 lib/built-in.o
 .text.efi_file_flush_ex
                0x0000000087838ed8        0x8 lib/built-in.o
 .text.efi_file_close
                0x0000000087838ee0       0x1c lib/built-in.o
 .text.efi_file_setinfo
                0x0000000087838efc       0xe8 lib/built-in.o
 .text.efi_file_from_path
                0x0000000087838fe4       0xc8 lib/built-in.o
                0x0000000087838fe4                efi_file_from_path
 .text.efi_simple_file_system
                0x00000000878390ac       0x30 lib/built-in.o
                0x00000000878390ac                efi_simple_file_system
 .text.efi_hii_packagelist_exists
                0x00000000878390dc       0x1c lib/built-in.o
 .text.efi_hii_package_len
                0x00000000878390f8       0x10 lib/built-in.o
 .text.get_package_list_handle
                0x0000000087839108       0x44 lib/built-in.o
 .text.unregister_package_notify
                0x000000008783914c       0x14 lib/built-in.o
 .text.register_package_notify
                0x0000000087839160       0x34 lib/built-in.o
 .text.export_package_lists
                0x0000000087839194       0x28 lib/built-in.o
 .text.list_package_lists
                0x00000000878391bc       0x98 lib/built-in.o
 .text.find_keyboard_layouts
                0x0000000087839254       0x7c lib/built-in.o
 .text.get_keyboard_layout
                0x00000000878392d0       0x90 lib/built-in.o
 .text.remove_guid_package
                0x0000000087839360       0x24 lib/built-in.o
 .text.free_keyboard_layouts
                0x0000000087839384       0x30 lib/built-in.o
 .text.remove_keyboard_package
                0x00000000878393b4       0x2c lib/built-in.o
 .text.add_packages
                0x00000000878393e0      0x258 lib/built-in.o
 .text.language_match
                0x0000000087839638       0x2e lib/built-in.o
 *fill*         0x0000000087839666        0x2 
 .text.get_secondary_languages
                0x0000000087839668       0x5c lib/built-in.o
 .text.get_string
                0x00000000878396c4       0x8c lib/built-in.o
 .text.get_languages
                0x0000000087839750       0xa4 lib/built-in.o
 .text.set_string
                0x00000000878397f4       0xc0 lib/built-in.o
 .text.new_string
                0x00000000878398b4       0xb8 lib/built-in.o
 .text.remove_strings_package
                0x000000008783996c       0x4a lib/built-in.o
 .text.free_packagelist
                0x00000000878399b6       0x2c lib/built-in.o
 *fill*         0x00000000878399e2        0x2 
 .text.remove_package_list
                0x00000000878399e4       0x2c lib/built-in.o
 .text.new_package_list
                0x0000000087839a10       0x7c lib/built-in.o
 .text.set_keyboard_layout
                0x0000000087839a8c       0x14 lib/built-in.o
 .text.update_package_list
                0x0000000087839aa0       0xc4 lib/built-in.o
 .text.get_alt_config
                0x0000000087839b64       0x14 lib/built-in.o
 .text.config_to_block
                0x0000000087839b78       0x14 lib/built-in.o
 .text.block_to_config
                0x0000000087839b8c       0x14 lib/built-in.o
 .text.route_config
                0x0000000087839ba0       0x14 lib/built-in.o
 .text.export_config
                0x0000000087839bb4       0x14 lib/built-in.o
 .text.extract_config
                0x0000000087839bc8       0x14 lib/built-in.o
 .text.efi_set_code_and_data_type
                0x0000000087839bdc       0x44 lib/built-in.o
 .text.efi_print_image_infos
                0x0000000087839c20       0x94 lib/built-in.o
                0x0000000087839c20                efi_print_image_infos
 .text.efi_load_pe
                0x0000000087839cb4      0x250 lib/built-in.o
                0x0000000087839cb4                efi_load_pe
 .text.efi_mem_cmp
                0x0000000087839f04       0x20 lib/built-in.o
 .text.efi_check_allocated
                0x0000000087839f24       0x6c lib/built-in.o
 .text.efi_find_free_memory
                0x0000000087839f90       0xa4 lib/built-in.o
 .text.efi_add_memory_map
                0x000000008783a034      0x310 lib/built-in.o
                0x000000008783a034                efi_add_memory_map
 .text.efi_allocate_pages
                0x000000008783a344       0x94 lib/built-in.o
                0x000000008783a344                efi_allocate_pages
 .text.efi_alloc
                0x000000008783a3d8       0x3a lib/built-in.o
                0x000000008783a3d8                efi_alloc
 *fill*         0x000000008783a412        0x2 
 .text.efi_free_pages
                0x000000008783a414       0x64 lib/built-in.o
                0x000000008783a414                efi_free_pages
 .text.efi_allocate_pool
                0x000000008783a478       0x64 lib/built-in.o
                0x000000008783a478                efi_allocate_pool
 *fill*         0x000000008783a4dc        0x4 
 .text.efi_free_pool
                0x000000008783a4e0       0x9c lib/built-in.o
                0x000000008783a4e0                efi_free_pool
 .text.efi_get_memory_map
                0x000000008783a57c       0x90 lib/built-in.o
                0x000000008783a57c                efi_get_memory_map
 .text.efi_add_conventional_memory_map
                0x000000008783a60c       0xb0 lib/built-in.o
                0x000000008783a60c                efi_add_conventional_memory_map
 .text.efi_add_known_memory
                0x000000008783a6bc       0x42 lib/built-in.o
                0x000000008783a6bc                efi_add_known_memory
 *fill*         0x000000008783a6fe        0x2 
 .text.efi_memory_init
                0x000000008783a700       0x6c lib/built-in.o
                0x000000008783a700                efi_memory_init
 .text.efi_root_node_register
                0x000000008783a76c       0xcc lib/built-in.o
                0x000000008783a76c                efi_root_node_register
 .text.efi_reset_system_boottime
                0x000000008783a838       0x48 lib/built-in.o
 .text.efi_set_time_boottime
                0x000000008783a880       0x14 lib/built-in.o
 .text.efi_get_time_boottime
                0x000000008783a894       0x14 lib/built-in.o
 .text.efi_init_runtime_supported
                0x000000008783a8a8       0x34 lib/built-in.o
                0x000000008783a8a8                efi_init_runtime_supported
 .text.efi_reset_system_init
                0x000000008783a8dc        0x4 lib/built-in.o
                0x000000008783a8dc                efi_reset_system_init
 .text.efi_set_virtual_address_map
                0x000000008783a8e0      0x188 lib/built-in.o
 .text.efi_init_obj_list
                0x000000008783aa68      0x144 lib/built-in.o
                0x000000008783aa68                efi_init_obj_list
 .text.efi_str_to_fat
                0x000000008783abac       0x78 lib/built-in.o
 .text.efi_fat_to_str
                0x000000008783ac24       0x3c lib/built-in.o
 .text.efi_str_upr
                0x000000008783ac60       0x20 lib/built-in.o
 .text.efi_stri_coll
                0x000000008783ac80       0x3e lib/built-in.o
 .text.efi_str_lwr
                0x000000008783acbe       0x20 lib/built-in.o
 .text.next_lower
                0x000000008783acde        0xe lib/built-in.o
 .text.metai_match
                0x000000008783acec       0xb0 lib/built-in.o
 .text.efi_metai_match
                0x000000008783ad9c       0x1c lib/built-in.o
 .text.efi_to_native
                0x000000008783adb8       0x58 lib/built-in.o
 .text.prefix   0x000000008783ae10       0x22 lib/built-in.o
 *fill*         0x000000008783ae32        0x2 
 .text.parse_attr.part.0
                0x000000008783ae34       0x80 lib/built-in.o
 .text.efi_get_variable
                0x000000008783aeb4      0x170 lib/built-in.o
                0x000000008783aeb4                efi_get_variable
 .text.efi_get_next_variable_name
                0x000000008783b024      0x1a4 lib/built-in.o
                0x000000008783b024                efi_get_next_variable_name
 .text.efi_set_variable
                0x000000008783b1c8      0x204 lib/built-in.o
                0x000000008783b1c8                efi_set_variable
 .text.efi_variables_boot_exit_notify
                0x000000008783b3cc       0x24 lib/built-in.o
                0x000000008783b3cc                efi_variables_boot_exit_notify
 .text.efi_init_variables
                0x000000008783b3f0        0x4 lib/built-in.o
                0x000000008783b3f0                efi_init_variables
 .text.efi_watchdog_timer_notify
                0x000000008783b3f4       0x34 lib/built-in.o
 .text.efi_set_watchdog
                0x000000008783b428       0x24 lib/built-in.o
                0x000000008783b428                efi_set_watchdog
 *fill*         0x000000008783b44c        0x4 
 .text.efi_watchdog_register
                0x000000008783b450       0x5c lib/built-in.o
                0x000000008783b450                efi_watchdog_register
 .text.gop_query_mode
                0x000000008783b4ac       0x44 lib/built-in.o
 .text.gop_blt_video_fill.isra.0
                0x000000008783b4f0       0xa0 lib/built-in.o
 .text.gop_blt  0x000000008783b590      0x32c lib/built-in.o
                0x000000008783b590                gop_blt
 .text.gop_set_mode
                0x000000008783b8bc       0x58 lib/built-in.o
 .text.efi_gop_register
                0x000000008783b914       0xe8 lib/built-in.o
                0x000000008783b914                efi_gop_register
 .text.efi_disk_flush_blocks
                0x000000008783b9fc        0xe lib/built-in.o
 .text.efi_disk_reset
                0x000000008783ba0a        0xe lib/built-in.o
 .text.efi_disk_add_dev.isra.0.part.0
                0x000000008783ba18      0x154 lib/built-in.o
 .text.efi_disk_read_blocks
                0x000000008783bb6c       0xc0 lib/built-in.o
 .text.efi_disk_write_blocks
                0x000000008783bc2c       0xcc lib/built-in.o
 .text.efi_fs_from_path
                0x000000008783bcf8       0x48 lib/built-in.o
                0x000000008783bcf8                efi_fs_from_path
 .text.efi_disk_create_partitions
                0x000000008783bd40       0x94 lib/built-in.o
                0x000000008783bd40                efi_disk_create_partitions
 .text.efi_disk_register
                0x000000008783bdd4       0xb0 lib/built-in.o
                0x000000008783bdd4                efi_disk_register
 .text.efi_net_push
                0x000000008783be84        0xc lib/built-in.o
 .text.efi_pxe_base_code_start
                0x000000008783be90        0x8 lib/built-in.o
 .text.efi_pxe_base_code_stop
                0x000000008783be98        0x8 lib/built-in.o
 .text.efi_pxe_base_code_discover
                0x000000008783bea0        0x8 lib/built-in.o
 .text.efi_pxe_base_code_mtftp
                0x000000008783bea8        0x8 lib/built-in.o
 .text.efi_pxe_base_code_udp_write
                0x000000008783beb0        0x8 lib/built-in.o
 .text.efi_pxe_base_code_udp_read
                0x000000008783beb8        0x8 lib/built-in.o
 .text.efi_pxe_base_code_set_ip_filter
                0x000000008783bec0        0x8 lib/built-in.o
 .text.efi_pxe_base_code_arp
                0x000000008783bec8        0x8 lib/built-in.o
 .text.efi_pxe_base_code_set_parameters
                0x000000008783bed0        0x8 lib/built-in.o
 .text.efi_pxe_base_code_set_packets
                0x000000008783bed8        0x8 lib/built-in.o
 .text.efi_network_timer_notify
                0x000000008783bee0       0x64 lib/built-in.o
 .text.efi_net_nvdata
                0x000000008783bf44       0x14 lib/built-in.o
 .text.efi_net_statistics
                0x000000008783bf58       0x14 lib/built-in.o
 .text.efi_net_station_address
                0x000000008783bf6c       0x14 lib/built-in.o
 .text.efi_net_receive_filters
                0x000000008783bf80       0x14 lib/built-in.o
 .text.efi_net_start
                0x000000008783bf94       0x3c lib/built-in.o
 .text.efi_net_get_status
                0x000000008783bfd0       0x58 lib/built-in.o
 .text.efi_net_receive
                0x000000008783c028       0xfc lib/built-in.o
 .text.efi_net_transmit
                0x000000008783c124       0xd8 lib/built-in.o
 .text.efi_net_mcastiptomac
                0x000000008783c1fc       0x70 lib/built-in.o
 .text.efi_net_shutdown
                0x000000008783c26c       0x50 lib/built-in.o
 .text.efi_net_stop
                0x000000008783c2bc       0x34 lib/built-in.o
 .text.efi_net_initialize
                0x000000008783c2f0       0x68 lib/built-in.o
 .text.efi_net_reset
                0x000000008783c358       0x4c lib/built-in.o
 .text.efi_pxe_base_code_set_station_ip
                0x000000008783c3a4        0x8 lib/built-in.o
 .text.efi_pxe_base_code_dhcp
                0x000000008783c3ac        0x8 lib/built-in.o
 .text.efi_net_set_dhcp_ack
                0x000000008783c3b4       0x34 lib/built-in.o
                0x000000008783c3b4                efi_net_set_dhcp_ack
 .text.efi_net_register
                0x000000008783c3e8      0x258 lib/built-in.o
                0x000000008783c3e8                efi_net_register
 .text.efi_smbios_register
                0x000000008783c640       0x44 lib/built-in.o
                0x000000008783c640                efi_smbios_register
 .text.get_code
                0x000000008783c684       0x7a lib/built-in.o
 .text.read_string
                0x000000008783c6fe       0x18 lib/built-in.o
 .text.read_console
                0x000000008783c716        0xe lib/built-in.o
 .text.console_read_unicode
                0x000000008783c724       0x20 lib/built-in.o
                0x000000008783c724                console_read_unicode
 .text.utf8_get
                0x000000008783c744        0xc lib/built-in.o
                0x000000008783c744                utf8_get
 .text.utf8_put
                0x000000008783c750       0x90 lib/built-in.o
                0x000000008783c750                utf8_put
 .text.utf8_utf16_strnlen
                0x000000008783c7e0       0x32 lib/built-in.o
                0x000000008783c7e0                utf8_utf16_strnlen
 .text.utf16_get
                0x000000008783c812       0x5a lib/built-in.o
                0x000000008783c812                utf16_get
 .text.utf16_put
                0x000000008783c86c       0x4c lib/built-in.o
                0x000000008783c86c                utf16_put
 .text.utf8_utf16_strncpy
                0x000000008783c8b8       0x3e lib/built-in.o
                0x000000008783c8b8                utf8_utf16_strncpy
 .text.utf16_strnlen
                0x000000008783c8f6       0x26 lib/built-in.o
                0x000000008783c8f6                utf16_strnlen
 .text.utf16_utf8_strnlen
                0x000000008783c91c       0x42 lib/built-in.o
                0x000000008783c91c                utf16_utf8_strnlen
 .text.utf16_utf8_strncpy
                0x000000008783c95e       0x3e lib/built-in.o
                0x000000008783c95e                utf16_utf8_strncpy
 .text.utf_to_lower
                0x000000008783c99c       0x2c lib/built-in.o
                0x000000008783c99c                utf_to_lower
 .text.utf_to_upper
                0x000000008783c9c8       0x2c lib/built-in.o
                0x000000008783c9c8                utf_to_upper
 .text.u16_strlen
                0x000000008783c9f4       0x14 lib/built-in.o
                0x000000008783c9f4                u16_strlen
 .text.u16_strdup
                0x000000008783ca08       0x28 lib/built-in.o
                0x000000008783ca08                u16_strdup
 .text.utf16_to_utf8
                0x000000008783ca30       0xc8 lib/built-in.o
                0x000000008783ca30                utf16_to_utf8
 .text.crc16_ccitt
                0x000000008783caf8       0x24 lib/built-in.o
                0x000000008783caf8                crc16_ccitt
 .text.smbios_write_type127
                0x000000008783cb1c       0x2c lib/built-in.o
 .text.smbios_write_type32
                0x000000008783cb48       0x2c lib/built-in.o
 .text.smbios_string_table_len
                0x000000008783cb74       0x1c lib/built-in.o
 .text.smbios_add_string
                0x000000008783cb90       0x3a lib/built-in.o
 *fill*         0x000000008783cbca        0x2 
 .text.smbios_write_type3
                0x000000008783cbcc       0x50 lib/built-in.o
 .text.smbios_write_type2
                0x000000008783cc1c       0x5c lib/built-in.o
 .text.smbios_write_type0
                0x000000008783cc78       0x90 lib/built-in.o
 .text.smbios_write_type1
                0x000000008783cd08       0x78 lib/built-in.o
 .text.smbios_write_type4
                0x000000008783cd80       0x80 lib/built-in.o
 .text.write_smbios_table
                0x000000008783ce00       0xac lib/built-in.o
                0x000000008783ce00                write_smbios_table
 .text.default_log
                0x000000008783ceac        0x2 lib/built-in.o
 *fill*         0x000000008783ceae        0x2 
 .text.write_sparse_image
                0x000000008783ceb0      0x2fc lib/built-in.o
                0x000000008783ceb0                write_sparse_image
 .text.string_to_ip
                0x000000008783d1ac       0x48 lib/built-in.o
                0x000000008783d1ac                string_to_ip
 .text.string_to_enetaddr
                0x000000008783d1f4       0x32 lib/built-in.o
                0x000000008783d1f4                string_to_enetaddr
 .text.compute_ip_checksum
                0x000000008783d226       0x48 lib/built-in.o
                0x000000008783d226                compute_ip_checksum
 .text.ip_checksum_ok
                0x000000008783d26e       0x14 lib/built-in.o
                0x000000008783d26e                ip_checksum_ok
 .text.merge    0x000000008783d282       0x36 lib/built-in.o
 .text.list_sort
                0x000000008783d2b8       0xec lib/built-in.o
                0x000000008783d2b8                list_sort
 .text.zcalloc  0x000000008783d3a4        0x8 lib/built-in.o
                0x000000008783d3a4                zcalloc
 .text.zcfree   0x000000008783d3ac        0x6 lib/built-in.o
                0x000000008783d3ac                zcfree
 *fill*         0x000000008783d3b2        0x2 
 .text.inflate_fast
                0x000000008783d3b4      0x3b4 lib/built-in.o
                0x000000008783d3b4                inflate_fast
 .text.inflate_table
                0x000000008783d768      0x314 lib/built-in.o
                0x000000008783d768                inflate_table
 .text.inflateReset
                0x000000008783da7c       0x40 lib/built-in.o
                0x000000008783da7c                inflateReset
 .text.inflateInit2_
                0x000000008783dabc       0x98 lib/built-in.o
                0x000000008783dabc                inflateInit2_
 .text.inflateEnd
                0x000000008783db54       0x2e lib/built-in.o
                0x000000008783db54                inflateEnd
 .text.adler32  0x000000008783db82      0x234 lib/built-in.o
                0x000000008783db82                adler32
 *fill*         0x000000008783ddb6        0x2 
 .text.inflate  0x000000008783ddb8      0xd2c lib/built-in.o
                0x000000008783ddb8                inflate
 .text.gzalloc  0x000000008783eae4        0xe lib/built-in.o
                0x000000008783eae4                gzalloc
 .text.gzfree   0x000000008783eaf2        0x6 lib/built-in.o
                0x000000008783eaf2                gzfree
 .text.gzip_parse_header
                0x000000008783eaf8       0x70 lib/built-in.o
                0x000000008783eaf8                gzip_parse_header
 .text.zunzip   0x000000008783eb68       0xa8 lib/built-in.o
                0x000000008783eb68                zunzip
 .text.gunzip   0x000000008783ec10       0x2c lib/built-in.o
                0x000000008783ec10                gunzip
 .text.fdt_ro_probe_
                0x000000008783ec3c       0x54 lib/built-in.o
                0x000000008783ec3c                fdt_ro_probe_
 .text.fdt_header_size_
                0x000000008783ec90       0x1a lib/built-in.o
                0x000000008783ec90                fdt_header_size_
 .text.fdt_header_size
                0x000000008783ecaa        0x8 lib/built-in.o
                0x000000008783ecaa                fdt_header_size
 *fill*         0x000000008783ecb2        0x2 
 .text.fdt_check_header
                0x000000008783ecb4       0x98 lib/built-in.o
                0x000000008783ecb4                fdt_check_header
 .text.fdt_offset_ptr
                0x000000008783ed4c       0x32 lib/built-in.o
                0x000000008783ed4c                fdt_offset_ptr
 *fill*         0x000000008783ed7e        0x2 
 .text.fdt_next_tag
                0x000000008783ed80       0xc0 lib/built-in.o
                0x000000008783ed80                fdt_next_tag
 .text.fdt_check_node_offset_
                0x000000008783ee40       0x24 lib/built-in.o
                0x000000008783ee40                fdt_check_node_offset_
 .text.fdt_check_prop_offset_
                0x000000008783ee64       0x24 lib/built-in.o
                0x000000008783ee64                fdt_check_prop_offset_
 .text.fdt_next_node
                0x000000008783ee88       0x6e lib/built-in.o
                0x000000008783ee88                fdt_next_node
 .text.fdt_first_subnode
                0x000000008783eef6       0x26 lib/built-in.o
                0x000000008783eef6                fdt_first_subnode
 .text.fdt_next_subnode
                0x000000008783ef1c       0x2a lib/built-in.o
                0x000000008783ef1c                fdt_next_subnode
 .text.fdt_find_string_
                0x000000008783ef46       0x30 lib/built-in.o
                0x000000008783ef46                fdt_find_string_
 .text.fdt_move
                0x000000008783ef76       0x2a lib/built-in.o
                0x000000008783ef76                fdt_move
 .text.fdt_node_end_offset_
                0x000000008783efa0       0x24 lib/built-in.o
                0x000000008783efa0                fdt_node_end_offset_
 .text.fdt_strerror
                0x000000008783efc4       0x3c lib/built-in.o
                0x000000008783efc4                fdt_strerror
 .text.fdt_blocks_misordered_
                0x000000008783f000       0x36 lib/built-in.o
 .text.fdt_rw_probe_
                0x000000008783f036       0x3a lib/built-in.o
 .text.fdt_splice_
                0x000000008783f070       0x4a lib/built-in.o
 .text.fdt_splice_mem_rsv_
                0x000000008783f0ba       0x2e lib/built-in.o
 .text.fdt_splice_struct_
                0x000000008783f0e8       0x26 lib/built-in.o
 .text.fdt_packblocks_
                0x000000008783f10e       0x5c lib/built-in.o
 .text.fdt_add_property_
                0x000000008783f16a       0xde lib/built-in.o
 .text.fdt_add_mem_rsv
                0x000000008783f248       0x56 lib/built-in.o
                0x000000008783f248                fdt_add_mem_rsv
 .text.fdt_del_mem_rsv
                0x000000008783f29e       0x3c lib/built-in.o
                0x000000008783f29e                fdt_del_mem_rsv
 .text.fdt_setprop_placeholder
                0x000000008783f2da       0x6e lib/built-in.o
                0x000000008783f2da                fdt_setprop_placeholder
 .text.fdt_setprop
                0x000000008783f348       0x26 lib/built-in.o
                0x000000008783f348                fdt_setprop
 .text.fdt_delprop
                0x000000008783f36e       0x3e lib/built-in.o
                0x000000008783f36e                fdt_delprop
 .text.fdt_add_subnode_namelen
                0x000000008783f3ac       0x98 lib/built-in.o
                0x000000008783f3ac                fdt_add_subnode_namelen
 .text.fdt_add_subnode
                0x000000008783f444       0x1e lib/built-in.o
                0x000000008783f444                fdt_add_subnode
 .text.fdt_del_node
                0x000000008783f462       0x30 lib/built-in.o
                0x000000008783f462                fdt_del_node
 *fill*         0x000000008783f492        0x2 
 .text.fdt_open_into
                0x000000008783f494       0xe4 lib/built-in.o
                0x000000008783f494                fdt_open_into
 .text.fdt_cells
                0x000000008783f578       0x2a lib/built-in.o
 *fill*         0x000000008783f5a2        0x2 
 .text.fdt_address_cells
                0x000000008783f5a4       0x1c lib/built-in.o
                0x000000008783f5a4                fdt_address_cells
 .text.fdt_size_cells
                0x000000008783f5c0       0x18 lib/built-in.o
                0x000000008783f5c0                fdt_size_cells
 .text.fdt_mem_rsv
                0x000000008783f5d8       0x1c lib/built-in.o
 .text.nextprop_
                0x000000008783f5f4       0x32 lib/built-in.o
 .text.fdt_get_property_by_offset_
                0x000000008783f626       0x30 lib/built-in.o
 *fill*         0x000000008783f656        0x2 
 .text.fdt_get_string
                0x000000008783f658       0x9c lib/built-in.o
                0x000000008783f658                fdt_get_string
 .text.fdt_string
                0x000000008783f6f4        0x6 lib/built-in.o
                0x000000008783f6f4                fdt_string
 .text.fdt_get_mem_rsv
                0x000000008783f6fa       0x3e lib/built-in.o
                0x000000008783f6fa                fdt_get_mem_rsv
 .text.fdt_num_mem_rsv
                0x000000008783f738       0x2a lib/built-in.o
                0x000000008783f738                fdt_num_mem_rsv
 .text.fdt_get_name
                0x000000008783f762       0x5a lib/built-in.o
                0x000000008783f762                fdt_get_name
 .text.fdt_subnode_offset_namelen
                0x000000008783f7bc       0x82 lib/built-in.o
                0x000000008783f7bc                fdt_subnode_offset_namelen
 .text.fdt_subnode_offset
                0x000000008783f83e       0x1e lib/built-in.o
                0x000000008783f83e                fdt_subnode_offset
 .text.fdt_first_property_offset
                0x000000008783f85c       0x18 lib/built-in.o
                0x000000008783f85c                fdt_first_property_offset
 .text.fdt_next_property_offset
                0x000000008783f874       0x18 lib/built-in.o
                0x000000008783f874                fdt_next_property_offset
 .text.fdt_get_property_namelen_
                0x000000008783f88c       0x76 lib/built-in.o
 .text.fdt_get_property_namelen
                0x000000008783f902       0x2a lib/built-in.o
                0x000000008783f902                fdt_get_property_namelen
 .text.fdt_get_property
                0x000000008783f92c       0x22 lib/built-in.o
                0x000000008783f92c                fdt_get_property
 .text.fdt_getprop_namelen
                0x000000008783f94e       0x36 lib/built-in.o
                0x000000008783f94e                fdt_getprop_namelen
 .text.fdt_getprop_by_offset
                0x000000008783f984       0x5c lib/built-in.o
                0x000000008783f984                fdt_getprop_by_offset
 .text.fdt_getprop
                0x000000008783f9e0       0x22 lib/built-in.o
                0x000000008783f9e0                fdt_getprop
 *fill*         0x000000008783fa02        0x2 
 .text.fdt_get_phandle
                0x000000008783fa04       0x40 lib/built-in.o
                0x000000008783fa04                fdt_get_phandle
 .text.fdt_get_alias_namelen
                0x000000008783fa44       0x2c lib/built-in.o
                0x000000008783fa44                fdt_get_alias_namelen
 .text.fdt_path_offset_namelen
                0x000000008783fa70       0x94 lib/built-in.o
                0x000000008783fa70                fdt_path_offset_namelen
 .text.fdt_path_offset
                0x000000008783fb04       0x1a lib/built-in.o
                0x000000008783fb04                fdt_path_offset
 .text.fdt_supernode_atdepth_offset
                0x000000008783fb1e       0x6c lib/built-in.o
                0x000000008783fb1e                fdt_supernode_atdepth_offset
 .text.fdt_node_depth
                0x000000008783fb8a       0x1e lib/built-in.o
                0x000000008783fb8a                fdt_node_depth
 .text.fdt_parent_offset
                0x000000008783fba8       0x20 lib/built-in.o
                0x000000008783fba8                fdt_parent_offset
 .text.fdt_node_offset_by_phandle
                0x000000008783fbc8       0x42 lib/built-in.o
                0x000000008783fbc8                fdt_node_offset_by_phandle
 .text.fdt_stringlist_search
                0x000000008783fc0a       0x66 lib/built-in.o
                0x000000008783fc0a                fdt_stringlist_search
 .text.fdtdec_get_int
                0x000000008783fc70       0x1c lib/built-in.o
                0x000000008783fc70                fdtdec_get_int
 .text.get_prop_check_min_len
                0x000000008783fc8c       0x26 lib/built-in.o
 *fill*         0x000000008783fcb2        0x2 
 .text.fdtdec_get_is_enabled
                0x000000008783fcb4       0x28 lib/built-in.o
                0x000000008783fcb4                fdtdec_get_is_enabled
 .text.fdtdec_get_alias_seq
                0x000000008783fcdc       0xac lib/built-in.o
                0x000000008783fcdc                fdtdec_get_alias_seq
 .text.fdtdec_get_alias_highest_id
                0x000000008783fd88       0x78 lib/built-in.o
                0x000000008783fd88                fdtdec_get_alias_highest_id
 .text.fdtdec_prepare_fdt
                0x000000008783fe00       0x30 lib/built-in.o
                0x000000008783fe00                fdtdec_prepare_fdt
 .text.fdtdec_lookup_phandle
                0x000000008783fe30       0x20 lib/built-in.o
                0x000000008783fe30                fdtdec_lookup_phandle
 .text.fdtdec_get_int_array
                0x000000008783fe50       0x36 lib/built-in.o
                0x000000008783fe50                fdtdec_get_int_array
 .text.fdtdec_get_int_array_count
                0x000000008783fe86       0x38 lib/built-in.o
                0x000000008783fe86                fdtdec_get_int_array_count
 .text.fdtdec_get_bool
                0x000000008783febe       0x14 lib/built-in.o
                0x000000008783febe                fdtdec_get_bool
 .text.fdtdec_parse_phandle_with_args
                0x000000008783fed2       0xc8 lib/built-in.o
                0x000000008783fed2                fdtdec_parse_phandle_with_args
 .text.fdtdec_get_byte_array
                0x000000008783ff9a       0x26 lib/built-in.o
                0x000000008783ff9a                fdtdec_get_byte_array
 .text.fdtdec_locate_byte_array
                0x000000008783ffc0       0x16 lib/built-in.o
                0x000000008783ffc0                fdtdec_locate_byte_array
 *fill*         0x000000008783ffd6        0x2 
 .text.fdtdec_get_config_int
                0x000000008783ffd8       0x28 lib/built-in.o
                0x000000008783ffd8                fdtdec_get_config_int
 .text.fdtdec_get_config_string
                0x0000000087840000       0x2c lib/built-in.o
                0x0000000087840000                fdtdec_get_config_string
 .text.fdtdec_get_number
                0x000000008784002c       0x1a lib/built-in.o
                0x000000008784002c                fdtdec_get_number
 .text.fdtdec_get_addr_size_fixed
                0x0000000087840046       0x6c lib/built-in.o
                0x0000000087840046                fdtdec_get_addr_size_fixed
 .text.fdtdec_get_addr_size_auto_parent
                0x00000000878400b2       0x46 lib/built-in.o
                0x00000000878400b2                fdtdec_get_addr_size_auto_parent
 .text.fdtdec_get_addr_size_auto_noparent
                0x00000000878400f8       0x34 lib/built-in.o
                0x00000000878400f8                fdtdec_get_addr_size_auto_noparent
 .text.fdtdec_get_addr_size
                0x000000008784012c       0x1e lib/built-in.o
                0x000000008784012c                fdtdec_get_addr_size
 .text.fdtdec_get_addr
                0x000000008784014a        0x6 lib/built-in.o
                0x000000008784014a                fdtdec_get_addr
 .text.fdt_get_resource
                0x0000000087840150       0x94 lib/built-in.o
                0x0000000087840150                fdt_get_resource
 .text.fdt_get_named_resource
                0x00000000878401e4       0x2c lib/built-in.o
                0x00000000878401e4                fdt_get_named_resource
 .text.board_fdt_blob_setup
                0x0000000087840210        0x8 lib/built-in.o
                0x0000000087840210                board_fdt_blob_setup
 .text.fdtdec_setup
                0x0000000087840218       0x28 lib/built-in.o
                0x0000000087840218                fdtdec_setup
 .text.qsort    0x0000000087840240       0x98 lib/built-in.o
                0x0000000087840240                qsort
 .text.strcmp_compar
                0x00000000878402d8        0x8 lib/built-in.o
                0x00000000878402d8                strcmp_compar
 .text.cmpkey   0x00000000878402e0        0xc lib/built-in.o
 .text._hdelete.isra.0
                0x00000000878402ec       0x30 lib/built-in.o
 .text.drop_var_from_set.part.0
                0x000000008784031c       0x30 lib/built-in.o
 .text.match_string
                0x000000008784034c       0x5c lib/built-in.o
 .text.match_entry
                0x00000000878403a8       0x7c lib/built-in.o
 .text.hcreate_r
                0x0000000087840424       0x58 lib/built-in.o
                0x0000000087840424                hcreate_r
 .text.hdestroy_r
                0x000000008784047c       0x44 lib/built-in.o
                0x000000008784047c                hdestroy_r
 .text.hmatch_r
                0x00000000878404c0       0x60 lib/built-in.o
                0x00000000878404c0                hmatch_r
 .text.hsearch_r
                0x0000000087840520      0x2b8 lib/built-in.o
                0x0000000087840520                hsearch_r
 .text.hdelete_r
                0x00000000878407d8       0x94 lib/built-in.o
                0x00000000878407d8                hdelete_r
 .text.hexport_r
                0x000000008784086c      0x188 lib/built-in.o
                0x000000008784086c                hexport_r
 .text.himport_r
                0x00000000878409f4      0x26c lib/built-in.o
                0x00000000878409f4                himport_r
 .text.hwalk_r  0x0000000087840c60       0x30 lib/built-in.o
                0x0000000087840c60                hwalk_r
 .text.display_options_get_banner_priv
                0x0000000087840c90       0x68 lib/built-in.o
                0x0000000087840c90                display_options_get_banner_priv
 .text.display_options_get_banner
                0x0000000087840cf8        0xa lib/built-in.o
                0x0000000087840cf8                display_options_get_banner
 *fill*         0x0000000087840d02        0x2 
 .text.display_options
                0x0000000087840d04       0x24 lib/built-in.o
                0x0000000087840d04                display_options
 .text.print_size
                0x0000000087840d28      0x118 lib/built-in.o
                0x0000000087840d28                print_size
 .text.print_buffer
                0x0000000087840e40      0x130 lib/built-in.o
                0x0000000087840e40                print_buffer
 .text.crc32_wd
                0x0000000087840f70        0x4 lib/built-in.o
                0x0000000087840f70                crc32_wd
 .text.__div64_32
                0x0000000087840f74       0x90 lib/built-in.o
                0x0000000087840f74                __div64_32
 .text.div_s64_rem
                0x0000000087841004       0x8c lib/built-in.o
                0x0000000087841004                div_s64_rem
 .text.hang     0x0000000087841090       0x18 lib/built-in.o
                0x0000000087841090                hang
 .text.kmalloc  0x00000000878410a8       0x28 lib/built-in.o
                0x00000000878410a8                kmalloc
 .text.skip_spaces
                0x00000000878410d0       0x18 lib/built-in.o
                0x00000000878410d0                skip_spaces
 .text.strim    0x00000000878410e8       0x34 lib/built-in.o
                0x00000000878410e8                strim
 .text.lmb_overlaps_region
                0x000000008784111c       0x2c lib/built-in.o
 .text.lmb_add_region
                0x0000000087841148      0x106 lib/built-in.o
 .text.lmb_dump_all
                0x000000008784124e        0x2 lib/built-in.o
                0x000000008784124e                lmb_dump_all
 .text.lmb_add  0x0000000087841250        0x4 lib/built-in.o
                0x0000000087841250                lmb_add
 .text.lmb_free
                0x0000000087841254       0x86 lib/built-in.o
                0x0000000087841254                lmb_free
 .text.lmb_reserve
                0x00000000878412da        0x6 lib/built-in.o
                0x00000000878412da                lmb_reserve
 .text.lmb_reserve_overlap
                0x00000000878412e0       0x68 lib/built-in.o
                0x00000000878412e0                lmb_reserve_overlap
 .text.__lmb_alloc_base
                0x0000000087841348       0x86 lib/built-in.o
                0x0000000087841348                __lmb_alloc_base
 *fill*         0x00000000878413ce        0x2 
 .text.lmb_alloc_base
                0x00000000878413d0       0x20 lib/built-in.o
                0x00000000878413d0                lmb_alloc_base
 .text.lmb_alloc
                0x00000000878413f0        0x6 lib/built-in.o
                0x00000000878413f0                lmb_alloc
 .text.lmb_alloc_addr
                0x00000000878413f6       0x40 lib/built-in.o
                0x00000000878413f6                lmb_alloc_addr
 .text.lmb_get_free_size
                0x0000000087841436       0x48 lib/built-in.o
                0x0000000087841436                lmb_get_free_size
 .text.lmb_init_and_reserve
                0x000000008784147e       0x36 lib/built-in.o
                0x000000008784147e                lmb_init_and_reserve
 .text.lmb_init_and_reserve_range
                0x00000000878414b4       0x30 lib/built-in.o
                0x00000000878414b4                lmb_init_and_reserve_range
 .text.emit     0x00000000878414e4       0x20 lib/built-in.o
 .text.store_char_in_data
                0x0000000087841504       0x24 lib/built-in.o
 .text.get_escape_char
                0x0000000087841528       0x54 lib/built-in.o
 .text.relocate
                0x000000008784157c       0x2a lib/built-in.o
 *fill*         0x00000000878415a6        0x2 
 .text.match    0x00000000878415a8      0x268 lib/built-in.o
 .text.loop_greedy
                0x0000000087841810       0x56 lib/built-in.o
 .text.loop_non_greedy
                0x0000000087841866       0x52 lib/built-in.o
 .text.quantifier
                0x00000000878418b8       0x5c lib/built-in.o
 .text.fixup_branch
                0x0000000087841914       0x28 lib/built-in.o
 .text.compile  0x000000008784193c      0x240 lib/built-in.o
 .text.slre_compile
                0x0000000087841b7c       0x8c lib/built-in.o
                0x0000000087841b7c                slre_compile
 .text.slre_match
                0x0000000087841c08       0x5a lib/built-in.o
                0x0000000087841c08                slre_match
 *fill*         0x0000000087841c62        0x2 
 .text.strncasecmp
                0x0000000087841c64       0x44 lib/built-in.o
                0x0000000087841c64                strncasecmp
 .text.strcasecmp
                0x0000000087841ca8        0x8 lib/built-in.o
                0x0000000087841ca8                strcasecmp
 .text.strcpy   0x0000000087841cb0       0x10 lib/built-in.o
                0x0000000087841cb0                strcpy
 .text.strncpy  0x0000000087841cc0       0x18 lib/built-in.o
                0x0000000087841cc0                strncpy
 .text.strcat   0x0000000087841cd8       0x1e lib/built-in.o
                0x0000000087841cd8                strcat
 .text.strncat  0x0000000087841cf6       0x28 lib/built-in.o
                0x0000000087841cf6                strncat
 .text.strcmp   0x0000000087841d1e       0x16 lib/built-in.o
                0x0000000087841d1e                strcmp
 .text.strncmp  0x0000000087841d34       0x22 lib/built-in.o
                0x0000000087841d34                strncmp
 .text.strchr   0x0000000087841d56       0x1a lib/built-in.o
                0x0000000087841d56                strchr
 .text.strlen   0x0000000087841d70       0x10 lib/built-in.o
                0x0000000087841d70                strlen
 .text.strlcpy  0x0000000087841d80       0x2e lib/built-in.o
                0x0000000087841d80                strlcpy
 .text.strrchr  0x0000000087841dae       0x20 lib/built-in.o
                0x0000000087841dae                strrchr
 .text.strnlen  0x0000000087841dce       0x1a lib/built-in.o
                0x0000000087841dce                strnlen
 .text.strdup   0x0000000087841de8       0x22 lib/built-in.o
                0x0000000087841de8                strdup
 .text.strspn   0x0000000087841e0a       0x20 lib/built-in.o
                0x0000000087841e0a                strspn
 .text.strpbrk  0x0000000087841e2a       0x22 lib/built-in.o
                0x0000000087841e2a                strpbrk
 .text.strtok   0x0000000087841e4c       0x3c lib/built-in.o
                0x0000000087841e4c                strtok
 .text.strsep   0x0000000087841e88       0x1c lib/built-in.o
                0x0000000087841e88                strsep
 .text.memmove  0x0000000087841ea4       0x26 lib/built-in.o
                0x0000000087841ea4                memmove
 .text.memcmp   0x0000000087841eca       0x1a lib/built-in.o
                0x0000000087841eca                memcmp
 .text.strstr   0x0000000087841ee4       0x40 lib/built-in.o
                0x0000000087841ee4                strstr
 .text.memchr   0x0000000087841f24       0x1c lib/built-in.o
                0x0000000087841f24                memchr
 .text.tick_to_time
                0x0000000087841f40       0x4e lib/built-in.o
 .text.timer_get_us
                0x0000000087841f8e       0x1a lib/built-in.o
                0x0000000087841f8e                timer_get_us
 .text.usec_to_tick
                0x0000000087841fa8       0x68 lib/built-in.o
                0x0000000087841fa8                usec_to_tick
 .text.udelay   0x0000000087842010       0x20 lib/built-in.o
                0x0000000087842010                udelay
 .text.uuid_str_valid
                0x0000000087842030       0x4c lib/built-in.o
                0x0000000087842030                uuid_str_valid
 .text.uuid_str_to_bin
                0x000000008784207c      0x12c lib/built-in.o
                0x000000008784207c                uuid_str_to_bin
 .text.uuid_bin_to_str
                0x00000000878421a8       0x88 lib/built-in.o
                0x00000000878421a8                uuid_bin_to_str
 .text.gen_rand_uuid
                0x0000000087842230       0x5c lib/built-in.o
                0x0000000087842230                gen_rand_uuid
 .text.gen_rand_uuid_str
                0x000000008784228c       0x1c lib/built-in.o
                0x000000008784228c                gen_rand_uuid_str
 .text.rand_r   0x00000000878422a8       0x14 lib/built-in.o
                0x00000000878422a8                rand_r
 .text.rand     0x00000000878422bc        0xc lib/built-in.o
                0x00000000878422bc                rand
 .text.srand    0x00000000878422c8        0xc lib/built-in.o
                0x00000000878422c8                srand
 .text.panic_finish
                0x00000000878422d4       0x20 lib/built-in.o
 .text.panic    0x00000000878422f4       0x14 lib/built-in.o
                0x00000000878422f4                panic
 .text.__assert_fail
                0x0000000087842308       0x10 lib/built-in.o
                0x0000000087842308                __assert_fail
 .text.put_dec_trunc
                0x0000000087842318       0x96 lib/built-in.o
 *fill*         0x00000000878423ae        0x2 
 .text.put_dec  0x00000000878423b0      0x130 lib/built-in.o
 .text.number   0x00000000878424e0      0x210 lib/built-in.o
 .text.string16
                0x00000000878426f0       0x98 lib/built-in.o
 .text.string   0x0000000087842788       0x98 lib/built-in.o
 .text.vsnprintf_internal
                0x0000000087842820      0x574 lib/built-in.o
 .text.vsnprintf
                0x0000000087842d94        0x4 lib/built-in.o
                0x0000000087842d94                vsnprintf
 .text.vscnprintf
                0x0000000087842d98       0x16 lib/built-in.o
                0x0000000087842d98                vscnprintf
 .text.snprintf
                0x0000000087842dae       0x1a lib/built-in.o
                0x0000000087842dae                snprintf
 .text.vsprintf
                0x0000000087842dc8        0xc lib/built-in.o
                0x0000000087842dc8                vsprintf
 .text.sprintf  0x0000000087842dd4       0x1a lib/built-in.o
                0x0000000087842dd4                sprintf
 .text.printf   0x0000000087842dee       0x34 lib/built-in.o
                0x0000000087842dee                printf
 .text.vprintf  0x0000000087842e22       0x26 lib/built-in.o
                0x0000000087842e22                vprintf
 .text.simple_itoa
                0x0000000087842e48       0x38 lib/built-in.o
                0x0000000087842e48                simple_itoa
 .text.str2off  0x0000000087842e80       0x24 lib/built-in.o
                0x0000000087842e80                str2off
 .text._parse_integer_fixup_radix
                0x0000000087842ea4       0x5c lib/built-in.o
 .text.simple_strtoul
                0x0000000087842f00       0x50 lib/built-in.o
                0x0000000087842f00                simple_strtoul
 .text.strict_strtoul
                0x0000000087842f50       0x42 lib/built-in.o
                0x0000000087842f50                strict_strtoul
 .text.simple_strtol
                0x0000000087842f92       0x1a lib/built-in.o
                0x0000000087842f92                simple_strtol
 .text.ustrtoul
                0x0000000087842fac       0x4c lib/built-in.o
                0x0000000087842fac                ustrtoul
 .text.simple_strtoull
                0x0000000087842ff8       0x74 lib/built-in.o
                0x0000000087842ff8                simple_strtoull
 .text.ustrtoull
                0x000000008784306c       0x5c lib/built-in.o
                0x000000008784306c                ustrtoull
 .text.trailing_strtoln
                0x00000000878430c8       0x48 lib/built-in.o
                0x00000000878430c8                trailing_strtoln
 .text.trailing_strtol
                0x0000000087843110        0x6 lib/built-in.o
                0x0000000087843110                trailing_strtol
 *fill*         0x0000000087843116        0x2 
 .text.arp_init
                0x0000000087843118       0x38 net/built-in.o
                0x0000000087843118                arp_init
 .text.arp_raw_request
                0x0000000087843150       0x94 net/built-in.o
                0x0000000087843150                arp_raw_request
 .text.arp_request
                0x00000000878431e4       0x54 net/built-in.o
                0x00000000878431e4                arp_request
 .text.arp_timeout_check
                0x0000000087843238       0x58 net/built-in.o
                0x0000000087843238                arp_timeout_check
 .text.arp_receive
                0x0000000087843290      0x180 net/built-in.o
                0x0000000087843290                arp_receive
 .text.arp_is_waiting
                0x0000000087843410       0x10 net/built-in.o
                0x0000000087843410                arp_is_waiting
 .text.dhcp_extended
                0x0000000087843420      0x15c net/built-in.o
 .text.dhcp_process_options
                0x000000008784357c      0x1bc net/built-in.o
 .text.dhcp_packet_process_options
                0x0000000087843738       0x5c net/built-in.o
 .text.dhcp_handler
                0x0000000087843794      0x2a4 net/built-in.o
 .text.bootp_reset
                0x0000000087843a38       0x2c net/built-in.o
                0x0000000087843a38                bootp_reset
 .text.bootp_request
                0x0000000087843a64      0x1e8 net/built-in.o
                0x0000000087843a64                bootp_request
 .text.bootp_timeout_handler
                0x0000000087843c4c       0x58 net/built-in.o
 .text.dhcp_request
                0x0000000087843ca4        0x4 net/built-in.o
                0x0000000087843ca4                dhcp_request
 .text.eth_get_uclass_priv
                0x0000000087843ca8       0x1a net/built-in.o
 .text.eth_pre_remove
                0x0000000087843cc2       0x1a net/built-in.o
 .text.eth_write_hwaddr
                0x0000000087843cdc       0x7c net/built-in.o
 .text.on_ethaddr
                0x0000000087843d58       0x4c net/built-in.o
 .text.eth_post_probe
                0x0000000087843da4      0x140 net/built-in.o
 .text.eth_post_bind
                0x0000000087843ee4       0x2c net/built-in.o
 .text.eth_set_current_to_next
                0x0000000087843f10       0x24 net/built-in.o
                0x0000000087843f10                eth_set_current_to_next
 .text.eth_get_dev
                0x0000000087843f34       0x20 net/built-in.o
                0x0000000087843f34                eth_get_dev
 .text.eth_set_dev
                0x0000000087843f54       0x24 net/built-in.o
                0x0000000087843f54                eth_set_dev
 .text.eth_pre_unbind
                0x0000000087843f78       0x18 net/built-in.o
 .text.eth_get_dev_by_name
                0x0000000087843f90       0x8c net/built-in.o
                0x0000000087843f90                eth_get_dev_by_name
 .text.eth_get_ethaddr
                0x000000008784401c       0x12 net/built-in.o
                0x000000008784401c                eth_get_ethaddr
 .text.eth_halt_state_only
                0x000000008784402e       0x16 net/built-in.o
                0x000000008784402e                eth_halt_state_only
 .text.eth_get_dev_index
                0x0000000087844044       0x16 net/built-in.o
                0x0000000087844044                eth_get_dev_index
 *fill*         0x000000008784405a        0x2 
 .text.eth_init
                0x000000008784405c       0x94 net/built-in.o
                0x000000008784405c                eth_init
 .text.eth_is_active
                0x00000000878440f0       0x20 net/built-in.o
                0x00000000878440f0                eth_is_active
 .text.eth_halt
                0x0000000087844110       0x24 net/built-in.o
                0x0000000087844110                eth_halt
 .text.eth_send
                0x0000000087844134       0x32 net/built-in.o
                0x0000000087844134                eth_send
 .text.eth_rx   0x0000000087844166       0x66 net/built-in.o
                0x0000000087844166                eth_rx
 .text.eth_initialize
                0x00000000878441cc       0xcc net/built-in.o
                0x00000000878441cc                eth_initialize
 .text.eth_env_get_enetaddr_by_index
                0x0000000087844298       0x2c net/built-in.o
                0x0000000087844298                eth_env_get_enetaddr_by_index
 .text.eth_env_set_enetaddr_by_index
                0x00000000878442c4       0x2c net/built-in.o
                0x00000000878442c4                eth_env_set_enetaddr_by_index
 .text.eth_common_init
                0x00000000878442f0       0x14 net/built-in.o
                0x00000000878442f0                eth_common_init
 .text.eth_mac_skip
                0x0000000087844304       0x2c net/built-in.o
                0x0000000087844304                eth_mac_skip
 .text.eth_get_name
                0x0000000087844330       0x18 net/built-in.o
                0x0000000087844330                eth_get_name
 .text.eth_current_changed
                0x0000000087844348       0x5c net/built-in.o
                0x0000000087844348                eth_current_changed
 .text.eth_try_another
                0x00000000878443a4       0x54 net/built-in.o
                0x00000000878443a4                eth_try_another
 .text.eth_set_current
                0x00000000878443f8       0x58 net/built-in.o
                0x00000000878443f8                eth_set_current
 .text.net_clear_handlers
                0x0000000087844450       0x24 net/built-in.o
 .text.start_again_timeout_handler
                0x0000000087844474        0xc net/built-in.o
 .text.dummy_handler
                0x0000000087844480        0x2 net/built-in.o
 *fill*         0x0000000087844482        0x2 
 .text.on_ipaddr
                0x0000000087844484       0x18 net/built-in.o
 .text.on_gatewayip
                0x000000008784449c       0x18 net/built-in.o
 .text.on_netmask
                0x00000000878444b4       0x18 net/built-in.o
 .text.on_serverip
                0x00000000878444cc       0x18 net/built-in.o
 .text.net_init_loop.part.0
                0x00000000878444e4       0x18 net/built-in.o
 .text.net_init
                0x00000000878444fc       0x58 net/built-in.o
                0x00000000878444fc                net_init
 .text.net_start_again
                0x0000000087844554       0xec net/built-in.o
                0x0000000087844554                net_start_again
 .text.net_set_udp_handler
                0x0000000087844640       0x18 net/built-in.o
                0x0000000087844640                net_set_udp_handler
 .text.net_get_arp_handler
                0x0000000087844658        0xc net/built-in.o
                0x0000000087844658                net_get_arp_handler
 .text.net_set_timeout_handler
                0x0000000087844664       0x40 net/built-in.o
                0x0000000087844664                net_set_timeout_handler
 .text.net_get_async_tx_pkt_buf
                0x00000000878446a4       0x1c net/built-in.o
                0x00000000878446a4                net_get_async_tx_pkt_buf
 .text.net_process_received_packet
                0x00000000878446c0      0x21c net/built-in.o
                0x00000000878446c0                net_process_received_packet
 .text.net_eth_hdr_size
                0x00000000878448dc       0x30 net/built-in.o
                0x00000000878448dc                net_eth_hdr_size
 .text.net_set_ether
                0x000000008784490c       0x6c net/built-in.o
                0x000000008784490c                net_set_ether
 .text.net_update_ether
                0x0000000087844978       0x58 net/built-in.o
                0x0000000087844978                net_update_ether
 .text.net_set_ip_header
                0x00000000878449d0       0x80 net/built-in.o
                0x00000000878449d0                net_set_ip_header
 .text.net_set_udp_header
                0x0000000087844a50       0x58 net/built-in.o
                0x0000000087844a50                net_set_udp_header
 .text.net_send_ip_packet
                0x0000000087844aa8       0xc0 net/built-in.o
                0x0000000087844aa8                net_send_ip_packet
 .text.net_send_udp_packet
                0x0000000087844b68       0x1c net/built-in.o
                0x0000000087844b68                net_send_udp_packet
 .text.copy_filename
                0x0000000087844b84       0x30 net/built-in.o
                0x0000000087844b84                copy_filename
 .text.is_serverip_in_cmd
                0x0000000087844bb4       0x18 net/built-in.o
                0x0000000087844bb4                is_serverip_in_cmd
 .text.net_check_prereq
                0x0000000087844bcc       0xa8 net/built-in.o
 .text.net_auto_load
                0x0000000087844c74       0x68 net/built-in.o
                0x0000000087844c74                net_auto_load
 .text.net_loop
                0x0000000087844cdc      0x1b4 net/built-in.o
                0x0000000087844cdc                net_loop
 .text.net_parse_bootfile
                0x0000000087844e90       0x50 net/built-in.o
                0x0000000087844e90                net_parse_bootfile
 .text.ip_to_string
                0x0000000087844ee0       0x28 net/built-in.o
                0x0000000087844ee0                ip_to_string
 .text.string_to_vlan
                0x0000000087844f08       0x28 net/built-in.o
                0x0000000087844f08                string_to_vlan
 .text.on_nvlan
                0x0000000087844f30       0x18 net/built-in.o
 .text.on_vlan  0x0000000087844f48       0x18 net/built-in.o
 .text.rpc_lookup_reply
                0x0000000087844f60       0x68 net/built-in.o
 .text.nfs_mount_reply
                0x0000000087844fc8       0x60 net/built-in.o
 .text.nfs_umountall_reply
                0x0000000087845028       0x58 net/built-in.o
 .text.nfs_lookup_reply
                0x0000000087845080       0xb8 net/built-in.o
 .text.nfs_readlink_reply
                0x0000000087845138       0xbc net/built-in.o
 .text.basename
                0x00000000878451f4       0x20 net/built-in.o
 .text.nfs_read_reply
                0x0000000087845214       0xec net/built-in.o
 .text.rpc_req  0x0000000087845300       0xc4 net/built-in.o
 .text.nfs_read_req
                0x00000000878453c4       0xa4 net/built-in.o
 .text.nfs_readlink_req
                0x0000000087845468       0x84 net/built-in.o
 .text.nfs_mount_req
                0x00000000878454ec       0x88 net/built-in.o
 .text.nfs_umountall_req
                0x0000000087845574       0x54 net/built-in.o
 .text.nfs_lookup_req
                0x00000000878455c8      0x10c net/built-in.o
 .text.nfs_send
                0x00000000878456d4       0xd4 net/built-in.o
 .text.nfs_handler
                0x00000000878457a8      0x17c net/built-in.o
 .text.nfs_timeout_handler
                0x0000000087845924       0x4c net/built-in.o
 .text.nfs_start
                0x0000000087845970      0x168 net/built-in.o
                0x0000000087845970                nfs_start
 .text.ping_timeout_handler
                0x0000000087845ad8       0x14 net/built-in.o
 .text.ping_start
                0x0000000087845aec       0xc8 net/built-in.o
                0x0000000087845aec                ping_start
 .text.ping_receive
                0x0000000087845bb4       0xb8 net/built-in.o
                0x0000000087845bb4                ping_receive
 .text.tftp_send
                0x0000000087845c6c      0x134 net/built-in.o
 .text.tftp_handler
                0x0000000087845da0      0x2a0 net/built-in.o
 .text.tftp_timeout_handler
                0x0000000087846040       0x64 net/built-in.o
 .text.tftp_start
                0x00000000878460a4      0x288 net/built-in.o
                0x00000000878460a4                tftp_start
 .text.__udivsi3
                0x000000008784632c       0x9c arch/arm/lib/lib.a(lib1funcs.o)
                0x000000008784632c                __udivsi3
                0x000000008784632c                __aeabi_uidiv
 .text.__divsi3
                0x00000000878463c8       0xcc arch/arm/lib/lib.a(lib1funcs.o)
                0x00000000878463c8                __aeabi_idiv
                0x00000000878463c8                __divsi3
 .text.__aeabi_uidivmod
                0x0000000087846494       0x30 arch/arm/lib/lib.a(lib1funcs.o)
                0x0000000087846494                __aeabi_uidivmod
                0x00000000878464ac                __aeabi_idivmod
 .text.Ldiv0    0x00000000878464c4       0x10 arch/arm/lib/lib.a(lib1funcs.o)
 .text.__aeabi_uldivmod
                0x00000000878464d4      0x188 arch/arm/lib/lib.a(uldivmod.o)
                0x00000000878464d4                __aeabi_uldivmod
 .text.__div0   0x000000008784665c        0x6 arch/arm/lib/lib.a(div0.o)
                0x000000008784665c                __div0
                0x0000000087846664                . = ALIGN (0x4)

.rodata         0x0000000087846668    0x169a5
 *(SORT_BY_ALIGNMENT(SORT_BY_NAME(.rodata*)))
 .rodata.efi_block_io_guid
                0x0000000087846668       0x10 lib/built-in.o
                0x0000000087846668                efi_block_io_guid
 .rodata.efi_file_handle_protocol
                0x0000000087846678       0x40 lib/built-in.o
 .rodata.efi_file_info_guid
                0x00000000878466b8       0x10 lib/built-in.o
                0x00000000878466b8                efi_file_info_guid
 .rodata.efi_file_system_info_guid
                0x00000000878466c8       0x10 lib/built-in.o
                0x00000000878466c8                efi_file_system_info_guid
 .rodata.efi_global_variable_guid
                0x00000000878466d8       0x10 lib/built-in.o
                0x00000000878466d8                efi_global_variable_guid
 .rodata.efi_gop_guid
                0x00000000878466e8       0x10 lib/built-in.o
 .rodata.efi_guid_device_path
                0x00000000878466f8       0x10 lib/built-in.o
                0x00000000878466f8                efi_guid_device_path
 .rodata.efi_guid_device_path_to_text_protocol
                0x0000000087846708       0x10 lib/built-in.o
                0x0000000087846708                efi_guid_device_path_to_text_protocol
 .rodata.efi_guid_device_path_utilities_protocol
                0x0000000087846718       0x10 lib/built-in.o
                0x0000000087846718                efi_guid_device_path_utilities_protocol
 .rodata.efi_guid_driver_binding_protocol
                0x0000000087846728       0x10 lib/built-in.o
                0x0000000087846728                efi_guid_driver_binding_protocol
 .rodata.efi_guid_event_group_exit_boot_services
                0x0000000087846738       0x10 lib/built-in.o
                0x0000000087846738                efi_guid_event_group_exit_boot_services
 .rodata.efi_guid_event_group_memory_map_change
                0x0000000087846748       0x10 lib/built-in.o
                0x0000000087846748                efi_guid_event_group_memory_map_change
 .rodata.efi_guid_event_group_reset_system
                0x0000000087846758       0x10 lib/built-in.o
                0x0000000087846758                efi_guid_event_group_reset_system
 .rodata.efi_guid_fdt
                0x0000000087846768       0x10 lib/built-in.o
                0x0000000087846768                efi_guid_fdt
 .rodata.efi_guid_hii_config_routing_protocol
                0x0000000087846778       0x10 lib/built-in.o
                0x0000000087846778                efi_guid_hii_config_routing_protocol
 .rodata.efi_guid_hii_database_protocol
                0x0000000087846788       0x10 lib/built-in.o
                0x0000000087846788                efi_guid_hii_database_protocol
 .rodata.efi_guid_hii_string_protocol
                0x0000000087846798       0x10 lib/built-in.o
                0x0000000087846798                efi_guid_hii_string_protocol
 .rodata.efi_guid_loaded_image
                0x00000000878467a8       0x10 lib/built-in.o
                0x00000000878467a8                efi_guid_loaded_image
 .rodata.efi_guid_loaded_image_device_path
                0x00000000878467b8       0x10 lib/built-in.o
                0x00000000878467b8                efi_guid_loaded_image_device_path
 .rodata.efi_guid_text_input_ex_protocol
                0x00000000878467c8       0x10 lib/built-in.o
                0x00000000878467c8                efi_guid_text_input_ex_protocol
 .rodata.efi_guid_text_input_protocol
                0x00000000878467d8       0x10 lib/built-in.o
                0x00000000878467d8                efi_guid_text_input_protocol
 .rodata.efi_guid_text_output_protocol
                0x00000000878467e8       0x10 lib/built-in.o
                0x00000000878467e8                efi_guid_text_output_protocol
 .rodata.efi_guid_unicode_collation_protocol2
                0x00000000878467f8       0x10 lib/built-in.o
                0x00000000878467f8                efi_guid_unicode_collation_protocol2
 .rodata.efi_net_guid
                0x0000000087846808       0x10 lib/built-in.o
 .rodata.efi_pxe_base_code_protocol_guid
                0x0000000087846818       0x10 lib/built-in.o
 .rodata.efi_rt_properties_table_guid
                0x0000000087846828       0x10 lib/built-in.o
 .rodata.efi_simple_file_system_protocol_guid
                0x0000000087846838       0x10 lib/built-in.o
                0x0000000087846838                efi_simple_file_system_protocol_guid
 .rodata.efi_system_volume_label_id
                0x0000000087846848       0x10 lib/built-in.o
                0x0000000087846848                efi_system_volume_label_id
 .rodata.efi_u_boot_guid
                0x0000000087846858       0x10 lib/built-in.o
                0x0000000087846858                efi_u_boot_guid
 .rodata.lcd_pads
                0x0000000087846868        0x8 board/freescale/mx6ullevk/built-in.o
 .rodata.partition_basic_data_guid
                0x0000000087846870       0x10 disk/built-in.o
 .rodata.smbios_guid
                0x0000000087846880       0x10 lib/built-in.o
 .rodata.system_guid
                0x0000000087846890       0x10 disk/built-in.o
 .rodata.uart1_pads
                0x00000000878468a0       0x10 board/freescale/mx6ullevk/built-in.o
 .rodata        0x00000000878468b0       0x80 arch/arm/lib/built-in.o
 .rodata        0x0000000087846930       0x64 drivers/built-in.o
 .rodata.CSWTCH.164
                0x0000000087846994        0xc drivers/usb/host/built-in.o
 .rodata.CSWTCH.32
                0x00000000878469a0       0x20 common/built-in.o
 .rodata.CSWTCH.32
                0x00000000878469c0       0x20 disk/built-in.o
 .rodata.CSWTCH.45
                0x00000000878469e0       0x14 cmd/built-in.o
 .rodata.asix_eth_id_table
                0x00000000878469f4      0x138 drivers/usb/eth/built-in.o
 .rodata.asix_eth_ops
                0x0000000087846b2c       0x20 drivers/usb/eth/built-in.o
 .rodata.board_boot_modes
                0x0000000087846b4c       0x20 board/freescale/mx6ullevk/built-in.o
 .rodata.boot_os
                0x0000000087846b6c       0x60 common/built-in.o
 .rodata.bootm_args.9245
                0x0000000087846bcc        0xc drivers/built-in.o
 .rodata.ci_ep_init
                0x0000000087846bd8       0xc8 drivers/usb/gadget/built-in.o
 .rodata.ci_udc_otg_ids
                0x0000000087846ca0       0x10 drivers/usb/gadget/built-in.o
 .rodata.color  0x0000000087846cb0       0x40 lib/built-in.o
 .rodata.colors
                0x0000000087846cf0       0xc0 drivers/built-in.o
 .rodata.commands
                0x0000000087846db0       0x68 drivers/built-in.o
 .rodata.driver_ops
                0x0000000087846e18        0xc lib/built-in.o
 .rodata.efi_blk_ops
                0x0000000087846e24       0x10 lib/built-in.o
 .rodata.efi_device_path_to_text
                0x0000000087846e34        0x8 lib/built-in.o
                0x0000000087846e34                efi_device_path_to_text
 .rodata.efi_device_path_utilities
                0x0000000087846e3c       0x20 lib/built-in.o
                0x0000000087846e3c                efi_device_path_utilities
 .rodata.efi_hii_config_routing
                0x0000000087846e5c       0x18 lib/built-in.o
                0x0000000087846e5c                efi_hii_config_routing
 .rodata.efi_hii_database
                0x0000000087846e74       0x2c lib/built-in.o
                0x0000000087846e74                efi_hii_database
 .rodata.efi_hii_string
                0x0000000087846ea0       0x14 lib/built-in.o
                0x0000000087846ea0                efi_hii_string
 .rodata.efi_unicode_collation_protocol2
                0x0000000087846eb4       0x1c lib/built-in.o
                0x0000000087846eb4                efi_unicode_collation_protocol2
 .rodata.env_flags_varaccess_mask
                0x0000000087846ed0       0x10 env/built-in.o
 .rodata.ext_csd_bus_width
                0x0000000087846ee0       0x3c drivers/built-in.o
 .rodata.fbase  0x0000000087846f1c       0x10 drivers/built-in.o
 .rodata.fdt_errtable
                0x0000000087846f2c       0x4c lib/built-in.o
 .rodata.fdt_member_table
                0x0000000087846f78       0x28 cmd/built-in.o
 .rodata.fecmxc_ids
                0x0000000087846fa0       0x50 drivers/net/built-in.o
 .rodata.fecmxc_ops
                0x0000000087846ff0       0x20 drivers/net/built-in.o
 .rodata.fixed_regulator_ids
                0x0000000087847010       0x10 drivers/power/regulator/built-in.o
 .rodata.fixed_regulator_ops
                0x0000000087847020       0x30 drivers/power/regulator/built-in.o
 .rodata.freqs.10613
                0x0000000087847050       0x34 drivers/built-in.o
 .rodata.fsl_esdhc_ids
                0x0000000087847084       0x70 drivers/built-in.o
 .rodata.fsl_esdhc_ops
                0x00000000878470f4       0x1c drivers/built-in.o
 .rodata.fsl_qspi_ids
                0x0000000087847110       0x30 drivers/spi/built-in.o
 .rodata.fsl_qspi_ops
                0x0000000087847140       0x24 drivers/spi/built-in.o
 .rodata.gen_74x164_ids
                0x0000000087847164       0x10 drivers/gpio/built-in.o
 .rodata.gen_74x164_ops
                0x0000000087847174       0x28 drivers/gpio/built-in.o
 .rodata.generic_simple_bus_ids
                0x000000008784719c       0x18 drivers/built-in.o
 .rodata.gpio_function
                0x00000000878471b4       0x14 drivers/gpio/built-in.o
 .rodata.gpio_mxc_ops
                0x00000000878471c8       0x28 drivers/gpio/built-in.o
 .rodata.gpio_regulator_ids
                0x00000000878471f0       0x10 drivers/power/regulator/built-in.o
 .rodata.gpio_regulator_ops
                0x0000000087847200       0x30 drivers/power/regulator/built-in.o
 .rodata.hub_id_table
                0x0000000087847230       0x30 common/built-in.o
 .rodata.hwcaps_pp2cmd.11589
                0x0000000087847260       0x38 drivers/built-in.o
 .rodata.hwcaps_read2cmd.11585
                0x0000000087847298       0x78 drivers/built-in.o
 .rodata.if_type_uclass_id
                0x0000000087847310       0x34 drivers/built-in.o
 .rodata.if_typename_str
                0x0000000087847344       0x34 drivers/built-in.o
 .rodata.imx6_pinctrl_match
                0x0000000087847378       0x48 drivers/built-in.o
 .rodata.imx6_thermal_plat
                0x00000000878473c0        0xc arch/arm/mach-imx/built-in.o
 .rodata.imx6sx_data
                0x00000000878473cc       0x14 drivers/spi/built-in.o
 .rodata.imx6ul_7d_data
                0x00000000878473e0       0x14 drivers/spi/built-in.o
 .rodata.imx7ulp_data
                0x00000000878473f4       0x14 drivers/spi/built-in.o
 .rodata.imx_pinctrl_ops
                0x0000000087847408       0x50 drivers/built-in.o
                0x0000000087847408                imx_pinctrl_ops
 .rodata.imx_thermal_ops
                0x0000000087847458        0x4 drivers/built-in.o
 .rodata.init_sequence_f
                0x000000008784745c       0xc8 common/built-in.o
 .rodata.machines
                0x0000000087847524       0x10 lib/built-in.o
 .rodata.mass_storage_id_table
                0x0000000087847534       0x30 common/built-in.o
 .rodata.mmc_blk_ops
                0x0000000087847564       0x10 drivers/built-in.o
 .rodata.mmc_modes_by_pref
                0x0000000087847574       0x20 drivers/built-in.o
 .rodata.mmc_versions.10993
                0x0000000087847594       0x24 drivers/built-in.o
 .rodata.mx6_ehci_ops
                0x00000000878475b8       0x14 drivers/usb/host/built-in.o
 .rodata.mx6_fuse_descs
                0x00000000878475cc      0x5f0 arch/arm/mach-imx/built-in.o
 .rodata.mx6_usb_ids
                0x0000000087847bbc       0x10 drivers/usb/host/built-in.o
 .rodata.mxc_gpio_ids
                0x0000000087847bcc       0x10 drivers/gpio/built-in.o
 .rodata.mxc_i2c_ids
                0x0000000087847bdc       0x18 drivers/i2c/built-in.o
 .rodata.mxc_i2c_ops
                0x0000000087847bf4       0x18 drivers/i2c/built-in.o
 .rodata.mxs_video_ids
                0x0000000087847c0c       0x30 drivers/built-in.o
 .rodata.names.10608
                0x0000000087847c3c       0x34 drivers/built-in.o
 .rodata.op_adv
                0x0000000087847c70      0x100 cmd/built-in.o
                0x0000000087847c70                op_adv
 .rodata.op_table
                0x0000000087847d70       0x68 cmd/built-in.o
 .rodata.phy_bases
                0x0000000087847dd8        0x8 drivers/usb/imx/built-in.o
 .rodata.phy_interface_strings
                0x0000000087847de0       0x64 drivers/net/phy/built-in.o
 .rodata.root_info
                0x0000000087847e44        0x8 drivers/built-in.o
 .rodata.sd_au_size.10868
                0x0000000087847e4c       0x40 drivers/built-in.o
 .rodata.sd_modes_by_pref
                0x0000000087847e8c       0x10 drivers/built-in.o
 .rodata.simple_panel_ids
                0x0000000087847e9c       0x30 drivers/built-in.o
 .rodata.simple_panel_ops
                0x0000000087847ecc        0xc drivers/built-in.o
 .rodata.smbios_write_funcs
                0x0000000087847ed8       0x1c lib/built-in.o
 .rodata.soc_boot_modes
                0x0000000087847ef4       0x60 arch/arm/mach-imx/built-in.o
                0x0000000087847ef4                soc_boot_modes
 .rodata.soft_spi_ids
                0x0000000087847f54       0x10 drivers/spi/built-in.o
 .rodata.soft_spi_ops
                0x0000000087847f64       0x24 drivers/spi/built-in.o
 .rodata.spi_flash_std_ids
                0x0000000087847f88       0x10 drivers/built-in.o
 .rodata.spi_flash_std_ops
                0x0000000087847f98       0x10 drivers/built-in.o
 .rodata.spi_nor_ids
                0x0000000087847fa8      0x380 drivers/built-in.o
                0x0000000087847fa8                spi_nor_ids
 .rodata.uimage_arch
                0x0000000087848328      0x144 common/built-in.o
 .rodata.uimage_comp
                0x000000008784846c       0x54 common/built-in.o
 .rodata.uimage_os
                0x00000000878484c0       0xa8 common/built-in.o
 .rodata.uimage_type
                0x0000000087848568      0x1e0 common/built-in.o
 .rodata.usb_dr_modes
                0x0000000087848748       0x10 drivers/usb/common/built-in.o
 .rodata.usb_hub_ids
                0x0000000087848758       0x10 common/built-in.o
 .rodata.usb_mass_storage_ids
                0x0000000087848768       0x10 common/built-in.o
 .rodata.usb_storage_ops
                0x0000000087848778       0x10 common/built-in.o
 .rodata.vybrid_data
                0x0000000087848788       0x14 drivers/spi/built-in.o
 .rodata.CSWTCH.17
                0x000000008784879c       0x22 drivers/built-in.o
 .rodata.CSWTCH.18
                0x00000000878487be       0x22 drivers/built-in.o
 .rodata.codepage
                0x00000000878487e0      0x100 lib/built-in.o
 .rodata.crc16_tab
                0x00000000878488e0      0x200 lib/built-in.o
 .rodata.crc16_table
                0x0000000087848ae0      0x200 fs/built-in.o
 .rodata.dbase.9564
                0x0000000087848ce0       0x40 lib/built-in.o
 .rodata.dext.9565
                0x0000000087848d20       0x40 lib/built-in.o
 .rodata.distfix
                0x0000000087848d60       0x80 lib/built-in.o
 .rodata.efi_bootmgr_load.str2.2
                0x0000000087848de0       0x26 lib/built-in.o
 .rodata.efi_init_obj_list.str2.2
                0x0000000087848e06       0x6c lib/built-in.o
 .rodata.i2c_clk_div
                0x0000000087848e72       0xc8 drivers/i2c/built-in.o
 .rodata.lbase.9562
                0x0000000087848f3a       0x3e lib/built-in.o
 .rodata.lenfix
                0x0000000087848f78      0x800 lib/built-in.o
 .rodata.lext.9563
                0x0000000087849778       0x3e lib/built-in.o
 .rodata.order.9658
                0x00000000878497b6       0x26 lib/built-in.o
 .rodata.string16.str2.2
                0x00000000878497dc        0xe lib/built-in.o
 .rodata.try_load_entry.str2.2
                0x00000000878497ea       0x4c lib/built-in.o
 .rodata        0x0000000087849836       0x3f drivers/usb/host/built-in.o
 .rodata        0x0000000087849875        0x3 env/built-in.o
 .rodata        0x0000000087849878       0x23 lib/built-in.o
 .rodata        0x000000008784989b        0x7 net/built-in.o
 .rodata.CSWTCH.165
                0x00000000878498a2        0x3 drivers/usb/host/built-in.o
 .rodata.CSWTCH.18
                0x00000000878498a5        0x3 arch/arm/mach-imx/built-in.o
 .rodata.CSWTCH.19
                0x00000000878498a8       0x11 drivers/built-in.o
 .rodata.CSWTCH.66
                0x00000000878498b9       0x16 common/built-in.o
 .rodata.END    0x00000000878498cf        0x4 lib/built-in.o
 .rodata.ROOT   0x00000000878498d3       0x14 lib/built-in.o
 .rodata.__FUNCTION__.10017
                0x00000000878498e7       0x17 common/built-in.o
 .rodata.__FUNCTION__.9844
                0x00000000878498fe       0x17 common/built-in.o
 .rodata.__assert_fail.str1.1
                0x0000000087849915       0x22 lib/built-in.o
 .rodata.__func__.10011
                0x0000000087849937        0xb drivers/built-in.o
 .rodata.__func__.10162
                0x0000000087849942       0x1c fs/built-in.o
 .rodata.__func__.10826
                0x000000008784995e       0x12 drivers/net/phy/built-in.o
 .rodata.__func__.11109
                0x0000000087849970       0x15 common/built-in.o
 .rodata.__func__.11109
                0x0000000087849985        0xd drivers/usb/gadget/built-in.o
 .rodata.__func__.11126
                0x0000000087849992       0x12 drivers/i2c/built-in.o
 .rodata.__func__.11129
                0x00000000878499a4        0xf lib/built-in.o
 .rodata.__func__.11146
                0x00000000878499b3        0xe lib/built-in.o
 .rodata.__func__.11160
                0x00000000878499c1        0xd drivers/i2c/built-in.o
 .rodata.__func__.11169
                0x00000000878499ce        0xd drivers/built-in.o
 .rodata.__func__.11175
                0x00000000878499db       0x11 drivers/built-in.o
 .rodata.__func__.11179
                0x00000000878499ec       0x18 drivers/built-in.o
 .rodata.__func__.11181
                0x0000000087849a04       0x1b lib/built-in.o
 .rodata.__func__.11183
                0x0000000087849a1f       0x18 drivers/built-in.o
 .rodata.__func__.11187
                0x0000000087849a37        0xd drivers/built-in.o
 .rodata.__func__.11191
                0x0000000087849a44       0x14 drivers/built-in.o
 .rodata.__func__.11195
                0x0000000087849a58       0x14 drivers/built-in.o
 .rodata.__func__.11199
                0x0000000087849a6c        0xc lib/built-in.o
 .rodata.__func__.11212
                0x0000000087849a78        0xd drivers/i2c/built-in.o
 .rodata.__func__.11223
                0x0000000087849a85       0x12 drivers/i2c/built-in.o
 .rodata.__func__.11477
                0x0000000087849a97        0xe common/built-in.o
 .rodata.__func__.11674
                0x0000000087849aa5       0x17 drivers/usb/host/built-in.o
 .rodata.__func__.11776
                0x0000000087849abc        0xc lib/built-in.o
 .rodata.__func__.12004
                0x0000000087849ac8        0xc drivers/net/built-in.o
 .rodata.__func__.12053
                0x0000000087849ad4       0x10 drivers/net/built-in.o
 .rodata.__func__.12108
                0x0000000087849ae4       0x15 lib/built-in.o
 .rodata.__func__.12663
                0x0000000087849af9        0xc drivers/usb/gadget/built-in.o
 .rodata.__func__.13331
                0x0000000087849b05       0x11 drivers/usb/gadget/built-in.o
 .rodata.__func__.13488
                0x0000000087849b16       0x11 drivers/usb/gadget/built-in.o
 .rodata.__func__.13633
                0x0000000087849b27        0xf drivers/usb/gadget/built-in.o
 .rodata.__func__.9239
                0x0000000087849b36        0xb fs/built-in.o
 .rodata.__func__.9448
                0x0000000087849b41       0x12 disk/built-in.o
 .rodata.__func__.9459
                0x0000000087849b53       0x13 disk/built-in.o
 .rodata.__func__.9471
                0x0000000087849b66       0x13 lib/built-in.o
 .rodata.__func__.9521
                0x0000000087849b79        0xc disk/built-in.o
 .rodata.__func__.9539
                0x0000000087849b85       0x13 disk/built-in.o
 .rodata.__func__.9582
                0x0000000087849b98       0x1c disk/built-in.o
 .rodata.__func__.9599
                0x0000000087849bb4        0xd disk/built-in.o
 .rodata.__func__.9609
                0x0000000087849bc1        0xf disk/built-in.o
 .rodata.__func__.9614
                0x0000000087849bd0        0xa drivers/built-in.o
 .rodata.__func__.9618
                0x0000000087849bda       0x17 disk/built-in.o
 .rodata.__func__.9623
                0x0000000087849bf1        0xd disk/built-in.o
 .rodata.__func__.9643
                0x0000000087849bfe        0xb drivers/built-in.o
 .rodata.__func__.9661
                0x0000000087849c09        0xa drivers/built-in.o
 .rodata.__func__.9673
                0x0000000087849c13        0xe drivers/built-in.o
 .rodata.__func__.9706
                0x0000000087849c21       0x13 fs/built-in.o
 .rodata.__func__.9715
                0x0000000087849c34       0x14 fs/built-in.o
 .rodata.__func__.9720
                0x0000000087849c48       0x18 common/built-in.o
 .rodata.__func__.9809
                0x0000000087849c60        0x7 cmd/built-in.o
 .rodata.__func__.9907
                0x0000000087849c67        0xc drivers/built-in.o
 .rodata.__func__.9917
                0x0000000087849c73        0xb drivers/built-in.o
 .rodata.__func__.9943
                0x0000000087849c7e        0xe drivers/built-in.o
 .rodata.__of_translate_address.str1.1
                0x0000000087849c8c       0x1b common/built-in.o
 .rodata._ctype
                0x0000000087849ca7      0x100 lib/built-in.o
                0x0000000087849ca7                _ctype
 .rodata._do_env_set.isra.0.str1.1
                0x0000000087849da7       0x7c cmd/built-in.o
 .rodata._do_help.str1.1
                0x0000000087849e23       0x5f common/built-in.o
 .rodata._ehci_create_int_queue.isra.0.str1.1
                0x0000000087849e82       0x3d drivers/usb/host/built-in.o
 .rodata._ehci_destroy_int_queue.str1.1
                0x0000000087849ebf       0x2d drivers/usb/host/built-in.o
 .rodata._fastboot_parts_load_from_ptable.str1.1
                0x0000000087849eec       0xb7 drivers/built-in.o
                                         0xf9 (size before relaxing)
 .rodata._gpio_request_by_name_nodev.str1.1
                0x0000000087849fa3        0xc drivers/gpio/built-in.o
 .rodata.android_image_check_header.str1.1
                0x0000000087849faf        0x9 common/built-in.o
 .rodata.android_image_get_kernel.str1.1
                0x0000000087849fb8       0x77 common/built-in.o
                                         0x8c (size before relaxing)
 .rodata.android_image_get_ramdisk.str1.1
                0x000000008784a02f       0x27 common/built-in.o
 .rodata.android_image_get_second.str1.1
                0x000000008784a056       0x19 common/built-in.o
 .rodata.android_print_contents.str1.1
                0x000000008784a06f      0x1fe common/built-in.o
                                        0x202 (size before relaxing)
 .rodata.announce_dram_init.str1.1
                0x000000008784a26d        0x8 common/built-in.o
 .rodata.append_kernel_cmdline.str1.1
                0x000000008784a275      0x1a6 common/built-in.o
                                        0x1c1 (size before relaxing)
 .rodata.arp_receive.str1.1
                0x000000008784a41b       0x14 net/built-in.o
 .rodata.arp_request.str1.1
                0x000000008784a42f       0x2a net/built-in.o
 .rodata.arp_timeout_check.str1.1
                0x000000008784a459       0x2b net/built-in.o
 .rodata.asix_eth_start.str1.1
                0x000000008784a484       0x3f drivers/usb/eth/built-in.o
 .rodata.autoboot_command.str1.1
                0x000000008784a4c3       0x31 common/built-in.o
 .rodata.b_addqchr.str1.1
                0x000000008784a4f4        0x5 common/built-in.o
 .rodata.bad_mode.str1.1
                0x000000008784a4f9       0x13 arch/arm/lib/built-in.o
 .rodata.bank_lookup
                0x000000008784a50c        0x2 arch/arm/mach-imx/built-in.o
 .rodata.binary_test.str1.1
                0x000000008784a50e       0x17 cmd/built-in.o
 .rodata.blk_common_cmd.str1.1
                0x000000008784a525      0x10f cmd/built-in.o
                                        0x123 (size before relaxing)
 .rodata.blk_create_devicef.str1.1
                0x000000008784a634        0x6 drivers/built-in.o
 .rodata.blk_get_device_by_str.str1.1
                0x000000008784a63a       0x52 disk/built-in.o
 .rodata.blk_get_device_part_str.str1.1
                0x000000008784a68c       0xe1 disk/built-in.o
                                        0x109 (size before relaxing)
 .rodata.blk_list_devices.str1.1
                0x000000008784a76d       0x58 drivers/built-in.o
                                          0xc (size before relaxing)
 .rodata.blk_print_device_num.str1.1
                0x000000008784a76d       0x11 drivers/built-in.o
 .rodata.blk_show_device.str1.1
                0x000000008784a77e       0x1d drivers/built-in.o
 .rodata.blkc_configure.str1.1
                0x000000008784a79b       0x30 cmd/built-in.o
 .rodata.blkc_show.str1.1
                0x000000008784a7cb       0x4c cmd/built-in.o
 .rodata.board_fastboot_setup.str1.1
                0x000000008784a817       0xc1 drivers/built-in.o
                                         0xe3 (size before relaxing)
 .rodata.board_init_f.str1.1
                0x000000008784a8d8       0x31 common/built-in.o
 .rodata.board_init_r.str1.1
                0x000000008784a909       0x31 common/built-in.o
 .rodata.board_late_init.str1.1
                0x000000008784a909       0x51 board/freescale/mx6ullevk/built-in.o
                                         0x58 (size before relaxing)
 .rodata.board_late_mmc_env_init.str1.1
                0x000000008784a95a       0x41 board/freescale/common/built-in.o
                                         0x48 (size before relaxing)
 .rodata.boot_fdt_add_mem_rsv_regions.str1.1
                0x000000008784a99b       0x42 common/built-in.o
                                         0x56 (size before relaxing)
 .rodata.boot_get_fdt.str1.1
                0x000000008784a9dd      0x1b5 common/built-in.o
                                        0x1d8 (size before relaxing)
 .rodata.boot_get_ramdisk.str1.1
                0x000000008784ab92       0xb7 common/built-in.o
                                        0x116 (size before relaxing)
 .rodata.boot_jump_linux.str1.1
                0x000000008784ac49       0x5c arch/arm/lib/built-in.o
                                         0x5d (size before relaxing)
 .rodata.boot_prep_linux.str1.1
                0x000000008784aca5       0x20 arch/arm/lib/built-in.o
                                         0x29 (size before relaxing)
 .rodata.boot_prep_vxworks.str1.1
                0x000000008784acc5       0x2a arch/arm/lib/built-in.o
 .rodata.boot_ramdisk_high.str1.1
                0x000000008784acef       0x54 common/built-in.o
 .rodata.boot_relocate_fdt.str1.1
                0x000000008784ad43       0xcf common/built-in.o
                                         0xd3 (size before relaxing)
 .rodata.bootdelay_process.str1.1
                0x000000008784ae12       0xd1 common/built-in.o
                                         0xd9 (size before relaxing)
 .rodata.bootloader_mmc_offset.str1.1
                0x000000008784aee3        0x9 drivers/built-in.o
 .rodata.bootm_find_images.str1.1
                0x000000008784aeec       0x49 common/built-in.o
 .rodata.bootm_maybe_autostart.str1.1
                0x000000008784af35       0x37 cmd/built-in.o
                                         0x3b (size before relaxing)
 .rodata.bootp_request.str1.1
                0x000000008784af6c       0x25 net/built-in.o
 .rodata.bootp_timeout_handler.str1.1
                0x000000008784af91       0x26 net/built-in.o
 .rodata.bootz_setup.str1.1
                0x000000008784afb7       0x3f arch/arm/lib/built-in.o
 .rodata.calc_parts_list_len.str1.1
                0x000000008784aff6       0x2e cmd/built-in.o
 .rodata.check_cache_range.str1.1
                0x000000008784b024       0x35 arch/arm/lib/built-in.o
 .rodata.check_command.isra.0.str1.1
                0x000000008784b059        0x9 drivers/usb/gadget/built-in.o
 .rodata.check_reserved.str1.1
                0x000000008784b062       0x27 drivers/gpio/built-in.o
                                         0x28 (size before relaxing)
 .rodata.checkboard.str1.1
                0x000000008784b089       0x32 board/freescale/mx6ullevk/built-in.o
 .rodata.ci_ep_queue.str1.1
                0x000000008784b0bb       0x29 drivers/usb/gadget/built-in.o
 .rodata.ci_udc_otg_ofdata_to_platdata.str1.1
                0x000000008784b0e4        0xd drivers/usb/gadget/built-in.o
 .rodata.ci_udc_otg_probe.str1.1
                0x000000008784b0f1       0x4e drivers/usb/gadget/built-in.o
                                         0x5a (size before relaxing)
 .rodata.cli_process_fdt.str1.1
                0x000000008784b13f        0xb common/built-in.o
                                         0x13 (size before relaxing)
 .rodata.cli_readline_into_buffer.str1.1
                0x000000008784b14a        0x4 common/built-in.o
                                          0x8 (size before relaxing)
 .rodata.cli_secure_boot_cmd.str1.1
                0x000000008784b14e       0x50 common/built-in.o
 .rodata.cmd_auto_complete.str1.1
                0x000000008784b19e       0x5f common/built-in.o
                                          0xb (size before relaxing)
 .rodata.cmd_process.str1.1
                0x000000008784b19e       0x48 common/built-in.o
 .rodata.cmd_process_error.str1.1
                0x000000008784b1e6       0x1f common/built-in.o
 .rodata.cmd_usage.str1.1
                0x000000008784b205       0x36 common/built-in.o
 .rodata.col_lookup
                0x000000008784b23b        0x8 arch/arm/mach-imx/built-in.o
 .rodata.common_diskboot.str1.1
                0x000000008784b243       0x8f cmd/built-in.o
 .rodata.compile.str1.1
                0x000000008784b2d2       0x4a lib/built-in.o
 .rodata.complete_subcmdv.str1.1
                0x000000008784b31c       0x5f common/built-in.o
                                          0x4 (size before relaxing)
 .rodata.composite_unbind.str1.1
                0x000000008784b31c        0xe drivers/usb/gadget/built-in.o
                                         0x10 (size before relaxing)
 .rodata.confirm_yesno.str1.1
                0x000000008784b32a       0x10 common/built-in.o
 .rodata.console_announce_r.str1.1
                0x000000008784b33a        0x7 common/built-in.o
 .rodata.count_ext_compat.str1.1
                0x000000008784b33a       0x38 drivers/usb/gadget/built-in.o
 .rodata.cread_add_char.str1.1
                0x000000008784b372        0x5 common/built-in.o
 .rodata.create_gpt_partitions_list.isra.0.str1.1
                0x000000008784b377       0x28 cmd/built-in.o
                                         0x2a (size before relaxing)
 .rodata.create_usage.str1.1
                0x000000008784b39f        0xb arch/arm/mach-imx/built-in.o
 .rodata.default_environment
                0x000000008784b3aa      0xce4 env/built-in.o
                0x000000008784b3aa                default_environment
 .rodata.dev_get_platdata.str1.1
                0x000000008784c08e       0x11 drivers/built-in.o
 .rodata.dev_print.str1.1
                0x000000008784c09f      0x165 disk/built-in.o
                                        0x176 (size before relaxing)
 .rodata.devfdt_get_addr_index.str1.1
                0x000000008784c204        0x4 drivers/built-in.o
 .rodata.device_bind_common.isra.0.str1.1
                0x000000008784c204       0x5b drivers/built-in.o
 .rodata.device_probe.str1.1
                0x000000008784c25f       0x30 drivers/built-in.o
                                         0x38 (size before relaxing)
 .rodata.device_remove.str1.1
                0x000000008784c28f       0x98 drivers/built-in.o
 .rodata.devm_kfree.str1.1
                0x000000008784c327        0x4 drivers/built-in.o
 .rodata.devres_free.str1.1
                0x000000008784c32b       0x17 drivers/built-in.o
                                         0x19 (size before relaxing)
 .rodata.dhcp_extended.str1.1
                0x000000008784c342       0x3f net/built-in.o
 .rodata.dhcp_handler.str1.1
                0x000000008784c381       0x41 net/built-in.o
                                         0x4a (size before relaxing)
 .rodata.dhcp_process_options.str1.1
                0x000000008784c3c2       0x78 net/built-in.o
 .rodata.digits.11246
                0x000000008784c43a       0x10 lib/built-in.o
 .rodata.dirletter.11431
                0x000000008784c44a        0x4 drivers/usb/gadget/built-in.o
 .rodata.disable_periodic.isra.0.str1.1
                0x000000008784c44e       0x33 drivers/usb/host/built-in.o
 .rodata.disk_write.str1.1
                0x000000008784c481       0x18 fs/built-in.o
 .rodata.display_options.str1.1
                0x000000008784c481        0x3 lib/built-in.o
 .rodata.display_options_get_banner_priv.str1.1
                0x000000008784c481        0xc lib/built-in.o
                                         0x15 (size before relaxing)
 .rodata.dm_dump_all.str1.1
                0x000000008784c48d       0x73 drivers/built-in.o
 .rodata.dm_dump_drivers.str1.1
                0x000000008784c500       0x3e drivers/built-in.o
                                         0x61 (size before relaxing)
 .rodata.dm_dump_uclass.str1.1
                0x000000008784c53e       0x35 drivers/built-in.o
                                         0x37 (size before relaxing)
 .rodata.dm_extended_scan_fdt.str1.1
                0x000000008784c573       0x12 drivers/built-in.o
 .rodata.dm_gpio_get_value.str1.1
                0x000000008784c585        0xa drivers/gpio/built-in.o
 .rodata.dm_gpio_set_dir_flags.str1.1
                0x000000008784c58f        0x8 drivers/gpio/built-in.o
 .rodata.dm_gpio_set_value.str1.1
                0x000000008784c597        0xa drivers/gpio/built-in.o
 .rodata.dm_init.str1.1
                0x000000008784c5a1       0x25 drivers/built-in.o
 .rodata.dm_ofnode_pre_reloc.str1.1
                0x000000008784c5c6       0x45 drivers/built-in.o
 .rodata.dm_root.str1.1
                0x000000008784c60b       0x25 drivers/built-in.o
 .rodata.dm_scan_fdt_node.str1.1
                0x000000008784c630       0x1d drivers/built-in.o
                                         0x2d (size before relaxing)
 .rodata.dm_scan_platdata.str1.1
                0x000000008784c64d       0x1d drivers/built-in.o
 .rodata.dm_spi_claim_bus.str1.1
                0x000000008784c66a       0x35 drivers/spi/built-in.o
 .rodata.do_bdinfo.str1.1
                0x000000008784c69f       0xa8 cmd/built-in.o
 .rodata.do_bmp_display.str1.1
                0x000000008784c747       0x72 cmd/built-in.o
                                          0x2 (size before relaxing)
 .rodata.do_bmp_info.str1.1
                0x000000008784c747       0x72 cmd/built-in.o
 .rodata.do_boot_mode.str1.1
                0x000000008784c7b9        0x8 arch/arm/mach-imx/built-in.o
 .rodata.do_bootd.str1.1
                0x000000008784c7c1       0x2a cmd/built-in.o
                                          0x8 (size before relaxing)
 .rodata.do_bootefi.str1.1
                0x000000008784c7c1       0x6d cmd/built-in.o
 .rodata.do_bootefi_exec.str1.1
                0x000000008784c82e       0x42 cmd/built-in.o
                                         0x4b (size before relaxing)
 .rodata.do_bootelf.str1.1
                0x000000008784c870       0x4f cmd/built-in.o
                                         0x5c (size before relaxing)
 .rodata.do_bootm.str1.1
                0x000000008784c8bf       0x2a cmd/built-in.o
 .rodata.do_bootm_netbsd.str1.1
                0x000000008784c8e9       0x49 common/built-in.o
                                         0x4a (size before relaxing)
 .rodata.do_bootm_plan9.str1.1
                0x000000008784c932       0x43 common/built-in.o
 .rodata.do_bootm_qnxelf.str1.1
                0x000000008784c975        0x4 common/built-in.o
 .rodata.do_bootm_rtems.str1.1
                0x000000008784c975       0x39 common/built-in.o
 .rodata.do_bootm_standalone.str1.1
                0x000000008784c9ae       0x16 common/built-in.o
 .rodata.do_bootm_states.str1.1
                0x000000008784c9ae      0x275 common/built-in.o
                                        0x2f1 (size before relaxing)
 .rodata.do_bootm_vxworks.str1.1
                0x000000008784cc23       0x93 common/built-in.o
                                         0xba (size before relaxing)
 .rodata.do_bootvx.str1.1
                0x000000008784ccb6      0x1b8 cmd/built-in.o
                                        0x1d0 (size before relaxing)
 .rodata.do_coninfo.str1.1
                0x000000008784ce6e       0x2c cmd/built-in.o
                                         0x30 (size before relaxing)
 .rodata.do_data_abort.str1.1
                0x000000008784ce9a        0xc arch/arm/lib/built-in.o
 .rodata.do_dcache.str1.1
                0x000000008784cea6       0x21 cmd/built-in.o
 .rodata.do_dev.str1.1
                0x000000008784cec7       0x4f cmd/built-in.o
 .rodata.do_echo.str1.1
                0x000000008784cf16        0x3 cmd/built-in.o
 .rodata.do_env_default.str1.1
                0x000000008784cf19       0x25 cmd/built-in.o
 .rodata.do_env_edit.part.0.str1.1
                0x000000008784cf3e        0x7 cmd/built-in.o
                                          0xa (size before relaxing)
 .rodata.do_env_export.str1.1
                0x000000008784cf45       0x6b cmd/built-in.o
                                         0x74 (size before relaxing)
 .rodata.do_env_import.str1.1
                0x000000008784cfb0      0x139 cmd/built-in.o
                                        0x13b (size before relaxing)
 .rodata.do_env_print.str1.1
                0x000000008784d0e9       0x3d cmd/built-in.o
 .rodata.do_fastboot.str1.1
                0x000000008784d126       0xc2 cmd/built-in.o
                                         0xc6 (size before relaxing)
 .rodata.do_fat_fsinfo.str1.1
                0x000000008784d1e8       0x56 cmd/built-in.o
 .rodata.do_fat_fswrite.str1.1
                0x000000008784d23e       0x6b cmd/built-in.o
 .rodata.do_fdt.str1.1
                0x000000008784d2a9      0x48c cmd/built-in.o
                                        0x4e8 (size before relaxing)
 .rodata.do_fiq.str1.1
                0x000000008784d735       0x18 arch/arm/lib/built-in.o
 .rodata.do_fixup_by_path.str1.1
                0x000000008784d74d       0x29 common/built-in.o
 .rodata.do_fs_uuid.str1.1
                0x000000008784d74d        0x4 fs/built-in.o
 .rodata.do_fuse.str1.1
                0x000000008784d74d      0x198 cmd/built-in.o
                                        0x1a4 (size before relaxing)
 .rodata.do_go.str1.1
                0x000000008784d8e5       0x4f cmd/built-in.o
 .rodata.do_gpio.str1.1
                0x000000008784d934       0xc4 cmd/built-in.o
                                         0xd2 (size before relaxing)
 .rodata.do_gpt.str1.1
                0x000000008784d9f8      0x197 cmd/built-in.o
                                        0x1cb (size before relaxing)
 .rodata.do_i2c_bus_num.str1.1
                0x000000008784db8f       0x48 cmd/built-in.o
 .rodata.do_i2c_bus_speed.str1.1
                0x000000008784dbd7       0x53 cmd/built-in.o
 .rodata.do_i2c_crc.str1.1
                0x000000008784dc2a       0x1f cmd/built-in.o
                                         0x26 (size before relaxing)
 .rodata.do_i2c_md.str1.1
                0x000000008784dc49        0xc cmd/built-in.o
                                         0x16 (size before relaxing)
 .rodata.do_i2c_olen.str1.1
                0x000000008784dc55       0x1f cmd/built-in.o
                                         0x23 (size before relaxing)
 .rodata.do_i2c_probe.str1.1
                0x000000008784dc74       0x1c cmd/built-in.o
 .rodata.do_i2c_reset.str1.1
                0x000000008784dc90       0x24 cmd/built-in.o
 .rodata.do_i2c_show_bus.str1.1
                0x000000008784dcb4       0x18 cmd/built-in.o
 .rodata.do_i2c_write.str1.1
                0x000000008784dccc        0x3 cmd/built-in.o
 .rodata.do_icache.str1.1
                0x000000008784dccf       0x1d cmd/built-in.o
                                         0x20 (size before relaxing)
 .rodata.do_imgextract.str1.1
                0x000000008784dcec      0x148 cmd/built-in.o
                                        0x1ac (size before relaxing)
 .rodata.do_irq.str1.1
                0x000000008784de34       0x18 arch/arm/lib/built-in.o
                                         0x13 (size before relaxing)
 .rodata.do_itest.str1.1
                0x000000008784de34       0x1e cmd/built-in.o
 .rodata.do_list.str1.1
                0x000000008784de52       0x24 cmd/built-in.o
                                         0x2b (size before relaxing)
 .rodata.do_load.str1.1
                0x000000008784de76       0x6d fs/built-in.o
                                         0x90 (size before relaxing)
 .rodata.do_load_serial.str1.1
                0x000000008784dee3       0x6b cmd/built-in.o
 .rodata.do_load_serial_bin.str1.1
                0x000000008784df4e      0x159 cmd/built-in.o
 .rodata.do_ls.str1.1
                0x000000008784e0a7        0x2 fs/built-in.o
 .rodata.do_mem_base.str1.1
                0x000000008784e0a7       0x17 cmd/built-in.o
 .rodata.do_mem_cmp.str1.1
                0x000000008784e0be       0x6e cmd/built-in.o
                                         0x73 (size before relaxing)
 .rodata.do_mem_cp.str1.1
                0x000000008784e12c       0x11 cmd/built-in.o
 .rodata.do_mem_crc.str1.1
                0x000000008784e13d        0x6 cmd/built-in.o
 .rodata.do_mem_mtest.str1.1
                0x000000008784e13d       0xd4 cmd/built-in.o
                                         0xd5 (size before relaxing)
 .rodata.do_mkdir.str1.1
                0x000000008784e211       0x29 fs/built-in.o
 .rodata.do_mmc_boot_resize.str1.1
                0x000000008784e23a       0x83 cmd/built-in.o
 .rodata.do_mmc_bootbus.str1.1
                0x000000008784e2bd       0x24 cmd/built-in.o
 .rodata.do_mmc_dev.str1.1
                0x000000008784e2e1       0x80 cmd/built-in.o
                                         0x89 (size before relaxing)
 .rodata.do_mmc_erase.str1.1
                0x000000008784e361       0x67 cmd/built-in.o
 .rodata.do_mmc_hwpartition.str1.1
                0x000000008784e3c8      0x126 cmd/built-in.o
                                        0x142 (size before relaxing)
 .rodata.do_mmc_part.str1.1
                0x000000008784e4ee       0x15 cmd/built-in.o
 .rodata.do_mmc_partconf.str1.1
                0x000000008784e503       0xac cmd/built-in.o
 .rodata.do_mmc_read.str1.1
                0x000000008784e5af       0x43 cmd/built-in.o
 .rodata.do_mmc_rst_func.str1.1
                0x000000008784e5f2       0x40 cmd/built-in.o
 .rodata.do_mmc_setdsr.str1.1
                0x000000008784e632       0x1d cmd/built-in.o
 .rodata.do_mmc_write.str1.1
                0x000000008784e64f       0x47 cmd/built-in.o
 .rodata.do_mmcinfo.str1.1
                0x000000008784e696      0x134 cmd/built-in.o
                                        0x186 (size before relaxing)
 .rodata.do_mmcops.str1.1
                0x000000008784e7ca       0x19 cmd/built-in.o
 .rodata.do_mx6_showclocks.str1.1
                0x000000008784e7e3      0x140 arch/arm/mach-imx/built-in.o
                                        0x142 (size before relaxing)
 .rodata.do_not_used.str1.1
                0x000000008784e923        0xa arch/arm/lib/built-in.o
 .rodata.do_ping.str1.1
                0x000000008784e92d       0x35 cmd/built-in.o
 .rodata.do_prefetch_abort.str1.1
                0x000000008784e962       0x10 arch/arm/lib/built-in.o
 .rodata.do_random.str1.1
                0x000000008784e972       0x6d cmd/built-in.o
 .rodata.do_raw_read.str1.1
                0x000000008784e9df       0x5c cmd/built-in.o
                                         0x7e (size before relaxing)
 .rodata.do_reset.str1.1
                0x000000008784ea3b        0xf arch/arm/lib/built-in.o
 .rodata.do_run.str1.1
                0x000000008784ea4a       0x1c common/built-in.o
 .rodata.do_save.str1.1
                0x000000008784ea4a       0x1d fs/built-in.o
 .rodata.do_setexpr.str1.1
                0x000000008784ea67       0x11 cmd/built-in.o
                                         0x15 (size before relaxing)
 .rodata.do_showvar.str1.1
                0x000000008784ea78        0xc common/built-in.o
                                         0x2f (size before relaxing)
 .rodata.do_size.str1.1
                0x000000008784ea84        0x9 fs/built-in.o
 .rodata.do_software_interrupt.str1.1
                0x000000008784ea84       0x14 arch/arm/lib/built-in.o
 .rodata.do_source.str1.1
                0x000000008784ea98       0x1e cmd/built-in.o
 .rodata.do_spi_flash.str1.1
                0x000000008784eab6      0x1ad cmd/built-in.o
                                        0x1de (size before relaxing)
 .rodata.do_status.str1.1
                0x000000008784ec63       0x21 cmd/built-in.o
                                         0x45 (size before relaxing)
 .rodata.do_undefined_instruction.str1.1
                0x000000008784ec84       0x17 arch/arm/lib/built-in.o
 .rodata.do_usb.str1.1
                0x000000008784ec9b      0x279 cmd/built-in.o
                                        0x293 (size before relaxing)
 .rodata.do_usb_mass_storage.str1.1
                0x000000008784ef14      0x123 cmd/built-in.o
                                        0x151 (size before relaxing)
 .rodata.do_usbboot.str1.1
                0x000000008784f037        0x4 cmd/built-in.o
 .rodata.do_version.str1.1
                0x000000008784f037       0xd1 cmd/built-in.o
 .rodata.do_write.str1.1
                0x000000008784f108       0x18 drivers/usb/gadget/built-in.o
 .rodata.download.str1.1
                0x000000008784f120       0x5b drivers/built-in.o
                                         0x5e (size before relaxing)
 .rodata.dp_unknown.str1.1
                0x000000008784f17b       0x13 lib/built-in.o
 .rodata.efi_bl_bind.str1.1
                0x000000008784f18e       0x12 lib/built-in.o
 .rodata.efi_bootmgr_load.str1.1
                0x000000008784f1a0       0x8b lib/built-in.o
 .rodata.efi_console_register.str1.1
                0x000000008784f22b       0x90 lib/built-in.o
                                         0xb8 (size before relaxing)
 .rodata.efi_convert_single_device_node_to_text.str1.1
                0x000000008784f2bb      0x122 lib/built-in.o
                                        0x13b (size before relaxing)
 .rodata.efi_cout_clear_screen.str1.1
                0x000000008784f3dd        0xb lib/built-in.o
 .rodata.efi_cout_enable_cursor.str1.1
                0x000000008784f3e8        0x8 lib/built-in.o
 .rodata.efi_cout_set_attribute.str1.1
                0x000000008784f3f0       0x17 lib/built-in.o
 .rodata.efi_cout_set_cursor_position.str1.1
                0x000000008784f407        0x9 lib/built-in.o
 .rodata.efi_disk_create_partitions.str1.1
                0x000000008784f410       0x22 lib/built-in.o
 .rodata.efi_disk_register.str1.1
                0x000000008784f432       0x67 lib/built-in.o
 .rodata.efi_dp_from_name.str1.1
                0x000000008784f499        0x4 lib/built-in.o
                                          0x7 (size before relaxing)
 .rodata.efi_driver_init.str1.1
                0x000000008784f49d       0x58 lib/built-in.o
 .rodata.efi_exit.str1.1
                0x000000008784f4f5       0x17 lib/built-in.o
 .rodata.efi_file_from_path.str1.1
                0x000000008784f50c       0x10 lib/built-in.o
 .rodata.efi_free_pages.str1.1
                0x000000008784f51c       0x20 lib/built-in.o
 .rodata.efi_free_pool.str1.1
                0x000000008784f53c       0x17 lib/built-in.o
 .rodata.efi_get_next_variable_name.str1.1
                0x000000008784f553       0x16 lib/built-in.o
 .rodata.efi_get_variable.str1.1
                0x000000008784f569        0x7 lib/built-in.o
                                          0xe (size before relaxing)
 .rodata.efi_gop_register.str1.1
                0x000000008784f570       0x24 lib/built-in.o
                                         0x3a (size before relaxing)
 .rodata.efi_init_obj_list.str1.1
                0x000000008784f594       0x39 lib/built-in.o
 .rodata.efi_install_fdt.str1.1
                0x000000008784f5cd      0x118 cmd/built-in.o
 .rodata.efi_load_pe.str1.1
                0x000000008784f6e5       0xca lib/built-in.o
 .rodata.efi_net_register.str1.1
                0x000000008784f7af       0x6d lib/built-in.o
                                         0x83 (size before relaxing)
 .rodata.efi_print_image_infos.str1.1
                0x000000008784f81c       0x29 lib/built-in.o
                                         0x2b (size before relaxing)
 .rodata.efi_reserve_memory.str1.1
                0x000000008784f845       0x34 cmd/built-in.o
 .rodata.efi_set_code_and_data_type.str1.1
                0x000000008784f879       0x1c lib/built-in.o
 .rodata.efi_set_variable.str1.1
                0x000000008784f895       0x17 lib/built-in.o
                                         0x1d (size before relaxing)
 .rodata.efi_setup_loaded_image.str1.1
                0x000000008784f8ac       0x36 lib/built-in.o
 .rodata.efi_to_native.str1.1
                0x000000008784f8e2       0x34 lib/built-in.o
 .rodata.efi_uc_destroy.str1.1
                0x000000008784f916       0x18 lib/built-in.o
 .rodata.efi_uc_init.str1.1
                0x000000008784f92e       0x1e lib/built-in.o
 .rodata.efi_uc_stop.str1.1
                0x000000008784f94c       0x1d lib/built-in.o
 .rodata.efi_watchdog_register.str1.1
                0x000000008784f969       0x4f lib/built-in.o
 .rodata.efi_watchdog_timer_notify.str1.1
                0x000000008784f9b8       0x18 lib/built-in.o
 .rodata.ehci_disable_async.part.0.str1.1
                0x000000008784f9d0       0x21 drivers/usb/host/built-in.o
 .rodata.ehci_register.str1.1
                0x000000008784f9f1       0x26 drivers/usb/host/built-in.o
 .rodata.ehci_shutdown.str1.1
                0x000000008784fa17       0x2b drivers/usb/host/built-in.o
 .rodata.ehci_submit_async.str1.1
                0x000000008784fa42       0x94 drivers/usb/host/built-in.o
 .rodata.ehci_submit_control_msg.str1.1
                0x000000008784fad6       0x16 drivers/usb/host/built-in.o
 .rodata.ehci_submit_int_msg.str1.1
                0x000000008784faec       0x24 drivers/usb/host/built-in.o
 .rodata.ehci_td_buffer.str1.1
                0x000000008784fb10       0x29 drivers/usb/host/built-in.o
 .rodata.ehci_usb_ofdata_to_platdata.str1.1
                0x000000008784fb39        0x7 drivers/usb/host/built-in.o
 .rodata.ehci_usb_probe.str1.1
                0x000000008784fb40        0xc drivers/usb/host/built-in.o
                                         0x3a (size before relaxing)
 .rodata.emit.str1.1
                0x000000008784fb4c       0x1f lib/built-in.o
 .rodata.enable_lcdif_clock.str1.1
                0x000000008784fb6b       0x16 arch/arm/mach-imx/built-in.o
 .rodata.enable_periodic.isra.0.str1.1
                0x000000008784fb81       0x32 drivers/usb/host/built-in.o
 .rodata.enable_pll_video.constprop.0.str1.1
                0x000000008784fbb3       0x24 arch/arm/mach-imx/built-in.o
 .rodata.env_callback_init.str1.1
                0x000000008784fbd7        0xb env/built-in.o
 .rodata.env_complete.str1.1
                0x000000008784fbe2        0x7 env/built-in.o
                                         0x10 (size before relaxing)
 .rodata.env_export.str1.1
                0x000000008784fbe9       0x3d env/built-in.o
                                         0x27 (size before relaxing)
 .rodata.env_flags_init.str1.1
                0x000000008784fbe9        0x7 env/built-in.o
 .rodata.env_flags_parse_varaccess.str1.1
                0x000000008784fbf0       0x3d env/built-in.o
 .rodata.env_flags_parse_vartype.str1.1
                0x000000008784fc2d       0x34 env/built-in.o
 .rodata.env_flags_validate.str1.1
                0x000000008784fc61       0xb2 env/built-in.o
                                         0xb3 (size before relaxing)
 .rodata.env_flags_varaccess_rep
                0x000000008784fd13        0x5 env/built-in.o
 .rodata.env_flags_vartype_rep
                0x000000008784fd18        0x7 env/built-in.o
 .rodata.env_get_bootm_low.str1.1
                0x000000008784fd1f        0xa common/built-in.o
 .rodata.env_get_bootm_mapsize.str1.1
                0x000000008784fd29        0xe common/built-in.o
 .rodata.env_get_bootm_size.str1.1
                0x000000008784fd37        0xb common/built-in.o
 .rodata.env_get_f.str1.1
                0x000000008784fd42       0x30 cmd/built-in.o
 .rodata.env_import.str1.1
                0x000000008784fd72       0x3d env/built-in.o
 .rodata.env_load.str1.1
                0x000000008784fdaf       0x20 env/built-in.o
                                         0x24 (size before relaxing)
 .rodata.env_mmc_load.str1.1
                0x000000008784fdcf        0xd env/built-in.o
 .rodata.env_mmc_save.str1.1
                0x000000008784fddc       0x19 env/built-in.o
                                         0x26 (size before relaxing)
 .rodata.env_print.str1.1
                0x000000008784fdf5       0x25 cmd/built-in.o
                                         0x2c (size before relaxing)
 .rodata.env_save.str1.1
                0x000000008784fe1a       0x2a env/built-in.o
 .rodata.env_set.str1.1
                0x000000008784fe44        0x7 cmd/built-in.o
 .rodata.env_set_default.str1.1
                0x000000008784fe4b       0x2e env/built-in.o
                                         0x5f (size before relaxing)
 .rodata.env_set_hex.str1.1
                0x000000008784fe79        0x4 cmd/built-in.o
 .rodata.erase_seq
                0x000000008784fe7d        0x4 common/built-in.o
 .rodata.eth_current_changed.str1.1
                0x000000008784fe81       0x14 net/built-in.o
 .rodata.eth_env_get_enetaddr_by_index.str1.1
                0x000000008784fe81       0x10 net/built-in.o
 .rodata.eth_env_set_enetaddr.str1.1
                0x000000008784fe91        0x4 cmd/built-in.o
 .rodata.eth_get_name.str1.1
                0x000000008784fe95        0x8 net/built-in.o
 .rodata.eth_init.str1.1
                0x000000008784fe95       0x11 net/built-in.o
                                         0x28 (size before relaxing)
 .rodata.eth_initialize.str1.1
                0x000000008784fea6       0x1c net/built-in.o
                                         0x1f (size before relaxing)
 .rodata.eth_mac_skip.str1.1
                0x000000008784fec2       0x18 net/built-in.o
 .rodata.eth_phy_binds_nodes.str1.1
                0x000000008784feda       0x19 drivers/net/built-in.o
 .rodata.eth_phy_get_mdio_bus.str1.1
                0x000000008784fef3       0x61 drivers/net/built-in.o
 .rodata.eth_post_bind.str1.1
                0x000000008784ff54       0x2b net/built-in.o
 .rodata.eth_post_probe.str1.1
                0x000000008784ff7f       0xaf net/built-in.o
                                         0xd1 (size before relaxing)
 .rodata.eth_set_current.str1.1
                0x000000008785002e        0x9 net/built-in.o
 .rodata.eth_write_hwaddr.str1.1
                0x000000008785002e       0x4e net/built-in.o
 .rodata.ext4_read_file.str1.1
                0x000000008785007c       0x19 fs/built-in.o
 .rodata.ext4_write_file.str1.1
                0x0000000087850095       0x42 fs/built-in.o
 .rodata.ext4fs_allocate_blocks.str1.1
                0x00000000878500d7       0x61 fs/built-in.o
 .rodata.ext4fs_check_journal_state.str1.1
                0x0000000087850138       0x2e fs/built-in.o
 .rodata.ext4fs_filename_unlink.str1.1
                0x0000000087850166       0x16 fs/built-in.o
 .rodata.ext4fs_get_bgdtable.str1.1
                0x000000008785017c       0x19 fs/built-in.o
 .rodata.ext4fs_get_parent_inode_num.str1.1
                0x0000000087850195       0x3e fs/built-in.o
                                         0x40 (size before relaxing)
 .rodata.ext4fs_init.str1.1
                0x00000000878501d3       0x33 fs/built-in.o
 .rodata.ext4fs_iterate_dir.str1.1
                0x0000000087850206       0x43 fs/built-in.o
                                         0x4a (size before relaxing)
 .rodata.ext4fs_log_journal.str1.1
                0x0000000087850249       0x1c fs/built-in.o
 .rodata.ext4fs_ls.str1.1
                0x0000000087850265       0x1f fs/built-in.o
 .rodata.ext4fs_mount.str1.1
                0x0000000087850284       0x24 fs/built-in.o
 .rodata.ext4fs_push_revoke_blk.str1.1
                0x00000000878502a8       0x2e fs/built-in.o
 .rodata.ext4fs_update_journal.str1.1
                0x00000000878502d6       0x19 fs/built-in.o
 .rodata.ext4fs_update_parent_dentry.str1.1
                0x00000000878502ef       0x86 fs/built-in.o
 .rodata.ext4fs_write.str1.1
                0x0000000087850375       0xaf fs/built-in.o
 .rodata.extract_env.str1.1
                0x0000000087850424        0x3 cmd/built-in.o
 .rodata.extract_val.str1.1
                0x0000000087850427        0x4 cmd/built-in.o
 .rodata.fastboot_add.str1.1
                0x0000000087850427        0xb drivers/usb/gadget/built-in.o
 .rodata.fastboot_bind.str1.1
                0x0000000087850432        0x8 drivers/usb/gadget/built-in.o
 .rodata.fastboot_boot.str1.1
                0x0000000087850432       0x2c drivers/built-in.o
                                         0x31 (size before relaxing)
 .rodata.fastboot_complete.str1.1
                0x000000008785045e       0x1e drivers/usb/gadget/built-in.o
 .rodata.fastboot_data_complete.str1.1
                0x000000008785047c       0x32 drivers/built-in.o
                                         0x3b (size before relaxing)
 .rodata.fastboot_data_download.str1.1
                0x00000000878504ae       0x1d drivers/built-in.o
 .rodata.fastboot_fail.str1.1
                0x00000000878504cb        0x5 drivers/built-in.o
                                          0x8 (size before relaxing)
 .rodata.fastboot_fifo_complete.str1.1
                0x00000000878504d0       0x13 drivers/usb/gadget/built-in.o
 .rodata.fastboot_flash_dump_ptn.str1.1
                0x00000000878504e3       0x2a drivers/built-in.o
 .rodata.fastboot_getvar.str1.1
                0x000000008785050d      0x143 drivers/built-in.o
                                        0x147 (size before relaxing)
 .rodata.fastboot_handle_command.str1.1
                0x0000000087850650       0x31 drivers/built-in.o
                                         0x35 (size before relaxing)
 .rodata.fastboot_init.str1.1
                0x0000000087850681       0x10 drivers/built-in.o
 .rodata.fastboot_name
                0x0000000087850691       0x11 drivers/usb/gadget/built-in.o
 .rodata.fastboot_okay.str1.1
                0x00000000878506a2        0x5 drivers/built-in.o
 .rodata.fastboot_parts_get_name.str1.1
                0x00000000878506a7        0x6 drivers/built-in.o
 .rodata.fastboot_parts_is_raw.str1.1
                0x00000000878506ad        0x5 drivers/built-in.o
                                          0xa (size before relaxing)
 .rodata.fastboot_process_erase.str1.1
                0x00000000878506b2      0x16f drivers/built-in.o
                                        0x192 (size before relaxing)
 .rodata.fastboot_run_bootmode.str1.1
                0x0000000087850821       0x12 drivers/built-in.o
 .rodata.fastboot_set_alt.str1.1
                0x0000000087850833       0x5f drivers/usb/gadget/built-in.o
 .rodata.fastboot_setup.str1.1
                0x0000000087850892       0x26 drivers/built-in.o
 .rodata.fastboot_tx_write_more.str1.1
                0x0000000087850892       0x2a drivers/usb/gadget/built-in.o
 .rodata.fastboot_unbind.str1.1
                0x00000000878508bc        0x9 drivers/usb/gadget/built-in.o
 .rodata.fat_itr_resolve.str1.1
                0x00000000878508bc        0xa fs/built-in.o
                                          0x5 (size before relaxing)
 .rodata.fat_itr_root.str1.1
                0x00000000878508bc       0x85 fs/built-in.o
 .rodata.fat_mkdir.str1.1
                0x0000000087850941       0x26 fs/built-in.o
                                         0x2a (size before relaxing)
 .rodata.fat_read_file.str1.1
                0x0000000087850967       0x1e fs/built-in.o
 .rodata.fat_set_blk_dev.str1.1
                0x0000000087850985        0x3 fs/built-in.o
                                          0xd (size before relaxing)
 .rodata.fat_unlink.str1.1
                0x0000000087850988       0x8b fs/built-in.o
                                         0x8c (size before relaxing)
 .rodata.fdt_address_cells.str1.1
                0x0000000087850a13        0xf lib/built-in.o
 .rodata.fdt_chosen.str1.1
                0x0000000087850a22       0x35 common/built-in.o
                                         0x3e (size before relaxing)
 .rodata.fdt_error.str1.1
                0x0000000087850a57       0x2d common/built-in.o
 .rodata.fdt_find_or_add_subnode.str1.1
                0x0000000087850a84        0xc common/built-in.o
 .rodata.fdt_fixup_esdhc.str1.1
                0x0000000087850a90        0xa drivers/built-in.o
                                         0x1a (size before relaxing)
 .rodata.fdt_fixup_ethernet.str1.1
                0x0000000087850a9a       0x2e common/built-in.o
                                         0x42 (size before relaxing)
 .rodata.fdt_fixup_memory_banks.str1.1
                0x0000000087850ac8       0x81 common/built-in.o
                                         0x94 (size before relaxing)
 .rodata.fdt_get_alias_namelen.str1.1
                0x0000000087850b49        0x9 lib/built-in.o
 .rodata.fdt_get_phandle.str1.1
                0x0000000087850b49        0xe lib/built-in.o
                                         0x16 (size before relaxing)
 .rodata.fdt_initrd.str1.1
                0x0000000087850b57       0x90 common/built-in.o
                                         0x97 (size before relaxing)
 .rodata.fdt_root.str1.1
                0x0000000087850be7       0x4e common/built-in.o
 .rodata.fdt_size_cells.str1.1
                0x0000000087850c35        0xc lib/built-in.o
 .rodata.fdt_strerror.str1.1
                0x0000000087850c35       0x31 lib/built-in.o
 .rodata.fdt_support_default_count_cells.str1.1
                0x0000000087850c66        0xc common/built-in.o
 .rodata.fdt_translate_address.str1.1
                0x0000000087850c72        0x7 common/built-in.o
 .rodata.fdt_valid.str1.1
                0x0000000087850c79       0x79 cmd/built-in.o
                                         0x7b (size before relaxing)
 .rodata.fdtdec_add_aliases_for_id.str1.1
                0x0000000087850cf2        0x9 lib/built-in.o
 .rodata.fdtdec_get_config_int.str1.1
                0x0000000087850cf2        0x8 lib/built-in.o
 .rodata.fdtdec_get_is_enabled.str1.1
                0x0000000087850cfa        0x5 lib/built-in.o
                                          0xc (size before relaxing)
 .rodata.fdtdec_prepare_fdt.str1.1
                0x0000000087850cff       0x96 lib/built-in.o
 .rodata.fdtdec_setup.str1.1
                0x0000000087850d95        0xf lib/built-in.o
 .rodata.fec_get_miibus.str1.1
                0x0000000087850d95       0x33 drivers/net/built-in.o
 .rodata.fec_mii_setspeed.isra.0.str1.1
                0x0000000087850dc8       0x1e drivers/net/built-in.o
 .rodata.fec_phy_read.str1.1
                0x0000000087850de6       0x15 drivers/net/built-in.o
 .rodata.fec_phy_write.str1.1
                0x0000000087850dfb       0x16 drivers/net/built-in.o
 .rodata.fecmxc_init.str1.1
                0x0000000087850e11       0x1d drivers/net/built-in.o
 .rodata.fecmxc_ofdata_to_platdata.str1.1
                0x0000000087850e2e       0xb0 drivers/net/built-in.o
 .rodata.fecmxc_probe.str1.1
                0x0000000087850ede       0xb2 drivers/net/built-in.o
                                         0xc1 (size before relaxing)
 .rodata.fecmxc_recv.str1.1
                0x0000000087850f90       0x33 drivers/net/built-in.o
 .rodata.fecmxc_send.str1.1
                0x0000000087850fc3       0x18 drivers/net/built-in.o
 .rodata.file_fat_detectfs.str1.1
                0x0000000087850fdb       0x64 fs/built-in.o
                                         0x84 (size before relaxing)
 .rodata.file_fat_read_at.str1.1
                0x000000008785103f       0x2a fs/built-in.o
 .rodata.file_fat_write_at.str1.1
                0x0000000087851069       0xa7 fs/built-in.o
 .rodata.file_get.str1.1
                0x0000000087851110       0x1e common/built-in.o
                                          0x7 (size before relaxing)
 .rodata.file_open.str1.1
                0x0000000087851110        0xa lib/built-in.o
                                          0xb (size before relaxing)
 .rodata.find_mmc_device.str1.1
                0x000000008785111a       0x19 drivers/built-in.o
 .rodata.find_valid_gpt.str1.1
                0x0000000087851133       0x27 disk/built-in.o
 .rodata.finish_access.str1.1
                0x000000008785115a       0x26 drivers/built-in.o
 .rodata.fixed_regulator_ofdata_to_platdata.str1.1
                0x0000000087851180        0x5 drivers/power/regulator/built-in.o
 .rodata.flash.str1.1
                0x0000000087851180       0x17 drivers/built-in.o
 .rodata.fs_devread.str1.1
                0x0000000087851197       0x98 fs/built-in.o
 .rodata.fs_ln.str1.1
                0x000000008785122f       0x26 fs/built-in.o
 .rodata.fs_ls_generic.str1.1
                0x0000000087851255       0x37 fs/built-in.o
 .rodata.fs_probe_unsupported.str1.1
                0x000000008785128c       0x24 fs/built-in.o
 .rodata.fs_write.str1.1
                0x00000000878512b0       0x1f fs/built-in.o
 .rodata.fsg_add.str1.1
                0x00000000878512cf       0x5b drivers/usb/gadget/built-in.o
 .rodata.fsg_main_thread.str1.1
                0x000000008785132a        0xe drivers/usb/gadget/built-in.o
 .rodata.fsg_setup.str1.1
                0x0000000087851338        0x8 drivers/usb/gadget/built-in.o
 .rodata.fsg_string_interface
                0x0000000087851338        0xd drivers/usb/gadget/built-in.o
 .rodata.fsl_esdhc_probe.str1.1
                0x0000000087851345      0x124 drivers/built-in.o
                                        0x153 (size before relaxing)
 .rodata.fsl_esdhc_send_cmd.str1.1
                0x0000000087851469       0xb8 drivers/built-in.o
 .rodata.fsl_qspi_ofdata_to_platdata.str1.1
                0x0000000087851521       0x33 drivers/spi/built-in.o
                                         0x49 (size before relaxing)
 .rodata.fsl_qspi_probe.str1.1
                0x0000000087851554       0x40 drivers/spi/built-in.o
 .rodata.ft_system_setup.str1.1
                0x0000000087851594       0x69 arch/arm/mach-imx/built-in.o
 .rodata.fuse_sense.str1.1
                0x00000000878515fd       0x28 drivers/built-in.o
 .rodata.g_dnl_bind.str1.1
                0x0000000087851625        0xb drivers/usb/gadget/built-in.o
                                         0x12 (size before relaxing)
 .rodata.g_dnl_register.str1.1
                0x0000000087851630       0x18 drivers/usb/gadget/built-in.o
 .rodata.gen_74x164_probe.str1.1
                0x0000000087851648       0x30 drivers/gpio/built-in.o
 .rodata.genimg_get_arch_name.str1.1
                0x0000000087851678       0x15 common/built-in.o
 .rodata.genimg_get_comp_name.str1.1
                0x000000008785168d       0x14 common/built-in.o
 .rodata.genimg_get_os_name.str1.1
                0x00000000878516a1        0xb common/built-in.o
 .rodata.genimg_get_type_name.str1.1
                0x00000000878516ac        0xe common/built-in.o
 .rodata.genimg_print_size.str1.1
                0x00000000878516ba        0xc common/built-in.o
                                          0xe (size before relaxing)
 .rodata.genphy_update_link.str1.1
                0x00000000878516c6       0x54 drivers/net/phy/built-in.o
                                         0x56 (size before relaxing)
 .rodata.get_block_size.str1.1
                0x000000008785171a       0x2e drivers/built-in.o
 .rodata.get_current.str1.1
                0x000000008785171a       0x15 drivers/serial/built-in.o
 .rodata.get_descriptor_len.str1.1
                0x000000008785172f       0x64 common/built-in.o
 .rodata.get_fastboot_target_dev.str1.1
                0x0000000087851793       0x57 drivers/built-in.o
                                         0x62 (size before relaxing)
 .rodata.get_fatent.str1.1
                0x00000000878517ea       0x22 fs/built-in.o
 .rodata.get_gpt_info.str1.1
                0x000000008785180c       0x21 cmd/built-in.o
 .rodata.get_imx_type.str1.1
                0x000000008785182d       0xed arch/arm/mach-imx/built-in.o
 .rodata.get_local_var.str1.1
                0x000000008785191a        0x5 common/built-in.o
                                          0x3 (size before relaxing)
 .rodata.get_phy_device_by_mask.str1.1
                0x000000008785191a       0x3f drivers/net/phy/built-in.o
 .rodata.get_reset_cause.str1.1
                0x0000000087851959       0x52 arch/arm/mach-imx/built-in.o
 .rodata.get_serial.str1.1
                0x00000000878519ab        0x9 drivers/built-in.o
 .rodata.get_single_var.str1.1
                0x00000000878519ab      0x21a drivers/built-in.o
                                        0x23e (size before relaxing)
 .rodata.gpio_direction_input.str1.1
                0x0000000087851bc5        0xa drivers/gpio/built-in.o
 .rodata.gpio_direction_output.str1.1
                0x0000000087851bcf        0xb drivers/gpio/built-in.o
 .rodata.gpio_get_description.str1.1
                0x0000000087851bda        0xa cmd/built-in.o
                                         0x18 (size before relaxing)
 .rodata.gpio_get_status.str1.1
                0x0000000087851be4       0x17 drivers/gpio/built-in.o
                                         0x19 (size before relaxing)
 .rodata.gpio_regulator_ofdata_to_platdata.str1.1
                0x0000000087851bfb        0x7 drivers/power/regulator/built-in.o
                                         0x1a (size before relaxing)
 .rodata.gpio_regulator_set_value.str1.1
                0x0000000087851c02       0x26 drivers/power/regulator/built-in.o
 .rodata.gpio_request_tail.str1.1
                0x0000000087851c02        0x8 drivers/gpio/built-in.o
                                          0xe (size before relaxing)
 .rodata.gpt_fill_header.str1.1
                0x0000000087851c0a       0x24 disk/built-in.o
 .rodata.gpt_fill_pte.str1.1
                0x0000000087851c2e       0x5b disk/built-in.o
 .rodata.gpt_verify_headers.str1.1
                0x0000000087851c89       0x20 disk/built-in.o
 .rodata.gpt_verify_partitions.str1.1
                0x0000000087851ca9       0xa3 disk/built-in.o
 .rodata.gzip_parse_header.str1.1
                0x0000000087851d4c       0x3e lib/built-in.o
 .rodata.hang.str1.1
                0x0000000087851d8a       0x2a lib/built-in.o
 .rodata.hash_command.str1.1
                0x0000000087851db4       0x25 common/built-in.o
 .rodata.hex_asc
                0x0000000087851dd9       0x11 lib/built-in.o
                0x0000000087851dd9                hex_asc
 .rodata.hexport_r.str1.1
                0x0000000087851dea       0x30 lib/built-in.o
 .rodata.himport_r.str1.1
                0x0000000087851e1a       0x99 lib/built-in.o
 .rodata.i2c_chip_ofdata_to_platdata.str1.1
                0x0000000087851eb3       0x16 drivers/i2c/built-in.o
                                         0x1a (size before relaxing)
 .rodata.i2c_deblock.str1.1
                0x0000000087851ec9       0x20 drivers/i2c/built-in.o
                                         0x13 (size before relaxing)
 .rodata.i2c_get_chip.str1.1
                0x0000000087851ec9       0x20 drivers/i2c/built-in.o
 .rodata.i2c_get_cur_bus.str1.1
                0x0000000087851ee9       0x15 cmd/built-in.o
 .rodata.i2c_idle_bus.str1.1
                0x0000000087851efe       0x28 drivers/i2c/built-in.o
                                         0x35 (size before relaxing)
 .rodata.i2c_imx_stop.str1.1
                0x0000000087851f26       0x18 drivers/i2c/built-in.o
 .rodata.i2c_init_transfer.constprop.0.str1.1
                0x0000000087851f3e       0x3f drivers/i2c/built-in.o
 .rodata.i2c_post_probe.str1.1
                0x0000000087851f7d       0x10 drivers/i2c/built-in.o
 .rodata.i2c_pre_probe.str1.1
                0x0000000087851f7d       0x1d drivers/i2c/built-in.o
 .rodata.i2c_uclass_init.str1.1
                0x0000000087851f9a        0x4 drivers/i2c/built-in.o
 .rodata.illegal
                0x0000000087851f9a       0x11 lib/built-in.o
 .rodata.image_decomp.str1.1
                0x0000000087851fab       0x2b common/built-in.o
                                         0x4e (size before relaxing)
 .rodata.image_info.str1.1
                0x0000000087851fd6       0xc4 cmd/built-in.o
 .rodata.image_print_contents.str1.1
                0x000000008785209a       0xd0 common/built-in.o
                                         0xd4 (size before relaxing)
 .rodata.image_setup_libfdt.str1.1
                0x000000008785216a       0xbc common/built-in.o
 .rodata.image_source_script.str1.1
                0x0000000087852226       0x7e cmd/built-in.o
 .rodata.imx_pinctrl_probe.str1.1
                0x00000000878522a4       0x58 drivers/built-in.o
                                         0x5c (size before relaxing)
 .rodata.imx_pinctrl_set_state.str1.1
                0x00000000878522fc       0x84 drivers/built-in.o
 .rodata.imx_thermal_get_temp.str1.1
                0x0000000087852380       0x3a drivers/built-in.o
 .rodata.inflate.str1.1
                0x00000000878523ba      0x158 lib/built-in.o
 .rodata.inflate_fast.str1.1
                0x0000000087852512       0x50 lib/built-in.o
 .rodata.init_baud_rate.str1.1
                0x0000000087852562        0x9 common/built-in.o
 .rodata.init_mmc_device.str1.1
                0x000000008785256b       0x1a cmd/built-in.o
 .rodata.init_mmc_for_env.str1.1
                0x0000000087852585       0x5b env/built-in.o
 .rodata.initr_env.str1.1
                0x00000000878525e0       0x11 common/built-in.o
                                         0x29 (size before relaxing)
 .rodata.initr_ethaddr.str1.1
                0x00000000878525f1        0x8 common/built-in.o
 .rodata.initr_mmc.str1.1
                0x00000000878525f9        0x8 common/built-in.o
 .rodata.initr_net.str1.1
                0x0000000087852601        0x8 common/built-in.o
 .rodata.insert_var_value_sub.str1.1
                0x0000000087852609        0x6 common/built-in.o
 .rodata.ip_to_string.str1.1
                0x000000008785260f        0xc net/built-in.o
 .rodata.is_gpt_valid.str1.1
                0x000000008785261b       0xea disk/built-in.o
 .rodata.list_sort.str1.1
                0x0000000087852705       0x34 lib/built-in.o
 .rodata.list_videolink.str1.1
                0x0000000087852739       0x2d drivers/built-in.o
                                         0x2f (size before relaxing)
 .rodata.lists_bind_drivers.str1.1
                0x0000000087852766       0x1a drivers/built-in.o
 .rodata.lists_bind_fdt.str1.1
                0x0000000087852780       0x4a drivers/built-in.o
 .rodata.lmb_alloc_base.str1.1
                0x00000000878527ca       0x34 lib/built-in.o
 .rodata.load_serial.str1.1
                0x00000000878527fe       0x65 cmd/built-in.o
 .rodata.load_serial_ymodem.str1.1
                0x0000000087852863       0x28 cmd/built-in.o
                                         0x35 (size before relaxing)
 .rodata.main_loop.str1.1
                0x000000008785288b       0x11 common/built-in.o
 .rodata.manufacturer
                0x000000008785289c        0x4 drivers/usb/gadget/built-in.o
 .rodata.match.str1.1
                0x00000000878528a0       0x18 lib/built-in.o
 .rodata.match_entry.str1.1
                0x00000000878528b8       0x1b lib/built-in.o
 .rodata.match_string.str1.1
                0x00000000878528b8       0x2c lib/built-in.o
 .rodata.mdio_register.str1.1
                0x00000000878528e4       0x2c common/built-in.o
 .rodata.miiphy_get_dev_by_name.str1.1
                0x0000000087852910       0x13 common/built-in.o
 .rodata.mmc_berase.str1.1
                0x0000000087852923       0x6f drivers/built-in.o
 .rodata.mmc_bind.str1.1
                0x0000000087852992        0x8 drivers/built-in.o
                                          0xc (size before relaxing)
 .rodata.mmc_bread.str1.1
                0x000000008785299a       0x47 drivers/built-in.o
 .rodata.mmc_bwrite.str1.1
                0x00000000878529e1       0x12 drivers/built-in.o
                                         0x59 (size before relaxing)
 .rodata.mmc_get_env_addr.str1.1
                0x00000000878529f3       0x2f env/built-in.o
                                         0x35 (size before relaxing)
 .rodata.mmc_get_env_dev.str1.1
                0x0000000087852a22        0x7 arch/arm/mach-imx/built-in.o
 .rodata.mmc_get_op_cond.str1.1
                0x0000000087852a29       0x42 drivers/built-in.o
 .rodata.mmc_hwpart_config.str1.1
                0x0000000087852a6b      0x19f drivers/built-in.o
 .rodata.mmc_initialize.str1.1
                0x0000000087852c0a       0x17 drivers/built-in.o
 .rodata.mmc_mode_name.str1.1
                0x0000000087852c21        0xd drivers/built-in.o
 .rodata.mmc_of_parse.str1.1
                0x0000000087852c2e      0x121 drivers/built-in.o
                                        0x139 (size before relaxing)
 .rodata.mmc_poll_for_busy.str1.1
                0x0000000087852d4f       0x32 drivers/built-in.o
 .rodata.mmc_power_on.isra.0.str1.1
                0x0000000087852d81       0x1c drivers/built-in.o
 .rodata.mmc_start_init.str1.1
                0x0000000087852d9d       0x16 drivers/built-in.o
 .rodata.mmc_startup.str1.1
                0x0000000087852db3       0x81 drivers/built-in.o
                                         0x87 (size before relaxing)
 .rodata.mod_i2c_mem.isra.0.part.0.str1.1
                0x0000000087852e34       0x21 cmd/built-in.o
                                         0x28 (size before relaxing)
 .rodata.mod_mem.isra.0.part.0.str1.1
                0x0000000087852e55        0xc cmd/built-in.o
                                         0x1d (size before relaxing)
 .rodata.mtd_arg_off.str1.1
                0x0000000087852e61       0x38 cmd/built-in.o
 .rodata.mtd_arg_off_size.str1.1
                0x0000000087852e99       0x71 cmd/built-in.o
 .rodata.multipliers
                0x0000000087852f0a       0x10 drivers/built-in.o
 .rodata.mx6_init_after_reset.str1.1
                0x0000000087852f1a       0x1c drivers/usb/host/built-in.o
                                         0x40 (size before relaxing)
 .rodata.mxc_get_clock.str1.1
                0x0000000087852f36       0x19 arch/arm/mach-imx/built-in.o
 .rodata.mxc_gpio_probe.str1.1
                0x0000000087852f4f        0x8 drivers/gpio/built-in.o
 .rodata.mxc_i2c_probe.str1.1
                0x0000000087852f57       0x65 drivers/i2c/built-in.o
                                         0x73 (size before relaxing)
 .rodata.mxs_set_lcdclk.str1.1
                0x0000000087852fbc       0x34 arch/arm/mach-imx/built-in.o
 .rodata.mxs_video_probe.str1.1
                0x0000000087852ff0      0x142 drivers/built-in.o
                                        0x14a (size before relaxing)
 .rodata.names.9513
                0x0000000087853132        0x6 lib/built-in.o
 .rodata.net_auto_load.str1.1
                0x0000000087853138       0x45 net/built-in.o
 .rodata.net_bcast_ethaddr
                0x000000008785317d        0x6 net/built-in.o
                0x000000008785317d                net_bcast_ethaddr
 .rodata.net_check_prereq.str1.1
                0x0000000087853183       0xbc net/built-in.o
 .rodata.net_loop.str1.1
                0x000000008785323f       0x29 net/built-in.o
                                         0x3b (size before relaxing)
 .rodata.net_null_ethaddr
                0x0000000087853268        0x6 net/built-in.o
                0x0000000087853268                net_null_ethaddr
 .rodata.net_process_received_packet.str1.1
                0x000000008785326e       0x1d net/built-in.o
 .rodata.net_start_again.str1.1
                0x000000008785328b        0xe net/built-in.o
                                         0x15 (size before relaxing)
 .rodata.netboot_common.str1.1
                0x0000000087853299       0x16 cmd/built-in.o
                                         0x53 (size before relaxing)
 .rodata.new_dir_table.str1.1
                0x00000000878532af       0x34 fs/built-in.o
 .rodata.nfs_handler.str1.1
                0x00000000878532e3       0x56 net/built-in.o
 .rodata.nfs_lookup_reply.str1.1
                0x0000000087853339       0x25 net/built-in.o
                                         0x27 (size before relaxing)
 .rodata.nfs_read_reply.str1.1
                0x000000008785335e        0x4 net/built-in.o
 .rodata.nfs_readlink_reply.str1.1
                0x0000000087853362        0x2 net/built-in.o
 .rodata.nfs_start.str1.1
                0x0000000087853362      0x104 net/built-in.o
                                        0x105 (size before relaxing)
 .rodata.nfs_timeout_handler.str1.1
                0x0000000087853466       0x2a net/built-in.o
 .rodata.normalize_longname.str1.1
                0x0000000087853490        0xa fs/built-in.o
 .rodata.ofnode_decode_display_timing.str1.1
                0x000000008785349a       0xca drivers/built-in.o
 .rodata.ofnode_graph_get_next_endpoint.str1.1
                0x0000000087853564        0x6 drivers/built-in.o
                                          0xb (size before relaxing)
 .rodata.ofnode_graph_get_remote_endpoint.str1.1
                0x000000008785356a       0x62 drivers/built-in.o
 .rodata.ofnode_pre_reloc.str1.1
                0x00000000878535cc       0x45 drivers/built-in.o
 .rodata.on_baudrate.str1.1
                0x00000000878535cc       0x42 drivers/serial/built-in.o
                                         0x74 (size before relaxing)
 .rodata.on_callbacks.str1.1
                0x000000008785360e      0x105 env/built-in.o
 .rodata.on_console.str1.1
                0x0000000087853713        0x4 common/built-in.o
                                         0x27 (size before relaxing)
 .rodata.on_flags.str1.1
                0x0000000087853713       0x50 env/built-in.o
 .rodata.parse_argv.str1.1
                0x0000000087853763        0x6 cmd/built-in.o
                                          0xd (size before relaxing)
 .rodata.parse_attr.part.0.str1.1
                0x0000000087853769       0x17 lib/built-in.o
                                         0x26 (size before relaxing)
 .rodata.parse_stream_outer.str1.1
                0x0000000087853780       0x4d common/built-in.o
 .rodata.parse_string_outer.str1.1
                0x00000000878537cd        0x2 common/built-in.o
 .rodata.part_get_info_efi.str1.1
                0x00000000878537cd        0xa disk/built-in.o
 .rodata.part_get_info_extended.str1.1
                0x00000000878537cd        0xa disk/built-in.o
                                         0x11 (size before relaxing)
 .rodata.part_get_info_whole_disk.str1.1
                0x00000000878537d7        0xb disk/built-in.o
                                         0x12 (size before relaxing)
 .rodata.part_print.str1.1
                0x00000000878537e2       0x8e disk/built-in.o
                                         0x97 (size before relaxing)
 .rodata.part_print_dos.str1.1
                0x0000000087853870       0x2a disk/built-in.o
 .rodata.part_print_efi.str1.1
                0x000000008785389a       0x8d disk/built-in.o
 .rodata.part_set_generic_name.str1.1
                0x0000000087853927        0xa disk/built-in.o
 .rodata.phy_connect.str1.1
                0x0000000087853931       0x23 drivers/net/phy/built-in.o
 .rodata.phy_connect_dev.str1.1
                0x0000000087853954       0x2f drivers/net/phy/built-in.o
 .rodata.phy_reset.str1.1
                0x0000000087853983       0x15 drivers/net/phy/built-in.o
 .rodata.pinconfig_post_bind.str1.1
                0x0000000087853998       0x1a drivers/built-in.o
                                         0x25 (size before relaxing)
 .rodata.pinctrl_select_state.str1.1
                0x00000000878539b2       0x31 drivers/built-in.o
 .rodata.ping_start.str1.1
                0x00000000878539e3       0x11 net/built-in.o
 .rodata.prepare_access.str1.1
                0x00000000878539e3       0x22 drivers/built-in.o
 .rodata.print_buffer.str1.1
                0x0000000087853a05        0x6 lib/built-in.o
                                         0x17 (size before relaxing)
 .rodata.print_cpuinfo.str1.1
                0x0000000087853a0b       0xd1 arch/arm/mach-imx/built-in.o
                                         0xef (size before relaxing)
 .rodata.print_data.str1.1
                0x0000000087853adc       0x27 cmd/built-in.o
                                         0x32 (size before relaxing)
 .rodata.print_freq.str1.1
                0x0000000087853b03       0x17 lib/built-in.o
                                         0x1b (size before relaxing)
 .rodata.print_gpt_info.str1.1
                0x0000000087853b1a       0x62 cmd/built-in.o
                                         0x64 (size before relaxing)
 .rodata.print_jrnl_status.str1.1
                0x0000000087853b7c       0x34 fs/built-in.o
 .rodata.print_mmc_devices.str1.1
                0x0000000087853bb0       0x12 drivers/built-in.o
                                         0x1c (size before relaxing)
 .rodata.print_num.str1.1
                0x0000000087853bc2       0x10 cmd/built-in.o
 .rodata.print_partition_extended.str1.1
                0x0000000087853bd2       0xb3 disk/built-in.o
                                         0xb4 (size before relaxing)
 .rodata.print_size.str1.1
                0x0000000087853c85       0x15 lib/built-in.o
 .rodata.process_flash_blkdev.str1.1
                0x0000000087853c9a      0x204 drivers/built-in.o
                                        0x20d (size before relaxing)
 .rodata.product
                0x0000000087853e9e       0x14 drivers/usb/gadget/built-in.o
 .rodata.put_ext4.str1.1
                0x0000000087853eb2       0x42 fs/built-in.o
 .rodata.quantifier.str1.1
                0x0000000087853ef4       0x17 lib/built-in.o
 .rodata.read_allocated_block.str1.1
                0x0000000087853f0b      0x240 fs/built-in.o
 .rodata.read_bootsectandvi.str1.1
                0x000000008785414b       0x1b fs/built-in.o
 .rodata.realloc.str1.1
                0x0000000087854166       0x25 common/built-in.o
 .rodata.regex_callback.str1.1
                0x000000008785418b        0x5 env/built-in.o
                                         0x20 (size before relaxing)
 .rodata.regex_sub.part.0.str1.1
                0x0000000087854190       0xbd cmd/built-in.o
 .rodata.regulator_common_ofdata_to_platdata.str1.1
                0x000000008785424d       0x3b drivers/power/regulator/built-in.o
                                         0x4b (size before relaxing)
 .rodata.regulator_common_set_enable.str1.1
                0x0000000087854288       0x26 drivers/power/regulator/built-in.o
 .rodata.regulator_post_bind.str1.1
                0x00000000878542ae        0xf drivers/power/regulator/built-in.o
 .rodata.regulator_pre_probe.str1.1
                0x00000000878542bd       0xfb drivers/power/regulator/built-in.o
 .rodata.run_acmd.str1.1
                0x00000000878543b8       0x4e drivers/built-in.o
 .rodata.run_list_real.str1.1
                0x0000000087854406       0x45 common/built-in.o
                                         0x4b (size before relaxing)
 .rodata.rx_handler_command.str1.1
                0x000000008785444b       0x10 drivers/usb/gadget/built-in.o
                                         0x1a (size before relaxing)
 .rodata.rx_handler_dl_image.str1.1
                0x000000008785445b       0x10 drivers/usb/gadget/built-in.o
 .rodata.search_dir.str1.1
                0x000000008785446b       0x1b fs/built-in.o
 .rodata.set_contents.str1.1
                0x0000000087854486       0x3b fs/built-in.o
 .rodata.set_gpt_info.isra.0.str1.1
                0x00000000878544c1       0x69 cmd/built-in.o
                                         0x80 (size before relaxing)
 .rodata.set_local_var.str1.1
                0x000000008785452a       0x59 common/built-in.o
 .rodata.set_working_fdt_addr.str1.1
                0x0000000087854583        0x8 cmd/built-in.o
 .rodata.show_board_info.str1.1
                0x000000008785458b       0x11 common/built-in.o
 .rodata.show_bus.str1.1
                0x000000008785459c       0x3f cmd/built-in.o
                                         0x41 (size before relaxing)
 .rodata.show_devices.str1.1
                0x00000000878545db       0x33 drivers/built-in.o
                                         0x3c (size before relaxing)
 .rodata.show_dram_config.str1.1
                0x000000008785460e        0x1 common/built-in.o
 .rodata.show_pinmux.str1.1
                0x000000008785460e       0x6d cmd/built-in.o
 .rodata.show_regs.str1.1
                0x000000008785467b      0x119 arch/arm/lib/built-in.o
                                        0x145 (size before relaxing)
 .rodata.simple_bus_post_bind.str1.1
                0x0000000087854794        0x7 drivers/built-in.o
 .rodata.simple_panel_ofdata_to_platdata.str1.1
                0x0000000087854794       0x1a drivers/built-in.o
                                         0x24 (size before relaxing)
 .rodata.sleep_thread.isra.0.str1.1
                0x00000000878547ae        0xc drivers/usb/gadget/built-in.o
 .rodata.smbios_write_type0.str1.1
                0x00000000878547ba        0xb lib/built-in.o
                                         0x2a (size before relaxing)
 .rodata.smbios_write_type1.str1.1
                0x00000000878547c5        0x8 lib/built-in.o
 .rodata.smbios_write_type2.str1.1
                0x00000000878547c5        0xa lib/built-in.o
 .rodata.smbios_write_type3.str1.1
                0x00000000878547cf        0xa lib/built-in.o
 .rodata.smbios_write_type4.str1.1
                0x00000000878547d9        0x8 lib/built-in.o
 .rodata.soft_spi_ofdata_to_platdata.str1.1
                0x00000000878547d9        0xd drivers/spi/built-in.o
 .rodata.soft_spi_probe.str1.1
                0x00000000878547e6       0x26 drivers/spi/built-in.o
 .rodata.spi_find_chip_select.str1.1
                0x000000008785480c       0x18 drivers/spi/built-in.o
 .rodata.spi_flash_probe_bus_cs.str1.1
                0x0000000087854824       0x10 drivers/built-in.o
                                         0x1e (size before relaxing)
 .rodata.spi_flash_std_erase.str1.1
                0x0000000087854834       0x34 drivers/built-in.o
 .rodata.spi_flash_std_probe.str1.1
                0x0000000087854868       0x1c drivers/built-in.o
 .rodata.spi_get_bus_and_cs.str1.1
                0x0000000087854884       0x64 drivers/spi/built-in.o
 .rodata.spi_nor_scan.str1.1
                0x00000000878548e8       0xa4 drivers/built-in.o
                                         0xa7 (size before relaxing)
 .rodata.spi_nor_wait_till_ready_with_timeout.constprop.0.str1.1
                0x000000008785498c       0x78 drivers/built-in.o
 .rodata.spi_post_probe.str1.1
                0x0000000087854a04       0x12 drivers/spi/built-in.o
 .rodata.spi_slave_ofdata_to_platdata.str1.1
                0x0000000087854a16       0xa0 drivers/spi/built-in.o
                                         0xa4 (size before relaxing)
 .rodata.splash_get_pos.str1.1
                0x0000000087854ab6        0xa common/built-in.o
 .rodata.splash_screen_prepare.str1.1
                0x0000000087854ac0       0x2e common/built-in.o
 .rodata.split_filename.str1.1
                0x0000000087854aee        0x2 fs/built-in.o
 .rodata.stdio_add_devices.str1.1
                0x0000000087854aee        0x7 common/built-in.o
 .rodata.stdio_deregister_dev.str1.1
                0x0000000087854aee        0x8 common/built-in.o
 .rodata.stdio_get_by_name.str1.1
                0x0000000087854af6        0xb common/built-in.o
 .rodata.stdio_print_current_devices.str1.1
                0x0000000087854b01       0x70 common/built-in.o
                                         0x74 (size before relaxing)
 .rodata.store_char_in_data.str1.1
                0x0000000087854b71       0x1f lib/built-in.o
 .rodata.str1.1
                0x0000000087854b90       0xeb arch/arm/lib/built-in.o
 .rodata.str1.1
                0x0000000087854c7b      0xb9e arch/arm/mach-imx/built-in.o
                                        0xbab (size before relaxing)
 .rodata.str1.1
                0x0000000087855819        0xe board/freescale/mx6ullevk/built-in.o
 .rodata.str1.1
                0x0000000087855827     0x3bcb cmd/built-in.o
                                       0x3eea (size before relaxing)
 .rodata.str1.1
                0x00000000878593f2      0x8f8 common/built-in.o
                                        0x96a (size before relaxing)
 .rodata.str1.1
                0x0000000087859cea       0x1b disk/built-in.o
                                         0x1e (size before relaxing)
 .rodata.str1.1
                0x0000000087859d05      0x5a6 drivers/built-in.o
                                        0x631 (size before relaxing)
 .rodata.str1.1
                0x000000008785a2ab       0x45 drivers/gpio/built-in.o
                                         0x57 (size before relaxing)
 .rodata.str1.1
                0x000000008785a2f0       0x30 drivers/i2c/built-in.o
 .rodata.str1.1
                0x000000008785a320       0x9a drivers/net/built-in.o
 .rodata.str1.1
                0x000000008785a3ba       0xf0 drivers/net/phy/built-in.o
                                        0x10f (size before relaxing)
 .rodata.str1.1
                0x000000008785a4aa       0x3e drivers/power/regulator/built-in.o
                                         0x48 (size before relaxing)
 .rodata.str1.1
                0x000000008785a4e8        0x9 drivers/serial/built-in.o
 .rodata.str1.1
                0x000000008785a4e8       0x86 drivers/spi/built-in.o
                                         0x8a (size before relaxing)
 .rodata.str1.1
                0x000000008785a56e       0x40 drivers/usb/common/built-in.o
                                         0x52 (size before relaxing)
 .rodata.str1.1
                0x000000008785a5ae        0x9 drivers/usb/eth/built-in.o
 .rodata.str1.1
                0x000000008785a5b7       0x50 drivers/usb/gadget/built-in.o
                                         0x76 (size before relaxing)
 .rodata.str1.1
                0x000000008785a607        0x4 drivers/usb/gadget/udc/built-in.o
 .rodata.str1.1
                0x000000008785a607       0x27 drivers/usb/host/built-in.o
                                         0x2b (size before relaxing)
 .rodata.str1.1
                0x000000008785a62e       0xb2 env/built-in.o
                                         0x14 (size before relaxing)
 .rodata.str1.1
                0x000000008785a62e       0x10 fs/built-in.o
                                         0x15 (size before relaxing)
 .rodata.str1.1
                0x000000008785a63e      0x4b3 lib/built-in.o
                                        0x4c9 (size before relaxing)
 .rodata.str1.1
                0x000000008785aaf1        0x6 net/built-in.o
                                         0x35 (size before relaxing)
 .rodata.string.str1.1
                0x000000008785aaf7        0x7 lib/built-in.o
 .rodata.substitute.str1.1
                0x000000008785aafe       0x28 cmd/built-in.o
 .rodata.syntax_err.str1.1
                0x000000008785ab26        0xe common/built-in.o
 .rodata.tab_seq
                0x000000008785ab34        0x9 common/built-in.o
 .rodata.test_block_type.str1.1
                0x000000008785ab3d        0xa disk/built-in.o
 .rodata.tftp_handler.str1.1
                0x000000008785ab47       0x9a net/built-in.o
                                         0xa8 (size before relaxing)
 .rodata.tftp_send.str1.1
                0x000000008785abe1       0x36 net/built-in.o
                                         0x42 (size before relaxing)
 .rodata.tftp_start.str1.1
                0x000000008785ac17       0xe8 net/built-in.o
                                        0x181 (size before relaxing)
 .rodata.tftp_timeout_handler.str1.1
                0x000000008785acff       0x2a net/built-in.o
                                         0x2d (size before relaxing)
 .rodata.try_load_entry.str1.1
                0x000000008785ad29       0x4a lib/built-in.o
 .rodata.u_boot_hush_start.str1.1
                0x000000008785ad73       0x12 common/built-in.o
 .rodata.uclass_resolve_seq.str1.1
                0x000000008785ad85       0x27 drivers/built-in.o
 .rodata.udc_irq.str1.1
                0x000000008785adac       0x27 drivers/usb/gadget/built-in.o
                                         0x2e (size before relaxing)
 .rodata.upload.str1.1
                0x000000008785add3       0x20 drivers/built-in.o
                                         0x26 (size before relaxing)
 .rodata.us_direction
                0x000000008785adf3       0x20 common/built-in.o
 .rodata.usb_child_post_bind.str1.1
                0x000000008785ae13       0x25 drivers/usb/host/built-in.o
 .rodata.usb_composite_register.str1.1
                0x000000008785ae38        0xa drivers/usb/gadget/built-in.o
 .rodata.usb_del_gadget_udc.str1.1
                0x000000008785ae42       0x18 drivers/usb/gadget/udc/built-in.o
 .rodata.usb_display_class_sub.str1.1
                0x000000008785ae5a       0xb6 cmd/built-in.o
                                         0xbc (size before relaxing)
 .rodata.usb_display_config.str1.1
                0x000000008785af10      0x10d cmd/built-in.o
                                        0x118 (size before relaxing)
 .rodata.usb_display_desc.str1.1
                0x000000008785b01d       0xac cmd/built-in.o
                                         0xae (size before relaxing)
 .rodata.usb_display_string.str1.1
                0x000000008785b0c9        0xd cmd/built-in.o
 .rodata.usb_ether_receive.str1.1
                0x000000008785b0d6       0x1b drivers/usb/eth/built-in.o
 .rodata.usb_find_usb2_hub_address_port.str1.1
                0x000000008785b0f1       0x36 common/built-in.o
 .rodata.usb_gadget_handle_interrupts.str1.1
                0x000000008785b127       0x25 drivers/usb/gadget/udc/built-in.o
 .rodata.usb_gadget_initialize.str1.1
                0x000000008785b14c       0x15 drivers/usb/gadget/udc/built-in.o
 .rodata.usb_gadget_probe_driver.str1.1
                0x000000008785b161       0x38 drivers/usb/gadget/udc/built-in.o
 .rodata.usb_get_class_desc.str1.1
                0x000000008785b199       0x64 cmd/built-in.o
                                         0x65 (size before relaxing)
 .rodata.usb_get_configuration_len.str1.1
                0x000000008785b1fd       0x58 common/built-in.o
 .rodata.usb_get_dr_mode.str1.1
                0x000000008785b255       0x1f drivers/usb/common/built-in.o
 .rodata.usb_hub_configure.str1.1
                0x000000008785b274       0x5f common/built-in.o
 .rodata.usb_hub_port_connect_change.str1.1
                0x000000008785b2d3       0x18 common/built-in.o
 .rodata.usb_init.str1.1
                0x000000008785b2eb       0x54 drivers/usb/host/built-in.o
 .rodata.usb_mass_storage_probe.str1.1
                0x000000008785b33f       0x16 common/built-in.o
 .rodata.usb_scan_bus.isra.0.str1.1
                0x000000008785b355       0x4d drivers/usb/host/built-in.o
                                         0x5f (size before relaxing)
 .rodata.usb_scan_device.str1.1
                0x000000008785b3a2       0x2a drivers/usb/host/built-in.o
 .rodata.usb_select_config.str1.1
                0x000000008785b3cc      0x220 common/built-in.o
 .rodata.usb_set_interface.str1.1
                0x000000008785b5ec       0x1f common/built-in.o
 .rodata.usb_setup_descriptor.str1.1
                0x000000008785b60b       0x1d common/built-in.o
 .rodata.usb_setup_device.str1.1
                0x000000008785b628       0x68 common/built-in.o
 .rodata.usb_show_tree_graph.str1.1
                0x000000008785b690       0x2b cmd/built-in.o
                                         0x3a (size before relaxing)
 .rodata.usb_stor_CBI_get_status.isra.0.str1.1
                0x000000008785b6bb       0x1f common/built-in.o
 .rodata.usb_stor_CB_transport.str1.1
                0x000000008785b6da       0x6e common/built-in.o
 .rodata.usb_stor_get_info.str1.1
                0x000000008785b748       0x5d common/built-in.o
 .rodata.usb_stor_info.str1.1
                0x000000008785b7a5       0x32 common/built-in.o
                                         0x40 (size before relaxing)
 .rodata.usb_stor_scan.str1.1
                0x000000008785b7d7       0x48 common/built-in.o
 .rodata.usb_storage_probe.str1.1
                0x000000008785b81f       0x5c common/built-in.o
 .rodata.uuid_bin_to_str.str1.1
                0x000000008785b87b       0x4a lib/built-in.o
                                          0xa (size before relaxing)
 .rodata.valid_elf_image.str1.1
                0x000000008785b87b       0x52 cmd/built-in.o
 .rodata.validate_gpt_header.str1.1
                0x000000008785b8cd       0xe1 disk/built-in.o
 .rodata.var_complete.str1.1
                0x000000008785b9ae        0x1 common/built-in.o
 .rodata.vendor_id.11282
                0x000000008785b9ae        0x9 drivers/usb/gadget/built-in.o
 .rodata.version_string
                0x000000008785b9b7       0x3e cmd/built-in.o
                0x000000008785b9b7                version_string
 .rodata.vidconsole_post_probe.str1.1
                0x000000008785b9f5       0x18 drivers/built-in.o
 .rodata.video_bmp_display.str1.1
                0x000000008785b9f5       0x72 drivers/built-in.o
 .rodata.video_fontdata
                0x000000008785ba67     0x1000 drivers/built-in.o
 .rodata.video_link_add_node.str1.1
                0x000000008785ca67       0x14 drivers/built-in.o
 .rodata.video_link_get_display_timings.str1.1
                0x000000008785ca7b       0x3c drivers/built-in.o
 .rodata.video_link_get_next_device.str1.1
                0x000000008785cab7       0x43 drivers/built-in.o
 .rodata.video_link_get_video_device.str1.1
                0x000000008785cafa       0x23 drivers/built-in.o
 .rodata.video_link_init.str1.1
                0x000000008785cb1d       0x2f drivers/built-in.o
 .rodata.video_post_bind.str1.1
                0x000000008785cb4c       0x66 drivers/built-in.o
 .rodata.video_post_probe.str1.1
                0x000000008785cbb2       0x10 drivers/built-in.o
                                         0x1d (size before relaxing)
 .rodata.wait_for_sr_state.str1.1
                0x000000008785cbc2       0x4c drivers/i2c/built-in.o
 .rodata.write_backup_gpt.str1.1
                0x000000008785cc0e       0x70 drivers/built-in.o
                                         0x74 (size before relaxing)
 .rodata.write_gpt_table.str1.1
                0x000000008785cc7e       0x55 disk/built-in.o
 .rodata.write_mbr_and_gpt_partitions.str1.1
                0x000000008785ccd3       0x7c disk/built-in.o
 .rodata.write_smbios_table.str1.1
                0x000000008785cd4f        0xb lib/built-in.o
 .rodata.write_sparse_image.str1.1
                0x000000008785cd5a      0x1f9 lib/built-in.o
 .rodata.xmalloc.str1.1
                0x000000008785cf53       0x1e common/built-in.o
 .rodata.xyzModem_error.str1.1
                0x000000008785cf71        0xe common/built-in.o
 .rodata.xyzModem_stream_close.str1.1
                0x000000008785cf7f       0x47 common/built-in.o
                                         0x4b (size before relaxing)
 .rodata.xyzModem_stream_open.str1.1
                0x000000008785cfc6        0x2 common/built-in.o
 .rodata.zunzip.str1.1
                0x000000008785cfc6       0x47 lib/built-in.o

.hash           0x000000008785d010       0x18
 .hash          0x000000008785d010       0x18 arch/arm/cpu/armv7/start.o
                0x000000008785d028                . = ALIGN (0x4)

.data           0x000000008785d028     0xf528
 *(.data*)
 .data.rel.ro   0x000000008785d028        0x0 arch/arm/cpu/armv7/start.o
 .data.base     0x000000008785d028        0x4 arch/arm/mach-imx/built-in.o
 .data.reset_cause
                0x000000008785d02c        0x4 arch/arm/mach-imx/built-in.o
 .data.imx_ccm  0x000000008785d030        0x4 arch/arm/mach-imx/built-in.o
                0x000000008785d030                imx_ccm
 .data.bootm_help_text
                0x000000008785d034      0x38b cmd/built-in.o
 *fill*         0x000000008785d3bf        0x1 
 .data.cmd_bootm_sub
                0x000000008785d3c0       0xfc cmd/built-in.o
 .data.source_help_text
                0x000000008785d4bc       0x4e cmd/built-in.o
 *fill*         0x000000008785d50a        0x2 
 .data.cmd_blkc_sub
                0x000000008785d50c       0x38 cmd/built-in.o
 .data.cmd_bmp_sub
                0x000000008785d544       0x38 cmd/built-in.o
 .data.bootefi_help_text
                0x000000008785d57c      0x18b cmd/built-in.o
 .data.bootz_help_text
                0x000000008785d707      0x208 cmd/built-in.o
 *fill*         0x000000008785d90f        0x1 
 .data.test_commands
                0x000000008785d910       0x70 cmd/built-in.o
 .data.fdt_help_text
                0x000000008785d980      0x6a7 cmd/built-in.o
 .data.root.9693
                0x000000008785e027        0x2 cmd/built-in.o
 .data.tabs.9777
                0x000000008785e029       0x21 cmd/built-in.o
 *fill*         0x000000008785e04a        0x2 
 .data.cmd_i2c_sub
                0x000000008785e04c      0x1a4 cmd/built-in.o
 .data.i2c_dp_last_length
                0x000000008785e1f0        0x4 cmd/built-in.o
 .data.i2c_help_text
                0x000000008785e1f4      0x3ed cmd/built-in.o
 *fill*         0x000000008785e5e1        0x3 
 .data.do_echo  0x000000008785e5e4        0x4 cmd/built-in.o
 .data.dp_last_length
                0x000000008785e5e8        0x4 cmd/built-in.o
 .data.cmd_mmc  0x000000008785e5ec      0x188 cmd/built-in.o
 .data.curr_device
                0x000000008785e774        0x4 cmd/built-in.o
 .data.pinmux_subcmd
                0x000000008785e778       0x54 cmd/built-in.o
 .data.usb_stor_curr_dev
                0x000000008785e7cc        0x4 cmd/built-in.o
 .data.fastboot_help_text
                0x000000008785e7d0       0xac cmd/built-in.o
 .data.imgextract_help_text
                0x000000008785e87c       0x55 cmd/built-in.o
 *fill*         0x000000008785e8d1        0x3 
 .data.disk_partitions
                0x000000008785e8d4        0x8 cmd/built-in.o
 .data.cmd_env_sub
                0x000000008785e8dc      0x118 cmd/built-in.o
 .data.env_help_text
                0x000000008785e9f4      0x259 cmd/built-in.o
 *fill*         0x000000008785ec4d        0x3 
 .data.env_id   0x000000008785ec50        0x4 cmd/built-in.o
 .data.reserved_list
                0x000000008785ec54       0x84 common/built-in.o
 .data.init_sequence_r
                0x000000008785ecd8       0x80 common/built-in.o
 .data.of_busses
                0x000000008785ed58       0x18 common/built-in.o
 .data.usb_scan_list
                0x000000008785ed70        0x8 common/built-in.o
 .data.bmp_logo_bitmap
                0x000000008785ed78     0xba36 common/built-in.o
                0x000000008785ed78                bmp_logo_bitmap
 *fill*         0x000000008786a7ae        0x2 
 .data.hist_cur
                0x000000008786a7b0        0x4 common/built-in.o
 .data.av_      0x000000008786a7b4      0x408 common/built-in.o
 .data.sbrk_base
                0x000000008786abbc        0x4 common/built-in.o
 .data.trim_threshold
                0x000000008786abc0        0x4 common/built-in.o
 .data.image_load_addr
                0x000000008786abc4        0x4 common/built-in.o
                0x000000008786abc4                image_load_addr
 .data.stdio_names
                0x000000008786abc8        0xc common/built-in.o
                0x000000008786abc8                stdio_names
 .data          0x000000008786abd4       0x10 drivers/built-in.o
 .data.imx6_snvs_pinctrl_soc_info
                0x000000008786abe4       0x10 drivers/built-in.o
 .data.imx6ul_pinctrl_soc_info
                0x000000008786abf4       0x10 drivers/built-in.o
 .data._stats   0x000000008786ac04       0x14 drivers/built-in.o
 .data.block_cache
                0x000000008786ac18        0x8 drivers/built-in.o
 .data.fastboot_devinfo
                0x000000008786ac20        0x2 drivers/built-in.o
                0x000000008786ac20                fastboot_devinfo
 *fill*         0x000000008786ac22        0x2 
 .data.g_fastboot_stdio
                0x000000008786ac24       0x4c drivers/built-in.o
                0x000000008786ac24                g_fastboot_stdio
 .data.fastboot_common_var
                0x000000008786ac70       0x38 drivers/built-in.o
                0x000000008786ac70                fastboot_common_var
 .data.usdhc_imx7d_data
                0x000000008786aca8        0x4 drivers/built-in.o
 .data.usdhc_imx8qm_data
                0x000000008786acac        0x4 drivers/built-in.o
 .data.console_normal_ops
                0x000000008786acb0       0x14 drivers/built-in.o
                0x000000008786acb0                console_normal_ops
 .data.video_link_help_text
                0x000000008786acc4       0x4a drivers/built-in.o
 *fill*         0x000000008786ad0e        0x2 
 .data.genphy_driver
                0x000000008786ad10       0x40 drivers/net/phy/built-in.o
 .data.phy_drivers
                0x000000008786ad50        0x8 drivers/net/phy/built-in.o
 .data.lan8700_driver
                0x000000008786ad58       0x40 drivers/net/phy/built-in.o
 .data.lan8710_driver
                0x000000008786ad98       0x40 drivers/net/phy/built-in.o
 .data.lan8740_driver
                0x000000008786add8       0x40 drivers/net/phy/built-in.o
 .data.lan8741_driver
                0x000000008786ae18       0x40 drivers/net/phy/built-in.o
 .data.lan8742_driver
                0x000000008786ae58       0x40 drivers/net/phy/built-in.o
 .data.lan911x_driver
                0x000000008786ae98       0x40 drivers/net/phy/built-in.o
 .data.mxc_serial_drv
                0x000000008786aed8       0x30 drivers/serial/built-in.o
 .data.one_time_rx_line_always_low_workaround_needed
                0x000000008786af08        0x4 drivers/serial/built-in.o
 .data.ci_ep_ops
                0x000000008786af0c       0x28 drivers/usb/gadget/built-in.o
 .data.ci_udc_ops
                0x000000008786af34       0x34 drivers/usb/gadget/built-in.o
 .data.controller
                0x000000008786af68      0x1a8 drivers/usb/gadget/built-in.o
 .data.ep0_desc
                0x000000008786b110        0x9 drivers/usb/gadget/built-in.o
 *fill*         0x000000008786b119        0x3 
 .data.composite_driver
                0x000000008786b11c       0x24 drivers/usb/gadget/built-in.o
 .data.device_desc
                0x000000008786b140       0x12 drivers/usb/gadget/built-in.o
 *fill*         0x000000008786b152        0x2 
 .data.g_dnl_composite_strings
                0x000000008786b154        0x8 drivers/usb/gadget/built-in.o
 .data.g_dnl_driver
                0x000000008786b15c       0x24 drivers/usb/gadget/built-in.o
 .data.g_dnl_string_defs
                0x000000008786b180       0x20 drivers/usb/gadget/built-in.o
 .data.g_dnl_string_tab
                0x000000008786b1a0        0x8 drivers/usb/gadget/built-in.o
 .data.qw_sign_buf
                0x000000008786b1a8        0x7 drivers/usb/gadget/built-in.o
 .data.fsg_fs_bulk_in_desc
                0x000000008786b1af        0x9 drivers/usb/gadget/built-in.o
 .data.fsg_fs_bulk_out_desc
                0x000000008786b1b8        0x9 drivers/usb/gadget/built-in.o
 *fill*         0x000000008786b1c1        0x3 
 .data.fsg_fs_function
                0x000000008786b1c4       0x10 drivers/usb/gadget/built-in.o
 .data.fsg_hs_bulk_in_desc
                0x000000008786b1d4        0x9 drivers/usb/gadget/built-in.o
 .data.fsg_hs_bulk_out_desc
                0x000000008786b1dd        0x9 drivers/usb/gadget/built-in.o
 *fill*         0x000000008786b1e6        0x2 
 .data.fsg_hs_function
                0x000000008786b1e8       0x10 drivers/usb/gadget/built-in.o
 .data.fsg_intf_desc
                0x000000008786b1f8        0x9 drivers/usb/gadget/built-in.o
 *fill*         0x000000008786b201        0x3 
 .data.fsg_strings
                0x000000008786b204       0x10 drivers/usb/gadget/built-in.o
 .data.fsg_strings_array
                0x000000008786b214        0x8 drivers/usb/gadget/built-in.o
 .data.fsg_stringtab
                0x000000008786b21c        0x8 drivers/usb/gadget/built-in.o
 .data.fastboot_string_defs
                0x000000008786b224       0x10 drivers/usb/gadget/built-in.o
 .data.fastboot_strings
                0x000000008786b234        0x8 drivers/usb/gadget/built-in.o
 .data.fb_cid   0x000000008786b23c       0x10 drivers/usb/gadget/built-in.o
 .data.fb_ext_prop
                0x000000008786b24c       0x1c drivers/usb/gadget/built-in.o
 .data.fb_ext_prop_data
                0x000000008786b268       0x27 drivers/usb/gadget/built-in.o
 .data.fb_ext_prop_name
                0x000000008786b28f       0x14 drivers/usb/gadget/built-in.o
 *fill*         0x000000008786b2a3        0x1 
 .data.fb_fs_function
                0x000000008786b2a4        0xc drivers/usb/gadget/built-in.o
 .data.fb_hs_function
                0x000000008786b2b0       0x10 drivers/usb/gadget/built-in.o
 .data.fb_os_desc
                0x000000008786b2c0       0x14 drivers/usb/gadget/built-in.o
 .data.fb_os_desc_table
                0x000000008786b2d4        0x8 drivers/usb/gadget/built-in.o
 .data.fb_ss_bulk_comp_desc
                0x000000008786b2dc        0x6 drivers/usb/gadget/built-in.o
 *fill*         0x000000008786b2e2        0x2 
 .data.fb_ss_function
                0x000000008786b2e4       0x18 drivers/usb/gadget/built-in.o
 .data.fs_ep_in
                0x000000008786b2fc        0x9 drivers/usb/gadget/built-in.o
 .data.fs_ep_out
                0x000000008786b305        0x9 drivers/usb/gadget/built-in.o
 .data.hs_ep_in
                0x000000008786b30e        0x9 drivers/usb/gadget/built-in.o
 .data.hs_ep_out
                0x000000008786b317        0x9 drivers/usb/gadget/built-in.o
 .data.interface_desc
                0x000000008786b320        0x9 drivers/usb/gadget/built-in.o
 .data.ss_ep_in
                0x000000008786b329        0x9 drivers/usb/gadget/built-in.o
 .data.ss_ep_out
                0x000000008786b332        0x9 drivers/usb/gadget/built-in.o
 *fill*         0x000000008786b33b        0x1 
 .data.stringtab_fastboot
                0x000000008786b33c        0x8 drivers/usb/gadget/built-in.o
 .data.udc_list
                0x000000008786b344        0x8 drivers/usb/gadget/udc/built-in.o
 .data.descriptor
                0x000000008786b34c       0x39 drivers/usb/host/built-in.o
 *fill*         0x000000008786b385        0x3 
 .data.ehci_usb_ops
                0x000000008786b388       0x2c drivers/usb/host/built-in.o
                0x000000008786b388                ehci_usb_ops
 .data.env_htab
                0x000000008786b3b4       0x10 env/built-in.o
                0x000000008786b3b4                env_htab
 .data.first_call
                0x000000008786b3c4        0x8 env/built-in.o
 .data.fstypes  0x000000008786b3cc       0xcc fs/built-in.o
 .data.ext4fs_indir1_blkno
                0x000000008786b498        0x4 fs/built-in.o
                0x000000008786b498                ext4fs_indir1_blkno
 .data.ext4fs_indir2_blkno
                0x000000008786b49c        0x4 fs/built-in.o
                0x000000008786b49c                ext4fs_indir2_blkno
 .data.ext4fs_indir3_blkno
                0x000000008786b4a0        0x4 fs/built-in.o
                0x000000008786b4a0                ext4fs_indir3_blkno
 .data.prev_bg_bitmap_index.10085
                0x000000008786b4a4        0x4 fs/built-in.o
 .data.prev_inode_bitmap_index.10109
                0x000000008786b4a8        0x4 fs/built-in.o
 .data.prev_bg_bmap_idx.9768
                0x000000008786b4ac        0x4 fs/built-in.o
 .data.prev_bg_bmap_idx.9783
                0x000000008786b4b0        0x4 fs/built-in.o
 .data.prev_bg_bmap_idx.9805
                0x000000008786b4b4        0x4 fs/built-in.o
 .data.prev_bg_bmap_idx.9840
                0x000000008786b4b8        0x4 fs/built-in.o
 .data.first_node
                0x000000008786b4bc        0x4 fs/built-in.o
 .data.efi_boot_services
                0x000000008786b4c0       0xc8 lib/built-in.o
 .data.efi_event_queue
                0x000000008786b588        0x8 lib/built-in.o
                0x000000008786b588                efi_event_queue
 .data.efi_obj_list
                0x000000008786b590        0x8 lib/built-in.o
                0x000000008786b590                efi_obj_list
 .data.efi_register_notify_events
                0x000000008786b598        0x8 lib/built-in.o
                0x000000008786b598                efi_register_notify_events
 .data.efi_tpl  0x000000008786b5a0        0x4 lib/built-in.o
 .data.entry_count
                0x000000008786b5a4        0x4 lib/built-in.o
 .data.timers_enabled
                0x000000008786b5a8        0x1 lib/built-in.o
 *fill*         0x000000008786b5a9        0x3 
 .data.cin_notify_functions
                0x000000008786b5ac        0x8 lib/built-in.o
 .data.efi_con_in
                0x000000008786b5b4        0xc lib/built-in.o
                0x000000008786b5b4                efi_con_in
 .data.efi_con_in_ex
                0x000000008786b5c0       0x18 lib/built-in.o
 .data.efi_con_mode
                0x000000008786b5d8       0x18 lib/built-in.o
 .data.efi_con_out
                0x000000008786b5f0       0x28 lib/built-in.o
                0x000000008786b5f0                efi_con_out
 .data.efi_cout_modes
                0x000000008786b618       0x24 lib/built-in.o
 .data.efi_keyboard_layout_list
                0x000000008786b63c        0x8 lib/built-in.o
 .data.efi_package_lists
                0x000000008786b644        0x8 lib/built-in.o
 .data.efi_mem  0x000000008786b64c        0x8 lib/built-in.o
                0x000000008786b64c                efi_mem
 .data.lastoff.12107
                0x000000008786b654        0x4 lib/built-in.o
 .data.efi_obj_list_initialized
                0x000000008786b658        0x4 lib/built-in.o
 .data.capitalization_table
                0x000000008786b65c      0xed0 lib/built-in.o
 .data.y        0x000000008786c52c        0x4 lib/built-in.o
 .data.first_call.9585
                0x000000008786c530        0x4 net/built-in.o
 .data.net_native_vlan
                0x000000008786c534        0x2 net/built-in.o
                0x000000008786c534                net_native_vlan
 .data.net_our_vlan
                0x000000008786c536        0x2 net/built-in.o
                0x000000008786c536                net_our_vlan
 .data.nfs_offset
                0x000000008786c538        0x4 net/built-in.o
 .data.supported_nfs_versions
                0x000000008786c53c        0x1 net/built-in.o
 *fill*         0x000000008786c53d        0x1 
 .data.tftp_block_size
                0x000000008786c53e        0x2 net/built-in.o
 .data.tftp_block_size_option
                0x000000008786c540        0x2 net/built-in.o
 *fill*         0x000000008786c542        0x2 
 .data.tftp_timeout_count_max
                0x000000008786c544        0x4 net/built-in.o
                0x000000008786c544                tftp_timeout_count_max
 .data.timeout_count_max
                0x000000008786c548        0x4 net/built-in.o
 .data.timeout_ms
                0x000000008786c54c        0x4 net/built-in.o

.got            0x000000008786c550        0x0
 .got           0x000000008786c550        0x0 arch/arm/cpu/armv7/start.o

.got.plt        0x000000008786c550        0xc
 .got.plt       0x000000008786c550        0xc arch/arm/cpu/armv7/start.o
                0x000000008786c550                _GLOBAL_OFFSET_TABLE_

.igot.plt       0x000000008786c55c        0x0
 .igot.plt      0x000000008786c55c        0x0 arch/arm/cpu/armv7/start.o
                0x000000008786c55c                . = ALIGN (0x4)
                0x000000008786c55c                . = .
                0x000000008786c55c                . = ALIGN (0x4)

.u_boot_list    0x000000008786c55c     0x1c54
 *(SORT_BY_NAME(.u_boot_list*))
 .u_boot_list_2_cmd_1
                0x000000008786c55c        0x0 cmd/built-in.o
 .u_boot_list_2_cmd_1
                0x000000008786c55c        0x0 common/built-in.o
 .u_boot_list_2_cmd_2_base
                0x000000008786c55c       0x1c cmd/built-in.o
                0x000000008786c55c                _u_boot_list_2_cmd_2_base
 .u_boot_list_2_cmd_2_bdinfo
                0x000000008786c578       0x1c cmd/built-in.o
                0x000000008786c578                _u_boot_list_2_cmd_2_bdinfo
 .u_boot_list_2_cmd_2_blkcache
                0x000000008786c594       0x1c cmd/built-in.o
                0x000000008786c594                _u_boot_list_2_cmd_2_blkcache
 .u_boot_list_2_cmd_2_bmode
                0x000000008786c5b0       0x1c arch/arm/mach-imx/built-in.o
                0x000000008786c5b0                _u_boot_list_2_cmd_2_bmode
 .u_boot_list_2_cmd_2_bmp
                0x000000008786c5cc       0x1c cmd/built-in.o
                0x000000008786c5cc                _u_boot_list_2_cmd_2_bmp
 .u_boot_list_2_cmd_2_boot
                0x000000008786c5e8       0x1c cmd/built-in.o
                0x000000008786c5e8                _u_boot_list_2_cmd_2_boot
 .u_boot_list_2_cmd_2_bootd
                0x000000008786c604       0x1c cmd/built-in.o
                0x000000008786c604                _u_boot_list_2_cmd_2_bootd
 .u_boot_list_2_cmd_2_bootefi
                0x000000008786c620       0x1c cmd/built-in.o
                0x000000008786c620                _u_boot_list_2_cmd_2_bootefi
 .u_boot_list_2_cmd_2_bootelf
                0x000000008786c63c       0x1c cmd/built-in.o
                0x000000008786c63c                _u_boot_list_2_cmd_2_bootelf
 .u_boot_list_2_cmd_2_bootm
                0x000000008786c658       0x1c cmd/built-in.o
                0x000000008786c658                _u_boot_list_2_cmd_2_bootm
 .u_boot_list_2_cmd_2_bootp
                0x000000008786c674       0x1c cmd/built-in.o
                0x000000008786c674                _u_boot_list_2_cmd_2_bootp
 .u_boot_list_2_cmd_2_bootvx
                0x000000008786c690       0x1c cmd/built-in.o
                0x000000008786c690                _u_boot_list_2_cmd_2_bootvx
 .u_boot_list_2_cmd_2_bootz
                0x000000008786c6ac       0x1c cmd/built-in.o
                0x000000008786c6ac                _u_boot_list_2_cmd_2_bootz
 .u_boot_list_2_cmd_2_clocks
                0x000000008786c6c8       0x1c arch/arm/mach-imx/built-in.o
                0x000000008786c6c8                _u_boot_list_2_cmd_2_clocks
 .u_boot_list_2_cmd_2_cmp
                0x000000008786c6e4       0x1c cmd/built-in.o
                0x000000008786c6e4                _u_boot_list_2_cmd_2_cmp
 .u_boot_list_2_cmd_2_coninfo
                0x000000008786c700       0x1c cmd/built-in.o
                0x000000008786c700                _u_boot_list_2_cmd_2_coninfo
 .u_boot_list_2_cmd_2_cp
                0x000000008786c71c       0x1c cmd/built-in.o
                0x000000008786c71c                _u_boot_list_2_cmd_2_cp
 .u_boot_list_2_cmd_2_crc32
                0x000000008786c738       0x1c cmd/built-in.o
                0x000000008786c738                _u_boot_list_2_cmd_2_crc32
 .u_boot_list_2_cmd_2_dcache
                0x000000008786c754       0x1c cmd/built-in.o
                0x000000008786c754                _u_boot_list_2_cmd_2_dcache
 .u_boot_list_2_cmd_2_dhcp
                0x000000008786c770       0x1c cmd/built-in.o
                0x000000008786c770                _u_boot_list_2_cmd_2_dhcp
 .u_boot_list_2_cmd_2_dm
                0x000000008786c78c       0x1c cmd/built-in.o
                0x000000008786c78c                _u_boot_list_2_cmd_2_dm
 .u_boot_list_2_cmd_2_echo
                0x000000008786c7a8       0x1c cmd/built-in.o
                0x000000008786c7a8                _u_boot_list_2_cmd_2_echo
 .u_boot_list_2_cmd_2_editenv
                0x000000008786c7c4       0x1c cmd/built-in.o
                0x000000008786c7c4                _u_boot_list_2_cmd_2_editenv
 .u_boot_list_2_cmd_2_env
                0x000000008786c7e0       0x1c cmd/built-in.o
                0x000000008786c7e0                _u_boot_list_2_cmd_2_env
 .u_boot_list_2_cmd_2_erase
                0x000000008786c7fc       0x1c cmd/built-in.o
                0x000000008786c7fc                _u_boot_list_2_cmd_2_erase
 .u_boot_list_2_cmd_2_exit
                0x000000008786c818       0x1c cmd/built-in.o
                0x000000008786c818                _u_boot_list_2_cmd_2_exit
 .u_boot_list_2_cmd_2_ext2load
                0x000000008786c834       0x1c cmd/built-in.o
                0x000000008786c834                _u_boot_list_2_cmd_2_ext2load
 .u_boot_list_2_cmd_2_ext2ls
                0x000000008786c850       0x1c cmd/built-in.o
                0x000000008786c850                _u_boot_list_2_cmd_2_ext2ls
 .u_boot_list_2_cmd_2_ext4load
                0x000000008786c86c       0x1c cmd/built-in.o
                0x000000008786c86c                _u_boot_list_2_cmd_2_ext4load
 .u_boot_list_2_cmd_2_ext4ls
                0x000000008786c888       0x1c cmd/built-in.o
                0x000000008786c888                _u_boot_list_2_cmd_2_ext4ls
 .u_boot_list_2_cmd_2_ext4size
                0x000000008786c8a4       0x1c cmd/built-in.o
                0x000000008786c8a4                _u_boot_list_2_cmd_2_ext4size
 .u_boot_list_2_cmd_2_ext4write
                0x000000008786c8c0       0x1c cmd/built-in.o
                0x000000008786c8c0                _u_boot_list_2_cmd_2_ext4write
 .u_boot_list_2_cmd_2_false
                0x000000008786c8dc       0x1c cmd/built-in.o
                0x000000008786c8dc                _u_boot_list_2_cmd_2_false
 .u_boot_list_2_cmd_2_fastboot
                0x000000008786c8f8       0x1c cmd/built-in.o
                0x000000008786c8f8                _u_boot_list_2_cmd_2_fastboot
 .u_boot_list_2_cmd_2_fatinfo
                0x000000008786c914       0x1c cmd/built-in.o
                0x000000008786c914                _u_boot_list_2_cmd_2_fatinfo
 .u_boot_list_2_cmd_2_fatload
                0x000000008786c930       0x1c cmd/built-in.o
                0x000000008786c930                _u_boot_list_2_cmd_2_fatload
 .u_boot_list_2_cmd_2_fatls
                0x000000008786c94c       0x1c cmd/built-in.o
                0x000000008786c94c                _u_boot_list_2_cmd_2_fatls
 .u_boot_list_2_cmd_2_fatmkdir
                0x000000008786c968       0x1c cmd/built-in.o
                0x000000008786c968                _u_boot_list_2_cmd_2_fatmkdir
 .u_boot_list_2_cmd_2_fatrm
                0x000000008786c984       0x1c cmd/built-in.o
                0x000000008786c984                _u_boot_list_2_cmd_2_fatrm
 .u_boot_list_2_cmd_2_fatsize
                0x000000008786c9a0       0x1c cmd/built-in.o
                0x000000008786c9a0                _u_boot_list_2_cmd_2_fatsize
 .u_boot_list_2_cmd_2_fatwrite
                0x000000008786c9bc       0x1c cmd/built-in.o
                0x000000008786c9bc                _u_boot_list_2_cmd_2_fatwrite
 .u_boot_list_2_cmd_2_fdt
                0x000000008786c9d8       0x1c cmd/built-in.o
                0x000000008786c9d8                _u_boot_list_2_cmd_2_fdt
 .u_boot_list_2_cmd_2_flinfo
                0x000000008786c9f4       0x1c cmd/built-in.o
                0x000000008786c9f4                _u_boot_list_2_cmd_2_flinfo
 .u_boot_list_2_cmd_2_fstype
                0x000000008786ca10       0x1c cmd/built-in.o
                0x000000008786ca10                _u_boot_list_2_cmd_2_fstype
 .u_boot_list_2_cmd_2_fuse
                0x000000008786ca2c       0x1c cmd/built-in.o
                0x000000008786ca2c                _u_boot_list_2_cmd_2_fuse
 .u_boot_list_2_cmd_2_go
                0x000000008786ca48       0x1c cmd/built-in.o
                0x000000008786ca48                _u_boot_list_2_cmd_2_go
 .u_boot_list_2_cmd_2_gpio
                0x000000008786ca64       0x1c cmd/built-in.o
                0x000000008786ca64                _u_boot_list_2_cmd_2_gpio
 .u_boot_list_2_cmd_2_gpt
                0x000000008786ca80       0x1c cmd/built-in.o
                0x000000008786ca80                _u_boot_list_2_cmd_2_gpt
 .u_boot_list_2_cmd_2_help
                0x000000008786ca9c       0x1c cmd/built-in.o
                0x000000008786ca9c                _u_boot_list_2_cmd_2_help
 .u_boot_list_2_cmd_2_i2c
                0x000000008786cab8       0x1c cmd/built-in.o
                0x000000008786cab8                _u_boot_list_2_cmd_2_i2c
 .u_boot_list_2_cmd_2_icache
                0x000000008786cad4       0x1c cmd/built-in.o
                0x000000008786cad4                _u_boot_list_2_cmd_2_icache
 .u_boot_list_2_cmd_2_iminfo
                0x000000008786caf0       0x1c cmd/built-in.o
                0x000000008786caf0                _u_boot_list_2_cmd_2_iminfo
 .u_boot_list_2_cmd_2_imxtract
                0x000000008786cb0c       0x1c cmd/built-in.o
                0x000000008786cb0c                _u_boot_list_2_cmd_2_imxtract
 .u_boot_list_2_cmd_2_itest
                0x000000008786cb28       0x1c cmd/built-in.o
                0x000000008786cb28                _u_boot_list_2_cmd_2_itest
 .u_boot_list_2_cmd_2_lcdputs
                0x000000008786cb44       0x1c drivers/built-in.o
                0x000000008786cb44                _u_boot_list_2_cmd_2_lcdputs
 .u_boot_list_2_cmd_2_ln
                0x000000008786cb60       0x1c cmd/built-in.o
                0x000000008786cb60                _u_boot_list_2_cmd_2_ln
 .u_boot_list_2_cmd_2_load
                0x000000008786cb7c       0x1c cmd/built-in.o
                0x000000008786cb7c                _u_boot_list_2_cmd_2_load
 .u_boot_list_2_cmd_2_loadb
                0x000000008786cb98       0x1c cmd/built-in.o
                0x000000008786cb98                _u_boot_list_2_cmd_2_loadb
 .u_boot_list_2_cmd_2_loads
                0x000000008786cbb4       0x1c cmd/built-in.o
                0x000000008786cbb4                _u_boot_list_2_cmd_2_loads
 .u_boot_list_2_cmd_2_loadx
                0x000000008786cbd0       0x1c cmd/built-in.o
                0x000000008786cbd0                _u_boot_list_2_cmd_2_loadx
 .u_boot_list_2_cmd_2_loady
                0x000000008786cbec       0x1c cmd/built-in.o
                0x000000008786cbec                _u_boot_list_2_cmd_2_loady
 .u_boot_list_2_cmd_2_loop
                0x000000008786cc08       0x1c cmd/built-in.o
                0x000000008786cc08                _u_boot_list_2_cmd_2_loop
 .u_boot_list_2_cmd_2_ls
                0x000000008786cc24       0x1c cmd/built-in.o
                0x000000008786cc24                _u_boot_list_2_cmd_2_ls
 .u_boot_list_2_cmd_2_md
                0x000000008786cc40       0x1c cmd/built-in.o
                0x000000008786cc40                _u_boot_list_2_cmd_2_md
 .u_boot_list_2_cmd_2_mm
                0x000000008786cc5c       0x1c cmd/built-in.o
                0x000000008786cc5c                _u_boot_list_2_cmd_2_mm
 .u_boot_list_2_cmd_2_mmc
                0x000000008786cc78       0x1c cmd/built-in.o
                0x000000008786cc78                _u_boot_list_2_cmd_2_mmc
 .u_boot_list_2_cmd_2_mmcinfo
                0x000000008786cc94       0x1c cmd/built-in.o
                0x000000008786cc94                _u_boot_list_2_cmd_2_mmcinfo
 .u_boot_list_2_cmd_2_mtest
                0x000000008786ccb0       0x1c cmd/built-in.o
                0x000000008786ccb0                _u_boot_list_2_cmd_2_mtest
 .u_boot_list_2_cmd_2_mw
                0x000000008786cccc       0x1c cmd/built-in.o
                0x000000008786cccc                _u_boot_list_2_cmd_2_mw
 .u_boot_list_2_cmd_2_nfs
                0x000000008786cce8       0x1c cmd/built-in.o
                0x000000008786cce8                _u_boot_list_2_cmd_2_nfs
 .u_boot_list_2_cmd_2_nm
                0x000000008786cd04       0x1c cmd/built-in.o
                0x000000008786cd04                _u_boot_list_2_cmd_2_nm
 .u_boot_list_2_cmd_2_ping
                0x000000008786cd20       0x1c cmd/built-in.o
                0x000000008786cd20                _u_boot_list_2_cmd_2_ping
 .u_boot_list_2_cmd_2_pinmux
                0x000000008786cd3c       0x1c cmd/built-in.o
                0x000000008786cd3c                _u_boot_list_2_cmd_2_pinmux
 .u_boot_list_2_cmd_2_printenv
                0x000000008786cd58       0x1c cmd/built-in.o
                0x000000008786cd58                _u_boot_list_2_cmd_2_printenv
 .u_boot_list_2_cmd_2_protect
                0x000000008786cd74       0x1c cmd/built-in.o
                0x000000008786cd74                _u_boot_list_2_cmd_2_protect
 .u_boot_list_2_cmd_2_question_mark
                0x000000008786cd90       0x1c cmd/built-in.o
                0x000000008786cd90                _u_boot_list_2_cmd_2_question_mark
 .u_boot_list_2_cmd_2_random
                0x000000008786cdac       0x1c cmd/built-in.o
                0x000000008786cdac                _u_boot_list_2_cmd_2_random
 .u_boot_list_2_cmd_2_read
                0x000000008786cdc8       0x1c cmd/built-in.o
                0x000000008786cdc8                _u_boot_list_2_cmd_2_read
 .u_boot_list_2_cmd_2_reset
                0x000000008786cde4       0x1c cmd/built-in.o
                0x000000008786cde4                _u_boot_list_2_cmd_2_reset
 .u_boot_list_2_cmd_2_run
                0x000000008786ce00       0x1c cmd/built-in.o
                0x000000008786ce00                _u_boot_list_2_cmd_2_run
 .u_boot_list_2_cmd_2_save
                0x000000008786ce1c       0x1c cmd/built-in.o
                0x000000008786ce1c                _u_boot_list_2_cmd_2_save
 .u_boot_list_2_cmd_2_saveenv
                0x000000008786ce38       0x1c cmd/built-in.o
                0x000000008786ce38                _u_boot_list_2_cmd_2_saveenv
 .u_boot_list_2_cmd_2_setcurs
                0x000000008786ce54       0x1c drivers/built-in.o
                0x000000008786ce54                _u_boot_list_2_cmd_2_setcurs
 .u_boot_list_2_cmd_2_setenv
                0x000000008786ce70       0x1c cmd/built-in.o
                0x000000008786ce70                _u_boot_list_2_cmd_2_setenv
 .u_boot_list_2_cmd_2_setexpr
                0x000000008786ce8c       0x1c cmd/built-in.o
                0x000000008786ce8c                _u_boot_list_2_cmd_2_setexpr
 .u_boot_list_2_cmd_2_sf
                0x000000008786cea8       0x1c cmd/built-in.o
                0x000000008786cea8                _u_boot_list_2_cmd_2_sf
 .u_boot_list_2_cmd_2_showvar
                0x000000008786cec4       0x1c common/built-in.o
                0x000000008786cec4                _u_boot_list_2_cmd_2_showvar
 .u_boot_list_2_cmd_2_size
                0x000000008786cee0       0x1c cmd/built-in.o
                0x000000008786cee0                _u_boot_list_2_cmd_2_size
 .u_boot_list_2_cmd_2_sleep
                0x000000008786cefc       0x1c cmd/built-in.o
                0x000000008786cefc                _u_boot_list_2_cmd_2_sleep
 .u_boot_list_2_cmd_2_source
                0x000000008786cf18       0x1c cmd/built-in.o
                0x000000008786cf18                _u_boot_list_2_cmd_2_source
 .u_boot_list_2_cmd_2_test
                0x000000008786cf34       0x1c cmd/built-in.o
                0x000000008786cf34                _u_boot_list_2_cmd_2_test
 .u_boot_list_2_cmd_2_tftpboot
                0x000000008786cf50       0x1c cmd/built-in.o
                0x000000008786cf50                _u_boot_list_2_cmd_2_tftpboot
 .u_boot_list_2_cmd_2_true
                0x000000008786cf6c       0x1c cmd/built-in.o
                0x000000008786cf6c                _u_boot_list_2_cmd_2_true
 .u_boot_list_2_cmd_2_ums
                0x000000008786cf88       0x1c cmd/built-in.o
                0x000000008786cf88                _u_boot_list_2_cmd_2_ums
 .u_boot_list_2_cmd_2_usb
                0x000000008786cfa4       0x1c cmd/built-in.o
                0x000000008786cfa4                _u_boot_list_2_cmd_2_usb
 .u_boot_list_2_cmd_2_usbboot
                0x000000008786cfc0       0x1c cmd/built-in.o
                0x000000008786cfc0                _u_boot_list_2_cmd_2_usbboot
 .u_boot_list_2_cmd_2_version
                0x000000008786cfdc       0x1c cmd/built-in.o
                0x000000008786cfdc                _u_boot_list_2_cmd_2_version
 .u_boot_list_2_cmd_2_videolink
                0x000000008786cff8       0x1c drivers/built-in.o
                0x000000008786cff8                _u_boot_list_2_cmd_2_videolink
 .u_boot_list_2_cmd_3
                0x000000008786d014        0x0 cmd/built-in.o
 .u_boot_list_2_cmd_3
                0x000000008786d014        0x0 common/built-in.o
 .u_boot_list_2_driver_1
                0x000000008786d014        0x0 drivers/built-in.o
 .u_boot_list_2_driver_1
                0x000000008786d014        0x0 lib/built-in.o
 .u_boot_list_2_driver_2_74x164
                0x000000008786d014       0x48 drivers/gpio/built-in.o
                0x000000008786d014                _u_boot_list_2_driver_2_74x164
 .u_boot_list_2_driver_2_asix_eth
                0x000000008786d05c       0x48 drivers/usb/eth/built-in.o
                0x000000008786d05c                _u_boot_list_2_driver_2_asix_eth
 .u_boot_list_2_driver_2_ci_udc_otg
                0x000000008786d0a4       0x48 drivers/usb/gadget/built-in.o
                0x000000008786d0a4                _u_boot_list_2_driver_2_ci_udc_otg
 .u_boot_list_2_driver_2_efi_blk
                0x000000008786d0ec       0x48 lib/built-in.o
                0x000000008786d0ec                _u_boot_list_2_driver_2_efi_blk
 .u_boot_list_2_driver_2_efi_block
                0x000000008786d134       0x48 lib/built-in.o
                0x000000008786d134                _u_boot_list_2_driver_2_efi_block
 .u_boot_list_2_driver_2_eth_phy_generic_drv
                0x000000008786d17c       0x48 drivers/net/built-in.o
                0x000000008786d17c                _u_boot_list_2_driver_2_eth_phy_generic_drv
 .u_boot_list_2_driver_2_fecmxc_gem
                0x000000008786d1c4       0x48 drivers/net/built-in.o
                0x000000008786d1c4                _u_boot_list_2_driver_2_fecmxc_gem
 .u_boot_list_2_driver_2_fixed_regulator
                0x000000008786d20c       0x48 drivers/power/regulator/built-in.o
                0x000000008786d20c                _u_boot_list_2_driver_2_fixed_regulator
 .u_boot_list_2_driver_2_fsl_esdhc
                0x000000008786d254       0x48 drivers/built-in.o
                0x000000008786d254                _u_boot_list_2_driver_2_fsl_esdhc
 .u_boot_list_2_driver_2_fsl_qspi
                0x000000008786d29c       0x48 drivers/spi/built-in.o
                0x000000008786d29c                _u_boot_list_2_driver_2_fsl_qspi
 .u_boot_list_2_driver_2_gpio_mxc
                0x000000008786d2e4       0x48 drivers/gpio/built-in.o
                0x000000008786d2e4                _u_boot_list_2_driver_2_gpio_mxc
 .u_boot_list_2_driver_2_gpio_regulator
                0x000000008786d32c       0x48 drivers/power/regulator/built-in.o
                0x000000008786d32c                _u_boot_list_2_driver_2_gpio_regulator
 .u_boot_list_2_driver_2_i2c_generic_chip_drv
                0x000000008786d374       0x48 drivers/i2c/built-in.o
                0x000000008786d374                _u_boot_list_2_driver_2_i2c_generic_chip_drv
 .u_boot_list_2_driver_2_i2c_mxc
                0x000000008786d3bc       0x48 drivers/i2c/built-in.o
                0x000000008786d3bc                _u_boot_list_2_driver_2_i2c_mxc
 .u_boot_list_2_driver_2_imx6_pinctrl
                0x000000008786d404       0x48 drivers/built-in.o
                0x000000008786d404                _u_boot_list_2_driver_2_imx6_pinctrl
 .u_boot_list_2_driver_2_imx_thermal
                0x000000008786d44c       0x48 drivers/built-in.o
                0x000000008786d44c                _u_boot_list_2_driver_2_imx_thermal
 .u_boot_list_2_driver_2_mmc_blk
                0x000000008786d494       0x48 drivers/built-in.o
                0x000000008786d494                _u_boot_list_2_driver_2_mmc_blk
 .u_boot_list_2_driver_2_mxs_video
                0x000000008786d4dc       0x48 drivers/built-in.o
                0x000000008786d4dc                _u_boot_list_2_driver_2_mxs_video
 .u_boot_list_2_driver_2_pinconfig_generic
                0x000000008786d524       0x48 drivers/built-in.o
                0x000000008786d524                _u_boot_list_2_driver_2_pinconfig_generic
 .u_boot_list_2_driver_2_root_driver
                0x000000008786d56c       0x48 drivers/built-in.o
                0x000000008786d56c                _u_boot_list_2_driver_2_root_driver
 .u_boot_list_2_driver_2_simple_bus_drv
                0x000000008786d5b4       0x48 drivers/built-in.o
                0x000000008786d5b4                _u_boot_list_2_driver_2_simple_bus_drv
 .u_boot_list_2_driver_2_simple_panel
                0x000000008786d5fc       0x48 drivers/built-in.o
                0x000000008786d5fc                _u_boot_list_2_driver_2_simple_panel
 .u_boot_list_2_driver_2_soft_spi
                0x000000008786d644       0x48 drivers/spi/built-in.o
                0x000000008786d644                _u_boot_list_2_driver_2_soft_spi
 .u_boot_list_2_driver_2_spi_flash_std
                0x000000008786d68c       0x48 drivers/built-in.o
                0x000000008786d68c                _u_boot_list_2_driver_2_spi_flash_std
 .u_boot_list_2_driver_2_spi_generic_drv
                0x000000008786d6d4       0x48 drivers/spi/built-in.o
                0x000000008786d6d4                _u_boot_list_2_driver_2_spi_generic_drv
 .u_boot_list_2_driver_2_usb_dev_generic_drv
                0x000000008786d71c       0x48 drivers/usb/host/built-in.o
                0x000000008786d71c                _u_boot_list_2_driver_2_usb_dev_generic_drv
 .u_boot_list_2_driver_2_usb_generic_hub
                0x000000008786d764       0x48 common/built-in.o
                0x000000008786d764                _u_boot_list_2_driver_2_usb_generic_hub
 .u_boot_list_2_driver_2_usb_mass_storage
                0x000000008786d7ac       0x48 common/built-in.o
                0x000000008786d7ac                _u_boot_list_2_driver_2_usb_mass_storage
 .u_boot_list_2_driver_2_usb_mx6
                0x000000008786d7f4       0x48 drivers/usb/host/built-in.o
                0x000000008786d7f4                _u_boot_list_2_driver_2_usb_mx6
 .u_boot_list_2_driver_2_usb_storage_blk
                0x000000008786d83c       0x48 common/built-in.o
                0x000000008786d83c                _u_boot_list_2_driver_2_usb_storage_blk
 .u_boot_list_2_driver_2_vidconsole_normal
                0x000000008786d884       0x48 drivers/built-in.o
                0x000000008786d884                _u_boot_list_2_driver_2_vidconsole_normal
 .u_boot_list_2_driver_3
                0x000000008786d8cc        0x0 drivers/built-in.o
 .u_boot_list_2_driver_3
                0x000000008786d8cc        0x0 lib/built-in.o
 .u_boot_list_2_driver_info_1
                0x000000008786d8cc        0x0 drivers/built-in.o
 .u_boot_list_2_driver_info_2_imx6_thermal
                0x000000008786d8cc        0x8 arch/arm/mach-imx/built-in.o
                0x000000008786d8cc                _u_boot_list_2_driver_info_2_imx6_thermal
 .u_boot_list_2_driver_info_3
                0x000000008786d8d4        0x0 drivers/built-in.o
 .u_boot_list_2_env_clbk_1
                0x000000008786d8d4        0x0 env/built-in.o
 .u_boot_list_2_env_clbk_2_baudrate
                0x000000008786d8d4        0x8 drivers/serial/built-in.o
                0x000000008786d8d4                _u_boot_list_2_env_clbk_2_baudrate
 .u_boot_list_2_env_clbk_2_callbacks
                0x000000008786d8dc        0x8 env/built-in.o
                0x000000008786d8dc                _u_boot_list_2_env_clbk_2_callbacks
 .u_boot_list_2_env_clbk_2_console
                0x000000008786d8e4        0x8 common/built-in.o
                0x000000008786d8e4                _u_boot_list_2_env_clbk_2_console
 .u_boot_list_2_env_clbk_2_ethaddr
                0x000000008786d8ec        0x8 net/built-in.o
                0x000000008786d8ec                _u_boot_list_2_env_clbk_2_ethaddr
 .u_boot_list_2_env_clbk_2_flags
                0x000000008786d8f4        0x8 env/built-in.o
                0x000000008786d8f4                _u_boot_list_2_env_clbk_2_flags
 .u_boot_list_2_env_clbk_2_gatewayip
                0x000000008786d8fc        0x8 net/built-in.o
                0x000000008786d8fc                _u_boot_list_2_env_clbk_2_gatewayip
 .u_boot_list_2_env_clbk_2_ipaddr
                0x000000008786d904        0x8 net/built-in.o
                0x000000008786d904                _u_boot_list_2_env_clbk_2_ipaddr
 .u_boot_list_2_env_clbk_2_loadaddr
                0x000000008786d90c        0x8 common/built-in.o
                0x000000008786d90c                _u_boot_list_2_env_clbk_2_loadaddr
 .u_boot_list_2_env_clbk_2_netmask
                0x000000008786d914        0x8 net/built-in.o
                0x000000008786d914                _u_boot_list_2_env_clbk_2_netmask
 .u_boot_list_2_env_clbk_2_nvlan
                0x000000008786d91c        0x8 net/built-in.o
                0x000000008786d91c                _u_boot_list_2_env_clbk_2_nvlan
 .u_boot_list_2_env_clbk_2_serialno
                0x000000008786d924        0x8 drivers/usb/gadget/built-in.o
                0x000000008786d924                _u_boot_list_2_env_clbk_2_serialno
 .u_boot_list_2_env_clbk_2_serverip
                0x000000008786d92c        0x8 net/built-in.o
                0x000000008786d92c                _u_boot_list_2_env_clbk_2_serverip
 .u_boot_list_2_env_clbk_2_vlan
                0x000000008786d934        0x8 net/built-in.o
                0x000000008786d934                _u_boot_list_2_env_clbk_2_vlan
 .u_boot_list_2_env_clbk_3
                0x000000008786d93c        0x0 env/built-in.o
 .u_boot_list_2_env_driver_1
                0x000000008786d93c        0x0 env/built-in.o
 .u_boot_list_2_env_driver_2_mmc
                0x000000008786d93c       0x18 env/built-in.o
                0x000000008786d93c                _u_boot_list_2_env_driver_2_mmc
 .u_boot_list_2_env_driver_3
                0x000000008786d954        0x0 env/built-in.o
 .u_boot_list_2_g_dnl_bind_callbacks_1
                0x000000008786d954        0x0 drivers/usb/gadget/built-in.o
 .u_boot_list_2_g_dnl_bind_callbacks_2___usb_function_name_usb_dnl_fastboot
                0x000000008786d954        0x8 drivers/usb/gadget/built-in.o
                0x000000008786d954                _u_boot_list_2_g_dnl_bind_callbacks_2___usb_function_name_usb_dnl_fastboot
 .u_boot_list_2_g_dnl_bind_callbacks_2___usb_function_name_usb_dnl_ums
                0x000000008786d95c        0x8 drivers/usb/gadget/built-in.o
                0x000000008786d95c                _u_boot_list_2_g_dnl_bind_callbacks_2___usb_function_name_usb_dnl_ums
 .u_boot_list_2_part_driver_1
                0x000000008786d964        0x0 disk/built-in.o
 .u_boot_list_2_part_driver_2_a_efi
                0x000000008786d964       0x18 disk/built-in.o
                0x000000008786d964                _u_boot_list_2_part_driver_2_a_efi
 .u_boot_list_2_part_driver_2_dos
                0x000000008786d97c       0x18 disk/built-in.o
                0x000000008786d97c                _u_boot_list_2_part_driver_2_dos
 .u_boot_list_2_part_driver_3
                0x000000008786d994        0x0 disk/built-in.o
 .u_boot_list_2_uclass_1
                0x000000008786d994        0x0 drivers/built-in.o
 .u_boot_list_2_uclass_2_backlight
                0x000000008786d994       0x4c drivers/built-in.o
                0x000000008786d994                _u_boot_list_2_uclass_2_backlight
 .u_boot_list_2_uclass_2_blk
                0x000000008786d9e0       0x4c drivers/built-in.o
                0x000000008786d9e0                _u_boot_list_2_uclass_2_blk
 .u_boot_list_2_uclass_2_efi
                0x000000008786da2c       0x4c lib/built-in.o
                0x000000008786da2c                _u_boot_list_2_uclass_2_efi
 .u_boot_list_2_uclass_2_eth
                0x000000008786da78       0x4c net/built-in.o
                0x000000008786da78                _u_boot_list_2_uclass_2_eth
 .u_boot_list_2_uclass_2_eth_phy_generic
                0x000000008786dac4       0x4c drivers/net/built-in.o
                0x000000008786dac4                _u_boot_list_2_uclass_2_eth_phy_generic
 .u_boot_list_2_uclass_2_gpio
                0x000000008786db10       0x4c drivers/gpio/built-in.o
                0x000000008786db10                _u_boot_list_2_uclass_2_gpio
 .u_boot_list_2_uclass_2_i2c
                0x000000008786db5c       0x4c drivers/i2c/built-in.o
                0x000000008786db5c                _u_boot_list_2_uclass_2_i2c
 .u_boot_list_2_uclass_2_i2c_generic
                0x000000008786dba8       0x4c drivers/i2c/built-in.o
                0x000000008786dba8                _u_boot_list_2_uclass_2_i2c_generic
 .u_boot_list_2_uclass_2_mmc
                0x000000008786dbf4       0x4c drivers/built-in.o
                0x000000008786dbf4                _u_boot_list_2_uclass_2_mmc
 .u_boot_list_2_uclass_2_nop
                0x000000008786dc40       0x4c drivers/built-in.o
                0x000000008786dc40                _u_boot_list_2_uclass_2_nop
 .u_boot_list_2_uclass_2_panel
                0x000000008786dc8c       0x4c drivers/built-in.o
                0x000000008786dc8c                _u_boot_list_2_uclass_2_panel
 .u_boot_list_2_uclass_2_pinconfig
                0x000000008786dcd8       0x4c drivers/built-in.o
                0x000000008786dcd8                _u_boot_list_2_uclass_2_pinconfig
 .u_boot_list_2_uclass_2_pinctrl
                0x000000008786dd24       0x4c drivers/built-in.o
                0x000000008786dd24                _u_boot_list_2_uclass_2_pinctrl
 .u_boot_list_2_uclass_2_regulator
                0x000000008786dd70       0x4c drivers/power/regulator/built-in.o
                0x000000008786dd70                _u_boot_list_2_uclass_2_regulator
 .u_boot_list_2_uclass_2_root
                0x000000008786ddbc       0x4c drivers/built-in.o
                0x000000008786ddbc                _u_boot_list_2_uclass_2_root
 .u_boot_list_2_uclass_2_simple_bus
                0x000000008786de08       0x4c drivers/built-in.o
                0x000000008786de08                _u_boot_list_2_uclass_2_simple_bus
 .u_boot_list_2_uclass_2_spi
                0x000000008786de54       0x4c drivers/spi/built-in.o
                0x000000008786de54                _u_boot_list_2_uclass_2_spi
 .u_boot_list_2_uclass_2_spi_generic
                0x000000008786dea0       0x4c drivers/spi/built-in.o
                0x000000008786dea0                _u_boot_list_2_uclass_2_spi_generic
 .u_boot_list_2_uclass_2_spi_nor
                0x000000008786deec       0x4c drivers/built-in.o
                0x000000008786deec                _u_boot_list_2_uclass_2_spi_nor
 .u_boot_list_2_uclass_2_thermal
                0x000000008786df38       0x4c drivers/built-in.o
                0x000000008786df38                _u_boot_list_2_uclass_2_thermal
 .u_boot_list_2_uclass_2_usb
                0x000000008786df84       0x4c drivers/usb/host/built-in.o
                0x000000008786df84                _u_boot_list_2_uclass_2_usb
 .u_boot_list_2_uclass_2_usb_dev_generic
                0x000000008786dfd0       0x4c drivers/usb/host/built-in.o
                0x000000008786dfd0                _u_boot_list_2_uclass_2_usb_dev_generic
 .u_boot_list_2_uclass_2_usb_gadget_generic
                0x000000008786e01c       0x4c drivers/usb/gadget/udc/built-in.o
                0x000000008786e01c                _u_boot_list_2_uclass_2_usb_gadget_generic
 .u_boot_list_2_uclass_2_usb_hub
                0x000000008786e068       0x4c common/built-in.o
                0x000000008786e068                _u_boot_list_2_uclass_2_usb_hub
 .u_boot_list_2_uclass_2_usb_mass_storage
                0x000000008786e0b4       0x4c common/built-in.o
                0x000000008786e0b4                _u_boot_list_2_uclass_2_usb_mass_storage
 .u_boot_list_2_uclass_2_vidconsole
                0x000000008786e100       0x4c drivers/built-in.o
                0x000000008786e100                _u_boot_list_2_uclass_2_vidconsole
 .u_boot_list_2_uclass_2_video
                0x000000008786e14c       0x4c drivers/built-in.o
                0x000000008786e14c                _u_boot_list_2_uclass_2_video
 .u_boot_list_2_uclass_3
                0x000000008786e198        0x0 drivers/built-in.o
 .u_boot_list_2_usb_driver_entry_1
                0x000000008786e198        0x0 drivers/usb/host/built-in.o
 .u_boot_list_2_usb_driver_entry_2_asix_eth
                0x000000008786e198        0x8 drivers/usb/eth/built-in.o
                0x000000008786e198                _u_boot_list_2_usb_driver_entry_2_asix_eth
 .u_boot_list_2_usb_driver_entry_2_usb_generic_hub
                0x000000008786e1a0        0x8 common/built-in.o
                0x000000008786e1a0                _u_boot_list_2_usb_driver_entry_2_usb_generic_hub
 .u_boot_list_2_usb_driver_entry_2_usb_mass_storage
                0x000000008786e1a8        0x8 common/built-in.o
                0x000000008786e1a8                _u_boot_list_2_usb_driver_entry_2_usb_mass_storage
 .u_boot_list_2_usb_driver_entry_3
                0x000000008786e1b0        0x0 drivers/usb/host/built-in.o
                0x000000008786e1b0                . = ALIGN (0x4)

.efi_runtime_rel_start
                0x000000008786e1b0        0x0
 *(.__efi_runtime_rel_start)
 .__efi_runtime_rel_start
                0x000000008786e1b0        0x0 arch/arm/lib/built-in.o

.efi_runtime_rel
                0x000000008786e1b0       0xa0
 *(.rel*.efi_runtime)
 .rel.text.efi_runtime
                0x000000008786e1b0       0x10 arch/arm/cpu/armv7/start.o
 .rel.data.efi_runtime
                0x000000008786e1c0       0x90 arch/arm/cpu/armv7/start.o
 *(.rel*.efi_runtime.*)

.efi_runtime_rel_stop
                0x000000008786e250        0x0
 *(.__efi_runtime_rel_stop)
 .__efi_runtime_rel_stop
                0x000000008786e250        0x0 arch/arm/lib/built-in.o
                0x000000008786e250                . = ALIGN (0x4)

.image_copy_end
                0x000000008786e250        0x0
 *(.__image_copy_end)
 .__image_copy_end
                0x000000008786e250        0x0 arch/arm/lib/built-in.o

.rel_dyn_start  0x000000008786e250        0x0
 *(.__rel_dyn_start)
 .__rel_dyn_start
                0x000000008786e250        0x0 arch/arm/lib/built-in.o

.rel.dyn        0x000000008786e250     0xd7f8
 *(.rel*)
 .rel.got       0x000000008786e250        0x0 arch/arm/cpu/armv7/start.o
 .rel.plt       0x000000008786e250        0x0 arch/arm/cpu/armv7/start.o
 .rel.bss       0x000000008786e250        0x0 arch/arm/cpu/armv7/start.o
 .rel.data.rel.ro
                0x000000008786e250        0x0 arch/arm/cpu/armv7/start.o
 .rel.iplt      0x000000008786e250        0x0 arch/arm/cpu/armv7/start.o
 .rel.text      0x000000008786e250       0x20 arch/arm/cpu/armv7/start.o
 .rel.vectors   0x000000008786e270       0x38 arch/arm/cpu/armv7/start.o
 .rel.text.relocate_vectors
                0x000000008786e2a8       0x20 arch/arm/cpu/armv7/start.o
 .rel.text.setup_initrd_tag.isra.0
                0x000000008786e2c8        0x8 arch/arm/cpu/armv7/start.o
 .rel.text.boot_jump_linux
                0x000000008786e2d0       0x28 arch/arm/cpu/armv7/start.o
 .rel.text.boot_prep_linux
                0x000000008786e2f8       0x18 arch/arm/cpu/armv7/start.o
 .rel.text.boot_prep_vxworks
                0x000000008786e310       0x10 arch/arm/cpu/armv7/start.o
 .rel.text.bootz_setup
                0x000000008786e320       0x10 arch/arm/cpu/armv7/start.o
 .rel.text.interrupt_init
                0x000000008786e330        0x8 arch/arm/cpu/armv7/start.o
 .rel.text.bad_mode
                0x000000008786e338        0x8 arch/arm/cpu/armv7/start.o
 .rel.text.show_regs
                0x000000008786e340       0x88 arch/arm/cpu/armv7/start.o
 .rel.text.do_undefined_instruction
                0x000000008786e3c8        0x8 arch/arm/cpu/armv7/start.o
 .rel.text.do_software_interrupt
                0x000000008786e3d0        0x8 arch/arm/cpu/armv7/start.o
 .rel.text.do_prefetch_abort
                0x000000008786e3d8        0x8 arch/arm/cpu/armv7/start.o
 .rel.text.do_data_abort
                0x000000008786e3e0        0x8 arch/arm/cpu/armv7/start.o
 .rel.text.do_not_used
                0x000000008786e3e8        0x8 arch/arm/cpu/armv7/start.o
 .rel.text.do_fiq
                0x000000008786e3f0        0x8 arch/arm/cpu/armv7/start.o
 .rel.text.do_irq
                0x000000008786e3f8        0x8 arch/arm/cpu/armv7/start.o
 .rel.text.do_reset
                0x000000008786e400        0x8 arch/arm/cpu/armv7/start.o
 .rel.text.check_cache_range
                0x000000008786e408        0x8 arch/arm/cpu/armv7/start.o
 .rel.rodata    0x000000008786e410      0x100 arch/arm/cpu/armv7/start.o
 .rel.text.imx_iomux_v3_setup_pad
                0x000000008786e510        0x8 arch/arm/cpu/armv7/start.o
 .rel.text.get_imx_reset_cause
                0x000000008786e518        0x8 arch/arm/cpu/armv7/start.o
 .rel.text.get_reset_cause
                0x000000008786e520       0x50 arch/arm/cpu/armv7/start.o
 .rel.text.get_reboot_reason
                0x000000008786e570        0x8 arch/arm/cpu/armv7/start.o
 .rel.text.get_imx_type
                0x000000008786e578      0x350 arch/arm/cpu/armv7/start.o
 .rel.text.print_cpuinfo
                0x000000008786e8c8       0x58 arch/arm/cpu/armv7/start.o
 .rel.text.imx_ddr_size
                0x000000008786e920       0x10 arch/arm/cpu/armv7/start.o
 .rel.text.create_usage
                0x000000008786e930       0x10 arch/arm/cpu/armv7/start.o
 .rel.text.do_boot_mode
                0x000000008786e940       0x10 arch/arm/cpu/armv7/start.o
 .rel.text.add_board_boot_modes
                0x000000008786e950       0x18 arch/arm/cpu/armv7/start.o
 .rel.text.set_ldo_voltage
                0x000000008786e968        0x8 arch/arm/cpu/armv7/start.o
 .rel.text.mmc_get_env_dev
                0x000000008786e970        0x8 arch/arm/cpu/armv7/start.o
 .rel.text.get_ipg_clk
                0x000000008786e978        0x8 arch/arm/cpu/armv7/start.o
 .rel.text.enable_pll_video.constprop.0
                0x000000008786e980       0x18 arch/arm/cpu/armv7/start.o
 .rel.text.get_uart_clk
                0x000000008786e998        0x8 arch/arm/cpu/armv7/start.o
 .rel.text.mxc_get_pll_pfd
                0x000000008786e9a0        0x8 arch/arm/cpu/armv7/start.o
 .rel.text.get_usdhc_clk
                0x000000008786e9a8        0x8 arch/arm/cpu/armv7/start.o
 .rel.text.enable_ocotp_clk
                0x000000008786e9b0        0x8 arch/arm/cpu/armv7/start.o
 .rel.text.enable_usboh3_clk
                0x000000008786e9b8        0x8 arch/arm/cpu/armv7/start.o
 .rel.text.enable_enet_clk
                0x000000008786e9c0        0x8 arch/arm/cpu/armv7/start.o
 .rel.text.enable_i2c_clk
                0x000000008786e9c8        0x8 arch/arm/cpu/armv7/start.o
 .rel.text.get_periph_clk
                0x000000008786e9d0        0x8 arch/arm/cpu/armv7/start.o
 .rel.text.get_axi_clk
                0x000000008786e9d8        0x8 arch/arm/cpu/armv7/start.o
 .rel.text.enable_lcdif_clock
                0x000000008786e9e0       0x10 arch/arm/cpu/armv7/start.o
 .rel.text.mxs_set_lcdclk
                0x000000008786e9f0       0x18 arch/arm/cpu/armv7/start.o
 .rel.text.enable_qspi_clk
                0x000000008786ea08        0x8 arch/arm/cpu/armv7/start.o
 .rel.text.mxc_get_clock
                0x000000008786ea10       0x10 arch/arm/cpu/armv7/start.o
 .rel.text.do_mx6_showclocks
                0x000000008786ea20       0x90 arch/arm/cpu/armv7/start.o
 .rel.text.check_module_fused
                0x000000008786eab0        0x8 arch/arm/cpu/armv7/start.o
 .rel.text.ft_system_setup
                0x000000008786eab8       0x30 arch/arm/cpu/armv7/start.o
 .rel.rodata.soc_boot_modes
                0x000000008786eae8       0x58 arch/arm/cpu/armv7/start.o
 .rel.rodata.mx6_fuse_descs
                0x000000008786eb40      0x260 arch/arm/cpu/armv7/start.o
 .rel.u_boot_list_2_cmd_2_bmode
                0x000000008786eda0       0x20 arch/arm/cpu/armv7/start.o
 .rel.u_boot_list_2_driver_info_2_imx6_thermal
                0x000000008786edc0       0x10 arch/arm/cpu/armv7/start.o
 .rel.u_boot_list_2_cmd_2_clocks
                0x000000008786edd0       0x28 arch/arm/cpu/armv7/start.o
 .rel.text.board_late_mmc_env_init
                0x000000008786edf8       0x30 arch/arm/cpu/armv7/start.o
 .rel.text.board_early_init_f
                0x000000008786ee28        0x8 arch/arm/cpu/armv7/start.o
 .rel.text.board_late_init
                0x000000008786ee30       0x68 arch/arm/cpu/armv7/start.o
 .rel.text.checkboard
                0x000000008786ee98       0x10 arch/arm/cpu/armv7/start.o
 .rel.rodata.board_boot_modes
                0x000000008786eea8       0x18 arch/arm/cpu/armv7/start.o
 .rel.text.do_go
                0x000000008786eec0       0x10 arch/arm/cpu/armv7/start.o
 .rel.text.do_bootm
                0x000000008786eed0       0x18 arch/arm/cpu/armv7/start.o
 .rel.text.do_bootd
                0x000000008786eee8        0x8 arch/arm/cpu/armv7/start.o
 .rel.text.image_info
                0x000000008786eef0       0x48 arch/arm/cpu/armv7/start.o
 .rel.text.do_iminfo
                0x000000008786ef38        0x8 arch/arm/cpu/armv7/start.o
 .rel.text.bootm_maybe_autostart
                0x000000008786ef40       0x20 arch/arm/cpu/armv7/start.o
 .rel.text.do_help
                0x000000008786ef60       0x10 arch/arm/cpu/armv7/start.o
 .rel.text.do_version
                0x000000008786ef70       0x10 arch/arm/cpu/armv7/start.o
 .rel.text.blk_common_cmd
                0x000000008786ef80       0x78 arch/arm/cpu/armv7/start.o
 .rel.text.image_source_script
                0x000000008786eff8       0x38 arch/arm/cpu/armv7/start.o
 .rel.text.do_source
                0x000000008786f030        0x8 arch/arm/cpu/armv7/start.o
 .rel.text.print_num
                0x000000008786f038        0x8 arch/arm/cpu/armv7/start.o
 .rel.text.do_bdinfo
                0x000000008786f040       0x70 arch/arm/cpu/armv7/start.o
 .rel.text.do_blkcache
                0x000000008786f0b0        0x8 arch/arm/cpu/armv7/start.o
 .rel.text.blkc_configure
                0x000000008786f0b8        0x8 arch/arm/cpu/armv7/start.o
 .rel.text.blkc_show
                0x000000008786f0c0        0x8 arch/arm/cpu/armv7/start.o
 .rel.text.do_bmp
                0x000000008786f0c8        0x8 arch/arm/cpu/armv7/start.o
 .rel.text.do_bmp_info
                0x000000008786f0d0       0x28 arch/arm/cpu/armv7/start.o
 .rel.text.bmp_display
                0x000000008786f0f8        0x8 arch/arm/cpu/armv7/start.o
 .rel.text.do_bmp_display
                0x000000008786f100       0x10 arch/arm/cpu/armv7/start.o
 .rel.text.efi_reserve_memory
                0x000000008786f110        0x8 arch/arm/cpu/armv7/start.o
 .rel.text.do_bootefi_exec
                0x000000008786f118       0x38 arch/arm/cpu/armv7/start.o
 .rel.text.efi_install_fdt
                0x000000008786f150       0x68 arch/arm/cpu/armv7/start.o
 .rel.text.efi_run_image
                0x000000008786f1b8       0x20 arch/arm/cpu/armv7/start.o
 .rel.text.do_bootefi
                0x000000008786f1d8       0x20 arch/arm/cpu/armv7/start.o
 .rel.text.efi_set_bootdev
                0x000000008786f1f8       0x10 arch/arm/cpu/armv7/start.o
 .rel.text.do_bootz
                0x000000008786f208       0x18 arch/arm/cpu/armv7/start.o
 .rel.text.parse_argv
                0x000000008786f220       0x18 arch/arm/cpu/armv7/start.o
 .rel.text.do_icache
                0x000000008786f238       0x18 arch/arm/cpu/armv7/start.o
 .rel.text.do_dcache
                0x000000008786f250       0x18 arch/arm/cpu/armv7/start.o
 .rel.text.do_coninfo
                0x000000008786f268       0x30 arch/arm/cpu/armv7/start.o
 .rel.text.do_dm
                0x000000008786f298        0x8 arch/arm/cpu/armv7/start.o
 .rel.text.do_echo
                0x000000008786f2a0        0x8 arch/arm/cpu/armv7/start.o
 .rel.text.valid_elf_image
                0x000000008786f2a8       0x10 arch/arm/cpu/armv7/start.o
 .rel.text.do_bootelf
                0x000000008786f2b8       0x28 arch/arm/cpu/armv7/start.o
 .rel.text.do_bootvx
                0x000000008786f2e0       0xe0 arch/arm/cpu/armv7/start.o
 .rel.text.do_fat_fsinfo
                0x000000008786f3c0       0x10 arch/arm/cpu/armv7/start.o
 .rel.text.do_fat_fswrite
                0x000000008786f3d0       0x18 arch/arm/cpu/armv7/start.o
 .rel.text.fdt_valid
                0x000000008786f3e8       0x28 arch/arm/cpu/armv7/start.o
 .rel.text.is_printable_string
                0x000000008786f410        0x8 arch/arm/cpu/armv7/start.o
 .rel.text.print_data
                0x000000008786f418       0x58 arch/arm/cpu/armv7/start.o
 .rel.text.set_working_fdt_addr
                0x000000008786f470       0x10 arch/arm/cpu/armv7/start.o
 .rel.text.do_fdt
                0x000000008786f480      0x280 arch/arm/cpu/armv7/start.o
 .rel.text.do_fuse
                0x000000008786f700       0x70 arch/arm/cpu/armv7/start.o
 .rel.text.gpio_get_description
                0x000000008786f770       0x18 arch/arm/cpu/armv7/start.o
 .rel.text.do_gpio
                0x000000008786f788       0x50 arch/arm/cpu/armv7/start.o
 .rel.text.do_i2c
                0x000000008786f7d8        0x8 arch/arm/cpu/armv7/start.o
 .rel.text.i2c_get_cur_bus
                0x000000008786f7e0       0x10 arch/arm/cpu/armv7/start.o
 .rel.text.do_i2c_bus_speed
                0x000000008786f7f0       0x18 arch/arm/cpu/armv7/start.o
 .rel.text.do_i2c_reset
                0x000000008786f808        0x8 arch/arm/cpu/armv7/start.o
 .rel.text.do_i2c_probe
                0x000000008786f810       0x10 arch/arm/cpu/armv7/start.o
 .rel.text.do_i2c_bus_num
                0x000000008786f820       0x20 arch/arm/cpu/armv7/start.o
 .rel.text.show_bus
                0x000000008786f840       0x20 arch/arm/cpu/armv7/start.o
 .rel.text.do_i2c_olen
                0x000000008786f860       0x18 arch/arm/cpu/armv7/start.o
 .rel.text.do_i2c_flags
                0x000000008786f878       0x18 arch/arm/cpu/armv7/start.o
 .rel.text.do_i2c_show_bus
                0x000000008786f890        0x8 arch/arm/cpu/armv7/start.o
 .rel.text.do_i2c_crc
                0x000000008786f898       0x20 arch/arm/cpu/armv7/start.o
 .rel.text.mod_i2c_mem.isra.0.part.0
                0x000000008786f8b8       0x60 arch/arm/cpu/armv7/start.o
 .rel.text.do_i2c_md
                0x000000008786f918       0x58 arch/arm/cpu/armv7/start.o
 .rel.text.do_i2c_read
                0x000000008786f970       0x10 arch/arm/cpu/armv7/start.o
 .rel.text.do_i2c_mw
                0x000000008786f980       0x10 arch/arm/cpu/armv7/start.o
 .rel.text.do_i2c_write
                0x000000008786f990       0x18 arch/arm/cpu/armv7/start.o
 .rel.text.do_i2c_loop
                0x000000008786f9a8       0x18 arch/arm/cpu/armv7/start.o
 .rel.text.binary_test
                0x000000008786f9c0       0x18 arch/arm/cpu/armv7/start.o
 .rel.text.do_itest
                0x000000008786f9d8        0x8 arch/arm/cpu/armv7/start.o
 .rel.text.bin_data_init
                0x000000008786f9e0       0x18 arch/arm/cpu/armv7/start.o
 .rel.text.k_data_save
                0x000000008786f9f8       0x30 arch/arm/cpu/armv7/start.o
 .rel.text.k_data_restore
                0x000000008786fa28       0x30 arch/arm/cpu/armv7/start.o
 .rel.text.load_serial_ymodem
                0x000000008786fa58       0x20 arch/arm/cpu/armv7/start.o
 .rel.text.bin_data_char
                0x000000008786fa78       0x10 arch/arm/cpu/armv7/start.o
 .rel.text.chk1.constprop.0
                0x000000008786fa88        0x8 arch/arm/cpu/armv7/start.o
 .rel.text.s1_sendpacket.constprop.0
                0x000000008786fa90       0x18 arch/arm/cpu/armv7/start.o
 .rel.text.load_serial
                0x000000008786faa8       0x20 arch/arm/cpu/armv7/start.o
 .rel.text.do_load_serial
                0x000000008786fac8       0x30 arch/arm/cpu/armv7/start.o
 .rel.text.do_load_serial_bin
                0x000000008786faf8      0x110 arch/arm/cpu/armv7/start.o
 .rel.text.do_mem_md
                0x000000008786fc08       0x20 arch/arm/cpu/armv7/start.o
 .rel.text.do_mem_base
                0x000000008786fc28       0x10 arch/arm/cpu/armv7/start.o
 .rel.text.do_mem_crc
                0x000000008786fc38        0x8 arch/arm/cpu/armv7/start.o
 .rel.text.do_mem_mtest
                0x000000008786fc40       0x40 arch/arm/cpu/armv7/start.o
 .rel.text.do_mem_mw
                0x000000008786fc80        0x8 arch/arm/cpu/armv7/start.o
 .rel.text.do_mem_cmp
                0x000000008786fc88       0x38 arch/arm/cpu/armv7/start.o
 .rel.text.mod_mem.isra.0.part.0
                0x000000008786fcc0       0x48 arch/arm/cpu/armv7/start.o
 .rel.text.do_mem_cp
                0x000000008786fd08       0x10 arch/arm/cpu/armv7/start.o
 .rel.text.do_random
                0x000000008786fd18       0x18 arch/arm/cpu/armv7/start.o
 .rel.text.do_mmcops
                0x000000008786fd30       0x20 arch/arm/cpu/armv7/start.o
 .rel.text.init_mmc_device
                0x000000008786fd50        0x8 arch/arm/cpu/armv7/start.o
 .rel.text.do_mmc_rst_func
                0x000000008786fd58       0x10 arch/arm/cpu/armv7/start.o
 .rel.text.do_mmc_rescan
                0x000000008786fd68        0x8 arch/arm/cpu/armv7/start.o
 .rel.text.do_mmc_partconf
                0x000000008786fd70       0x18 arch/arm/cpu/armv7/start.o
 .rel.text.do_mmc_bootbus
                0x000000008786fd88        0x8 arch/arm/cpu/armv7/start.o
 .rel.text.do_mmc_hwpartition
                0x000000008786fd90       0xb0 arch/arm/cpu/armv7/start.o
 .rel.text.do_mmc_dev
                0x000000008786fe40       0x38 arch/arm/cpu/armv7/start.o
 .rel.text.do_mmcinfo
                0x000000008786fe78      0x110 arch/arm/cpu/armv7/start.o
 .rel.text.do_mmc_setdsr
                0x000000008786ff88       0x28 arch/arm/cpu/armv7/start.o
 .rel.text.do_mmc_boot_resize
                0x000000008786ffb0       0x20 arch/arm/cpu/armv7/start.o
 .rel.text.do_mmc_part
                0x000000008786ffd0       0x10 arch/arm/cpu/armv7/start.o
 .rel.text.do_mmc_erase
                0x000000008786ffe0       0x30 arch/arm/cpu/armv7/start.o
 .rel.text.do_mmc_write
                0x0000000087870010       0x30 arch/arm/cpu/armv7/start.o
 .rel.text.do_mmc_read
                0x0000000087870040       0x28 arch/arm/cpu/armv7/start.o
 .rel.text.mtd_arg_off
                0x0000000087870068       0x10 arch/arm/cpu/armv7/start.o
 .rel.text.mtd_arg_off_size
                0x0000000087870078       0x28 arch/arm/cpu/armv7/start.o
 .rel.text.netboot_common
                0x00000000878700a0       0xa8 arch/arm/cpu/armv7/start.o
 .rel.text.do_ping
                0x0000000087870148       0x18 arch/arm/cpu/armv7/start.o
 .rel.text.do_pinmux
                0x0000000087870160        0x8 arch/arm/cpu/armv7/start.o
 .rel.text.do_list
                0x0000000087870168       0x20 arch/arm/cpu/armv7/start.o
 .rel.text.show_pinmux
                0x0000000087870188       0x20 arch/arm/cpu/armv7/start.o
 .rel.text.do_status
                0x00000000878701a8       0x28 arch/arm/cpu/armv7/start.o
 .rel.text.do_dev
                0x00000000878701d0       0x20 arch/arm/cpu/armv7/start.o
 .rel.text.do_raw_read
                0x00000000878701f0       0x28 arch/arm/cpu/armv7/start.o
 .rel.text.do_spi_flash
                0x0000000087870218       0xf8 arch/arm/cpu/armv7/start.o
 .rel.text.substitute
                0x0000000087870310        0x8 arch/arm/cpu/armv7/start.o
 .rel.text.regex_sub.part.0
                0x0000000087870318       0x30 arch/arm/cpu/armv7/start.o
 .rel.text.do_setexpr
                0x0000000087870348       0x18 arch/arm/cpu/armv7/start.o
 .rel.text.do_test
                0x0000000087870360        0x8 arch/arm/cpu/armv7/start.o
 .rel.text.usb_get_class_desc
                0x0000000087870368       0x50 arch/arm/cpu/armv7/start.o
 .rel.text.usb_display_class_sub
                0x00000000878703b8       0x98 arch/arm/cpu/armv7/start.o
 .rel.text.usb_display_desc
                0x0000000087870450       0x38 arch/arm/cpu/armv7/start.o
 .rel.text.usb_show_tree_graph
                0x0000000087870488       0x48 arch/arm/cpu/armv7/start.o
 .rel.text.usb_display_string
                0x00000000878704d0        0x8 arch/arm/cpu/armv7/start.o
 .rel.text.usb_display_config
                0x00000000878704d8       0xa8 arch/arm/cpu/armv7/start.o
 .rel.text.do_usbboot
                0x0000000087870580        0x8 arch/arm/cpu/armv7/start.o
 .rel.text.do_usb_start
                0x0000000087870588        0x8 arch/arm/cpu/armv7/start.o
 .rel.text.usb_show_tree
                0x0000000087870590        0x8 arch/arm/cpu/armv7/start.o
 .rel.text.do_usb
                0x0000000087870598       0xf0 arch/arm/cpu/armv7/start.o
 .rel.text.common_diskboot
                0x0000000087870688       0x28 arch/arm/cpu/armv7/start.o
 .rel.text.do_fastboot
                0x00000000878706b0       0x48 arch/arm/cpu/armv7/start.o
 .rel.text.ums_fini
                0x00000000878706f8       0x10 arch/arm/cpu/armv7/start.o
 .rel.text.do_usb_mass_storage
                0x0000000087870708       0x98 arch/arm/cpu/armv7/start.o
 .rel.text.do_imgextract
                0x00000000878707a0       0x90 arch/arm/cpu/armv7/start.o
 .rel.text.del_gpt_info
                0x0000000087870830        0x8 arch/arm/cpu/armv7/start.o
 .rel.text.extract_val
                0x0000000087870838       0x10 arch/arm/cpu/armv7/start.o
 .rel.text.calc_parts_list_len
                0x0000000087870848       0x28 arch/arm/cpu/armv7/start.o
 .rel.text.extract_env
                0x0000000087870870        0x8 arch/arm/cpu/armv7/start.o
 .rel.text.get_gpt_info
                0x0000000087870878       0x10 arch/arm/cpu/armv7/start.o
 .rel.text.create_gpt_partitions_list.isra.0
                0x0000000087870888       0x38 arch/arm/cpu/armv7/start.o
 .rel.text.set_gpt_info.isra.0
                0x00000000878708c0       0x58 arch/arm/cpu/armv7/start.o
 .rel.text.print_gpt_info
                0x0000000087870918       0x40 arch/arm/cpu/armv7/start.o
 .rel.text.do_gpt
                0x0000000087870958       0xc0 arch/arm/cpu/armv7/start.o
 .rel.text.do_env_delete
                0x0000000087870a18       0x10 arch/arm/cpu/armv7/start.o
 .rel.text.do_env
                0x0000000087870a28        0x8 arch/arm/cpu/armv7/start.o
 .rel.text.env_print
                0x0000000087870a30       0x18 arch/arm/cpu/armv7/start.o
 .rel.text.do_env_print
                0x0000000087870a48       0x10 arch/arm/cpu/armv7/start.o
 .rel.text.do_env_import
                0x0000000087870a58       0x50 arch/arm/cpu/armv7/start.o
 .rel.text.do_env_default
                0x0000000087870aa8        0x8 arch/arm/cpu/armv7/start.o
 .rel.text.do_env_exists
                0x0000000087870ab0        0x8 arch/arm/cpu/armv7/start.o
 .rel.text._do_env_set.isra.0
                0x0000000087870ab8       0x30 arch/arm/cpu/armv7/start.o
 .rel.text.env_get_id
                0x0000000087870ae8        0x8 arch/arm/cpu/armv7/start.o
 .rel.text.env_set
                0x0000000087870af0        0x8 arch/arm/cpu/armv7/start.o
 .rel.text.env_set_hex
                0x0000000087870af8        0x8 arch/arm/cpu/armv7/start.o
 .rel.text.do_env_export
                0x0000000087870b00       0x30 arch/arm/cpu/armv7/start.o
 .rel.text.env_get_f
                0x0000000087870b30        0x8 arch/arm/cpu/armv7/start.o
 .rel.text.env_get
                0x0000000087870b38        0x8 arch/arm/cpu/armv7/start.o
 .rel.text.eth_env_set_enetaddr
                0x0000000087870b40        0x8 arch/arm/cpu/armv7/start.o
 .rel.text.do_env_edit.part.0
                0x0000000087870b48       0x18 arch/arm/cpu/armv7/start.o
 .rel.rodata.fdt_member_table
                0x0000000087870b60       0x50 arch/arm/cpu/armv7/start.o
 .rel.rodata.op_table
                0x0000000087870bb0       0x68 arch/arm/cpu/armv7/start.o
 .rel.rodata.op_adv
                0x0000000087870c18       0x80 arch/arm/cpu/armv7/start.o
 .rel.rodata.CSWTCH.45
                0x0000000087870c98       0x28 arch/arm/cpu/armv7/start.o
 .rel.u_boot_list_2_cmd_2_go
                0x0000000087870cc0       0x28 arch/arm/cpu/armv7/start.o
 .rel.u_boot_list_2_cmd_2_reset
                0x0000000087870ce8       0x28 arch/arm/cpu/armv7/start.o
 .rel.data.cmd_bootm_sub
                0x0000000087870d10      0x120 arch/arm/cpu/armv7/start.o
 .rel.u_boot_list_2_cmd_2_boot
                0x0000000087870e30       0x28 arch/arm/cpu/armv7/start.o
 .rel.u_boot_list_2_cmd_2_bootd
                0x0000000087870e58       0x28 arch/arm/cpu/armv7/start.o
 .rel.u_boot_list_2_cmd_2_bootm
                0x0000000087870e80       0x28 arch/arm/cpu/armv7/start.o
 .rel.u_boot_list_2_cmd_2_iminfo
                0x0000000087870ea8       0x28 arch/arm/cpu/armv7/start.o
 .rel.u_boot_list_2_cmd_2_help
                0x0000000087870ed0       0x28 arch/arm/cpu/armv7/start.o
 .rel.u_boot_list_2_cmd_2_question_mark
                0x0000000087870ef8       0x28 arch/arm/cpu/armv7/start.o
 .rel.u_boot_list_2_cmd_2_version
                0x0000000087870f20       0x28 arch/arm/cpu/armv7/start.o
 .rel.u_boot_list_2_cmd_2_source
                0x0000000087870f48       0x28 arch/arm/cpu/armv7/start.o
 .rel.u_boot_list_2_cmd_2_bdinfo
                0x0000000087870f70       0x28 arch/arm/cpu/armv7/start.o
 .rel.data.cmd_blkc_sub
                0x0000000087870f98       0x50 arch/arm/cpu/armv7/start.o
 .rel.u_boot_list_2_cmd_2_blkcache
                0x0000000087870fe8       0x28 arch/arm/cpu/armv7/start.o
 .rel.data.cmd_bmp_sub
                0x0000000087871010       0x50 arch/arm/cpu/armv7/start.o
 .rel.u_boot_list_2_cmd_2_bmp
                0x0000000087871060       0x28 arch/arm/cpu/armv7/start.o
 .rel.u_boot_list_2_cmd_2_bootefi
                0x0000000087871088       0x28 arch/arm/cpu/armv7/start.o
 .rel.u_boot_list_2_cmd_2_bootz
                0x00000000878710b0       0x28 arch/arm/cpu/armv7/start.o
 .rel.u_boot_list_2_cmd_2_dcache
                0x00000000878710d8       0x28 arch/arm/cpu/armv7/start.o
 .rel.u_boot_list_2_cmd_2_icache
                0x0000000087871100       0x28 arch/arm/cpu/armv7/start.o
 .rel.u_boot_list_2_cmd_2_coninfo
                0x0000000087871128       0x28 arch/arm/cpu/armv7/start.o
 .rel.data.test_commands
                0x0000000087871150       0xa0 arch/arm/cpu/armv7/start.o
 .rel.u_boot_list_2_cmd_2_dm
                0x00000000878711f0       0x28 arch/arm/cpu/armv7/start.o
 .rel.u_boot_list_2_cmd_2_echo
                0x0000000087871218       0x28 arch/arm/cpu/armv7/start.o
 .rel.u_boot_list_2_cmd_2_bootelf
                0x0000000087871240       0x28 arch/arm/cpu/armv7/start.o
 .rel.u_boot_list_2_cmd_2_bootvx
                0x0000000087871268       0x28 arch/arm/cpu/armv7/start.o
 .rel.u_boot_list_2_cmd_2_exit
                0x0000000087871290       0x28 arch/arm/cpu/armv7/start.o
 .rel.u_boot_list_2_cmd_2_ext4load
                0x00000000878712b8       0x28 arch/arm/cpu/armv7/start.o
 .rel.u_boot_list_2_cmd_2_ext4ls
                0x00000000878712e0       0x28 arch/arm/cpu/armv7/start.o
 .rel.u_boot_list_2_cmd_2_ext4size
                0x0000000087871308       0x28 arch/arm/cpu/armv7/start.o
 .rel.u_boot_list_2_cmd_2_ext4write
                0x0000000087871330       0x28 arch/arm/cpu/armv7/start.o
 .rel.u_boot_list_2_cmd_2_ext2load
                0x0000000087871358       0x28 arch/arm/cpu/armv7/start.o
 .rel.u_boot_list_2_cmd_2_ext2ls
                0x0000000087871380       0x28 arch/arm/cpu/armv7/start.o
 .rel.u_boot_list_2_cmd_2_fatinfo
                0x00000000878713a8       0x28 arch/arm/cpu/armv7/start.o
 .rel.u_boot_list_2_cmd_2_fatload
                0x00000000878713d0       0x28 arch/arm/cpu/armv7/start.o
 .rel.u_boot_list_2_cmd_2_fatls
                0x00000000878713f8       0x28 arch/arm/cpu/armv7/start.o
 .rel.u_boot_list_2_cmd_2_fatmkdir
                0x0000000087871420       0x28 arch/arm/cpu/armv7/start.o
 .rel.u_boot_list_2_cmd_2_fatrm
                0x0000000087871448       0x28 arch/arm/cpu/armv7/start.o
 .rel.u_boot_list_2_cmd_2_fatsize
                0x0000000087871470       0x28 arch/arm/cpu/armv7/start.o
 .rel.u_boot_list_2_cmd_2_fatwrite
                0x0000000087871498       0x28 arch/arm/cpu/armv7/start.o
 .rel.u_boot_list_2_cmd_2_fdt
                0x00000000878714c0       0x28 arch/arm/cpu/armv7/start.o
 .rel.u_boot_list_2_cmd_2_erase
                0x00000000878714e8       0x28 arch/arm/cpu/armv7/start.o
 .rel.u_boot_list_2_cmd_2_flinfo
                0x0000000087871510       0x28 arch/arm/cpu/armv7/start.o
 .rel.u_boot_list_2_cmd_2_protect
                0x0000000087871538       0x28 arch/arm/cpu/armv7/start.o
 .rel.u_boot_list_2_cmd_2_fstype
                0x0000000087871560       0x28 arch/arm/cpu/armv7/start.o
 .rel.u_boot_list_2_cmd_2_ln
                0x0000000087871588       0x28 arch/arm/cpu/armv7/start.o
 .rel.u_boot_list_2_cmd_2_load
                0x00000000878715b0       0x28 arch/arm/cpu/armv7/start.o
 .rel.u_boot_list_2_cmd_2_ls
                0x00000000878715d8       0x28 arch/arm/cpu/armv7/start.o
 .rel.u_boot_list_2_cmd_2_save
                0x0000000087871600       0x28 arch/arm/cpu/armv7/start.o
 .rel.u_boot_list_2_cmd_2_size
                0x0000000087871628       0x28 arch/arm/cpu/armv7/start.o
 .rel.u_boot_list_2_cmd_2_fuse
                0x0000000087871650       0x28 arch/arm/cpu/armv7/start.o
 .rel.u_boot_list_2_cmd_2_gpio
                0x0000000087871678       0x28 arch/arm/cpu/armv7/start.o
 .rel.data.cmd_i2c_sub
                0x00000000878716a0      0x258 arch/arm/cpu/armv7/start.o
 .rel.u_boot_list_2_cmd_2_i2c
                0x00000000878718f8       0x28 arch/arm/cpu/armv7/start.o
 .rel.u_boot_list_2_cmd_2_itest
                0x0000000087871920       0x28 arch/arm/cpu/armv7/start.o
 .rel.u_boot_list_2_cmd_2_loadb
                0x0000000087871948       0x28 arch/arm/cpu/armv7/start.o
 .rel.u_boot_list_2_cmd_2_loads
                0x0000000087871970       0x28 arch/arm/cpu/armv7/start.o
 .rel.u_boot_list_2_cmd_2_loadx
                0x0000000087871998       0x28 arch/arm/cpu/armv7/start.o
 .rel.u_boot_list_2_cmd_2_loady
                0x00000000878719c0       0x28 arch/arm/cpu/armv7/start.o
 .rel.u_boot_list_2_cmd_2_base
                0x00000000878719e8       0x28 arch/arm/cpu/armv7/start.o
 .rel.u_boot_list_2_cmd_2_cmp
                0x0000000087871a10       0x28 arch/arm/cpu/armv7/start.o
 .rel.u_boot_list_2_cmd_2_cp
                0x0000000087871a38       0x28 arch/arm/cpu/armv7/start.o
 .rel.u_boot_list_2_cmd_2_crc32
                0x0000000087871a60       0x28 arch/arm/cpu/armv7/start.o
 .rel.u_boot_list_2_cmd_2_loop
                0x0000000087871a88       0x28 arch/arm/cpu/armv7/start.o
 .rel.u_boot_list_2_cmd_2_md
                0x0000000087871ab0       0x28 arch/arm/cpu/armv7/start.o
 .rel.u_boot_list_2_cmd_2_mm
                0x0000000087871ad8       0x28 arch/arm/cpu/armv7/start.o
 .rel.u_boot_list_2_cmd_2_mtest
                0x0000000087871b00       0x28 arch/arm/cpu/armv7/start.o
 .rel.u_boot_list_2_cmd_2_mw
                0x0000000087871b28       0x28 arch/arm/cpu/armv7/start.o
 .rel.u_boot_list_2_cmd_2_nm
                0x0000000087871b50       0x28 arch/arm/cpu/armv7/start.o
 .rel.u_boot_list_2_cmd_2_random
                0x0000000087871b78       0x28 arch/arm/cpu/armv7/start.o
 .rel.u_boot_list_2_cmd_2_sleep
                0x0000000087871ba0       0x28 arch/arm/cpu/armv7/start.o
 .rel.data.cmd_mmc
                0x0000000087871bc8      0x230 arch/arm/cpu/armv7/start.o
 .rel.u_boot_list_2_cmd_2_mmc
                0x0000000087871df8       0x28 arch/arm/cpu/armv7/start.o
 .rel.u_boot_list_2_cmd_2_mmcinfo
                0x0000000087871e20       0x28 arch/arm/cpu/armv7/start.o
 .rel.u_boot_list_2_cmd_2_bootp
                0x0000000087871e48       0x28 arch/arm/cpu/armv7/start.o
 .rel.u_boot_list_2_cmd_2_dhcp
                0x0000000087871e70       0x28 arch/arm/cpu/armv7/start.o
 .rel.u_boot_list_2_cmd_2_nfs
                0x0000000087871e98       0x28 arch/arm/cpu/armv7/start.o
 .rel.u_boot_list_2_cmd_2_ping
                0x0000000087871ec0       0x28 arch/arm/cpu/armv7/start.o
 .rel.u_boot_list_2_cmd_2_tftpboot
                0x0000000087871ee8       0x28 arch/arm/cpu/armv7/start.o
 .rel.data.pinmux_subcmd
                0x0000000087871f10       0x78 arch/arm/cpu/armv7/start.o
 .rel.u_boot_list_2_cmd_2_pinmux
                0x0000000087871f88       0x28 arch/arm/cpu/armv7/start.o
 .rel.u_boot_list_2_cmd_2_read
                0x0000000087871fb0       0x28 arch/arm/cpu/armv7/start.o
 .rel.u_boot_list_2_cmd_2_sf
                0x0000000087871fd8       0x28 arch/arm/cpu/armv7/start.o
 .rel.u_boot_list_2_cmd_2_setexpr
                0x0000000087872000       0x28 arch/arm/cpu/armv7/start.o
 .rel.u_boot_list_2_cmd_2_false
                0x0000000087872028       0x20 arch/arm/cpu/armv7/start.o
 .rel.u_boot_list_2_cmd_2_test
                0x0000000087872048       0x28 arch/arm/cpu/armv7/start.o
 .rel.u_boot_list_2_cmd_2_true
                0x0000000087872070       0x20 arch/arm/cpu/armv7/start.o
 .rel.u_boot_list_2_cmd_2_usb
                0x0000000087872090       0x28 arch/arm/cpu/armv7/start.o
 .rel.u_boot_list_2_cmd_2_usbboot
                0x00000000878720b8       0x28 arch/arm/cpu/armv7/start.o
 .rel.u_boot_list_2_cmd_2_fastboot
                0x00000000878720e0       0x28 arch/arm/cpu/armv7/start.o
 .rel.u_boot_list_2_cmd_2_ums
                0x0000000087872108       0x28 arch/arm/cpu/armv7/start.o
 .rel.u_boot_list_2_cmd_2_imxtract
                0x0000000087872130       0x28 arch/arm/cpu/armv7/start.o
 .rel.data.disk_partitions
                0x0000000087872158       0x10 arch/arm/cpu/armv7/start.o
 .rel.u_boot_list_2_cmd_2_gpt
                0x0000000087872168       0x28 arch/arm/cpu/armv7/start.o
 .rel.data.cmd_env_sub
                0x0000000087872190      0x190 arch/arm/cpu/armv7/start.o
 .rel.u_boot_list_2_cmd_2_editenv
                0x0000000087872320       0x30 arch/arm/cpu/armv7/start.o
 .rel.u_boot_list_2_cmd_2_env
                0x0000000087872350       0x28 arch/arm/cpu/armv7/start.o
 .rel.u_boot_list_2_cmd_2_printenv
                0x0000000087872378       0x30 arch/arm/cpu/armv7/start.o
 .rel.u_boot_list_2_cmd_2_run
                0x00000000878723a8       0x30 arch/arm/cpu/armv7/start.o
 .rel.u_boot_list_2_cmd_2_saveenv
                0x00000000878723d8       0x28 arch/arm/cpu/armv7/start.o
 .rel.u_boot_list_2_cmd_2_setenv
                0x0000000087872400       0x30 arch/arm/cpu/armv7/start.o
 .rel.text.main_loop
                0x0000000087872430        0x8 arch/arm/cpu/armv7/start.o
 .rel.text.jumptable_init
                0x0000000087872438       0xc0 arch/arm/cpu/armv7/start.o
 .rel.text.hash_command
                0x00000000878724f8        0x8 arch/arm/cpu/armv7/start.o
 .rel.text.mapset
                0x0000000087872500        0x8 arch/arm/cpu/armv7/start.o
 .rel.text.syntax_err
                0x0000000087872508        0x8 arch/arm/cpu/armv7/start.o
 .rel.text.xmalloc
                0x0000000087872510        0x8 arch/arm/cpu/armv7/start.o
 .rel.text.xrealloc
                0x0000000087872518        0x8 arch/arm/cpu/armv7/start.o
 .rel.text.done_word
                0x0000000087872520        0x8 arch/arm/cpu/armv7/start.o
 .rel.text.is_assignment
                0x0000000087872528        0x8 arch/arm/cpu/armv7/start.o
 .rel.text.file_get
                0x0000000087872530       0x30 arch/arm/cpu/armv7/start.o
 .rel.text.do_showvar
                0x0000000087872560       0x20 arch/arm/cpu/armv7/start.o
 .rel.text.b_addqchr
                0x0000000087872580        0x8 arch/arm/cpu/armv7/start.o
 .rel.text.get_local_var
                0x0000000087872588       0x20 arch/arm/cpu/armv7/start.o
 .rel.text.set_local_var
                0x00000000878725a8       0x20 arch/arm/cpu/armv7/start.o
 .rel.text.insert_var_value_sub
                0x00000000878725c8        0x8 arch/arm/cpu/armv7/start.o
 .rel.text.parse_string_outer
                0x00000000878725d0       0x18 arch/arm/cpu/armv7/start.o
 .rel.text.run_list_real
                0x00000000878725e8       0x50 arch/arm/cpu/armv7/start.o
 .rel.text.parse_stream_outer
                0x0000000087872638       0x70 arch/arm/cpu/armv7/start.o
 .rel.text.parse_file_outer
                0x00000000878726a8       0x10 arch/arm/cpu/armv7/start.o
 .rel.text.u_boot_hush_start
                0x00000000878726b8       0x18 arch/arm/cpu/armv7/start.o
 .rel.text.bootdelay_process
                0x00000000878726d0       0x70 arch/arm/cpu/armv7/start.o
 .rel.text.autoboot_command
                0x0000000087872740       0x20 arch/arm/cpu/armv7/start.o
 .rel.text.setup_mon_len
                0x0000000087872760       0x10 arch/arm/cpu/armv7/start.o
 .rel.text.announce_dram_init
                0x0000000087872770        0x8 arch/arm/cpu/armv7/start.o
 .rel.text.init_baud_rate
                0x0000000087872778        0x8 arch/arm/cpu/armv7/start.o
 .rel.text.show_dram_config
                0x0000000087872780        0x8 arch/arm/cpu/armv7/start.o
 .rel.text.board_init_f
                0x0000000087872788       0x10 arch/arm/cpu/armv7/start.o
 .rel.text.initr_net
                0x0000000087872798        0x8 arch/arm/cpu/armv7/start.o
 .rel.text.initr_ethaddr
                0x00000000878727a0        0x8 arch/arm/cpu/armv7/start.o
 .rel.text.initr_env
                0x00000000878727a8       0x20 arch/arm/cpu/armv7/start.o
 .rel.text.initr_mmc
                0x00000000878727c8        0x8 arch/arm/cpu/armv7/start.o
 .rel.text.initr_reloc_global_data
                0x00000000878727d0       0x18 arch/arm/cpu/armv7/start.o
 .rel.text.board_init_r
                0x00000000878727e8       0x10 arch/arm/cpu/armv7/start.o
 .rel.text.show_board_info
                0x00000000878727f8       0x10 arch/arm/cpu/armv7/start.o
 .rel.text.bootm_find_images
                0x0000000087872808       0x18 arch/arm/cpu/armv7/start.o
 .rel.text.do_bootm_states
                0x0000000087872820       0xe8 arch/arm/cpu/armv7/start.o
 .rel.text.do_bootm_vxworks
                0x0000000087872908       0x48 arch/arm/cpu/armv7/start.o
 .rel.text.do_bootm_rtems
                0x0000000087872950        0x8 arch/arm/cpu/armv7/start.o
 .rel.text.do_bootm_plan9
                0x0000000087872958       0x18 arch/arm/cpu/armv7/start.o
 .rel.text.do_bootm_standalone
                0x0000000087872970       0x18 arch/arm/cpu/armv7/start.o
 .rel.text.do_bootm_qnxelf
                0x0000000087872988        0x8 arch/arm/cpu/armv7/start.o
 .rel.text.do_bootm_netbsd
                0x0000000087872990       0x18 arch/arm/cpu/armv7/start.o
 .rel.text.bootm_os_get_boot_func
                0x00000000878729a8        0x8 arch/arm/cpu/armv7/start.o
 .rel.text.fdt_support_default_count_cells
                0x00000000878729b0        0x8 arch/arm/cpu/armv7/start.o
 .rel.text.__of_translate_address
                0x00000000878729b8       0x18 arch/arm/cpu/armv7/start.o
 .rel.text.fdt_find_or_add_subnode
                0x00000000878729d0       0x10 arch/arm/cpu/armv7/start.o
 .rel.text.fdt_root
                0x00000000878729e0       0x20 arch/arm/cpu/armv7/start.o
 .rel.text.fdt_initrd
                0x0000000087872a00       0x30 arch/arm/cpu/armv7/start.o
 .rel.text.fdt_chosen
                0x0000000087872a30       0x20 arch/arm/cpu/armv7/start.o
 .rel.text.do_fixup_by_path
                0x0000000087872a50        0x8 arch/arm/cpu/armv7/start.o
 .rel.text.fdt_fixup_memory_banks
                0x0000000087872a58       0x38 arch/arm/cpu/armv7/start.o
 .rel.text.fdt_fixup_ethernet
                0x0000000087872a90       0x30 arch/arm/cpu/armv7/start.o
 .rel.text.fdt_translate_address
                0x0000000087872ac0        0x8 arch/arm/cpu/armv7/start.o
 .rel.text.miiphy_get_dev_by_name
                0x0000000087872ac8       0x10 arch/arm/cpu/armv7/start.o
 .rel.text.miiphy_init
                0x0000000087872ad8       0x10 arch/arm/cpu/armv7/start.o
 .rel.text.mdio_register
                0x0000000087872ae8       0x18 arch/arm/cpu/armv7/start.o
 .rel.text.mdio_unregister
                0x0000000087872b00        0x8 arch/arm/cpu/armv7/start.o
 .rel.text.get_descriptor_len
                0x0000000087872b08       0x10 arch/arm/cpu/armv7/start.o
 .rel.text.usb_setup_descriptor
                0x0000000087872b18       0x10 arch/arm/cpu/armv7/start.o
 .rel.text.usb_string_sub
                0x0000000087872b28        0x8 arch/arm/cpu/armv7/start.o
 .rel.text.usb_get_configuration_len
                0x0000000087872b30       0x10 arch/arm/cpu/armv7/start.o
 .rel.text.usb_set_interface
                0x0000000087872b40        0x8 arch/arm/cpu/armv7/start.o
 .rel.text.usb_select_config
                0x0000000087872b48       0x70 arch/arm/cpu/armv7/start.o
 .rel.text.usb_setup_device
                0x0000000087872bb8       0x10 arch/arm/cpu/armv7/start.o
 .rel.text.usb_find_usb2_hub_address_port
                0x0000000087872bc8        0x8 arch/arm/cpu/armv7/start.o
 .rel.text.usb_hub_port_connect_change
                0x0000000087872bd0        0x8 arch/arm/cpu/armv7/start.o
 .rel.text.usb_hub_configure
                0x0000000087872bd8       0x28 arch/arm/cpu/armv7/start.o
 .rel.text.usb_stor_BBB_transport
                0x0000000087872c00       0x10 arch/arm/cpu/armv7/start.o
 .rel.text.usb_stor_CB_comdat
                0x0000000087872c10        0x8 arch/arm/cpu/armv7/start.o
 .rel.text.usb_stor_CBI_get_status.isra.0
                0x0000000087872c18        0x8 arch/arm/cpu/armv7/start.o
 .rel.text.usb_stor_CB_transport
                0x0000000087872c20       0x10 arch/arm/cpu/armv7/start.o
 .rel.text.usb_request_sense.constprop.0
                0x0000000087872c30        0x8 arch/arm/cpu/armv7/start.o
 .rel.text.usb_stor_read
                0x0000000087872c38        0x8 arch/arm/cpu/armv7/start.o
 .rel.text.usb_stor_write
                0x0000000087872c40        0x8 arch/arm/cpu/armv7/start.o
 .rel.text.usb_stor_info
                0x0000000087872c48       0x10 arch/arm/cpu/armv7/start.o
 .rel.text.usb_stor_reset
                0x0000000087872c58        0x8 arch/arm/cpu/armv7/start.o
 .rel.text.usb_stor_scan
                0x0000000087872c60       0x18 arch/arm/cpu/armv7/start.o
 .rel.text.usb_storage_probe
                0x0000000087872c78       0x38 arch/arm/cpu/armv7/start.o
 .rel.text.usb_stor_get_info
                0x0000000087872cb0       0x20 arch/arm/cpu/armv7/start.o
 .rel.text.usb_mass_storage_probe
                0x0000000087872cd0       0x18 arch/arm/cpu/armv7/start.o
 .rel.text.iomux_doenv
                0x0000000087872ce8       0x10 arch/arm/cpu/armv7/start.o
 .rel.text.splash_screen_prepare
                0x0000000087872cf8       0x18 arch/arm/cpu/armv7/start.o
 .rel.text.splash_get_pos
                0x0000000087872d10        0x8 arch/arm/cpu/armv7/start.o
 .rel.text.splash_display
                0x0000000087872d18        0x8 arch/arm/cpu/armv7/start.o
 .rel.text.delete_char.part.0
                0x0000000087872d20       0x10 arch/arm/cpu/armv7/start.o
 .rel.text.cread_add_char
                0x0000000087872d30        0x8 arch/arm/cpu/armv7/start.o
 .rel.text.cli_readline_into_buffer
                0x0000000087872d38      0x108 arch/arm/cpu/armv7/start.o
 .rel.text.cli_readline
                0x0000000087872e40        0x8 arch/arm/cpu/armv7/start.o
 .rel.text.console_tstc
                0x0000000087872e48       0x20 arch/arm/cpu/armv7/start.o
 .rel.text.console_putc
                0x0000000087872e68       0x10 arch/arm/cpu/armv7/start.o
 .rel.text.console_puts
                0x0000000087872e78       0x10 arch/arm/cpu/armv7/start.o
 .rel.text.on_console
                0x0000000087872e88       0x20 arch/arm/cpu/armv7/start.o
 .rel.text.console_getc.isra.0
                0x0000000087872ea8        0x8 arch/arm/cpu/armv7/start.o
 .rel.text.getc
                0x0000000087872eb0        0x8 arch/arm/cpu/armv7/start.o
 .rel.text.ctrlc
                0x0000000087872eb8       0x10 arch/arm/cpu/armv7/start.o
 .rel.text.confirm_yesno
                0x0000000087872ec8       0x20 arch/arm/cpu/armv7/start.o
 .rel.text.disable_ctrlc
                0x0000000087872ee8        0x8 arch/arm/cpu/armv7/start.o
 .rel.text.had_ctrlc
                0x0000000087872ef0        0x8 arch/arm/cpu/armv7/start.o
 .rel.text.clear_ctrlc
                0x0000000087872ef8        0x8 arch/arm/cpu/armv7/start.o
 .rel.text.console_assign
                0x0000000087872f00       0x30 arch/arm/cpu/armv7/start.o
 .rel.text.stdio_print_current_devices
                0x0000000087872f30       0x40 arch/arm/cpu/armv7/start.o
 .rel.text.console_init_r
                0x0000000087872f70       0x48 arch/arm/cpu/armv7/start.o
 .rel.text.sbrk
                0x0000000087872fb8       0x18 arch/arm/cpu/armv7/start.o
 .rel.text.mem_malloc_init
                0x0000000087872fd0       0x18 arch/arm/cpu/armv7/start.o
 .rel.text.malloc_trim
                0x0000000087872fe8       0x18 arch/arm/cpu/armv7/start.o
 .rel.text.free
                0x0000000087873000       0x20 arch/arm/cpu/armv7/start.o
 .rel.text.malloc
                0x0000000087873020       0x48 arch/arm/cpu/armv7/start.o
 .rel.text.calloc
                0x0000000087873068        0x8 arch/arm/cpu/armv7/start.o
 .rel.text.realloc
                0x0000000087873070       0x10 arch/arm/cpu/armv7/start.o
 .rel.text.on_loadaddr
                0x0000000087873080        0x8 arch/arm/cpu/armv7/start.o
 .rel.text.env_get_bootm_low
                0x0000000087873088        0x8 arch/arm/cpu/armv7/start.o
 .rel.text.env_get_bootm_size
                0x0000000087873090       0x10 arch/arm/cpu/armv7/start.o
 .rel.text.env_get_bootm_mapsize
                0x00000000878730a0        0x8 arch/arm/cpu/armv7/start.o
 .rel.text.genimg_print_size
                0x00000000878730a8       0x10 arch/arm/cpu/armv7/start.o
 .rel.text.genimg_get_os_name
                0x00000000878730b8       0x10 arch/arm/cpu/armv7/start.o
 .rel.text.genimg_get_arch_name
                0x00000000878730c8       0x10 arch/arm/cpu/armv7/start.o
 .rel.text.genimg_get_type_name
                0x00000000878730d8       0x10 arch/arm/cpu/armv7/start.o
 .rel.text.image_decomp
                0x00000000878730e8       0x28 arch/arm/cpu/armv7/start.o
 .rel.text.genimg_get_comp_name
                0x0000000087873110       0x10 arch/arm/cpu/armv7/start.o
 .rel.text.image_print_contents
                0x0000000087873120       0x58 arch/arm/cpu/armv7/start.o
 .rel.text.genimg_get_kernel_addr_fit
                0x0000000087873178        0x8 arch/arm/cpu/armv7/start.o
 .rel.text.boot_get_ramdisk
                0x0000000087873180       0x58 arch/arm/cpu/armv7/start.o
 .rel.text.boot_ramdisk_high
                0x00000000878731d8       0x20 arch/arm/cpu/armv7/start.o
 .rel.text.append_kernel_cmdline
                0x00000000878731f8       0xa0 arch/arm/cpu/armv7/start.o
 .rel.text.android_image_get_kernel
                0x0000000087873298       0x40 arch/arm/cpu/armv7/start.o
 .rel.text.android_image_check_header
                0x00000000878732d8        0x8 arch/arm/cpu/armv7/start.o
 .rel.text.android_image_get_ramdisk
                0x00000000878732e0        0x8 arch/arm/cpu/armv7/start.o
 .rel.text.android_image_get_second
                0x00000000878732e8        0x8 arch/arm/cpu/armv7/start.o
 .rel.text.android_print_contents
                0x00000000878732f0       0x90 arch/arm/cpu/armv7/start.o
 .rel.text.fdt_error
                0x0000000087873380       0x10 arch/arm/cpu/armv7/start.o
 .rel.text.boot_fdt_add_mem_rsv_regions
                0x0000000087873390       0x20 arch/arm/cpu/armv7/start.o
 .rel.text.boot_relocate_fdt
                0x00000000878733b0       0x40 arch/arm/cpu/armv7/start.o
 .rel.text.boot_get_fdt
                0x00000000878733f0       0x90 arch/arm/cpu/armv7/start.o
 .rel.text.image_setup_libfdt
                0x0000000087873480       0x28 arch/arm/cpu/armv7/start.o
 .rel.text.stdio_get_list
                0x00000000878734a8        0x8 arch/arm/cpu/armv7/start.o
 .rel.text.stdio_get_by_name
                0x00000000878734b0       0x10 arch/arm/cpu/armv7/start.o
 .rel.text.stdio_register_dev
                0x00000000878734c0        0x8 arch/arm/cpu/armv7/start.o
 .rel.text.stdio_deregister_dev
                0x00000000878734c8       0x18 arch/arm/cpu/armv7/start.o
 .rel.text.stdio_init_tables
                0x00000000878734e0        0x8 arch/arm/cpu/armv7/start.o
 .rel.text.stdio_add_devices
                0x00000000878734e8       0x48 arch/arm/cpu/armv7/start.o
 .rel.text.do_run
                0x0000000087873530        0x8 arch/arm/cpu/armv7/start.o
 .rel.text.cli_process_fdt
                0x0000000087873538       0x10 arch/arm/cpu/armv7/start.o
 .rel.text.cli_secure_boot_cmd
                0x0000000087873548       0x18 arch/arm/cpu/armv7/start.o
 .rel.text.find_cmd
                0x0000000087873560       0x10 arch/arm/cpu/armv7/start.o
 .rel.text.cmd_usage
                0x0000000087873570       0x18 arch/arm/cpu/armv7/start.o
 .rel.text._do_help
                0x0000000087873588       0x10 arch/arm/cpu/armv7/start.o
 .rel.text.var_complete
                0x0000000087873598       0x10 arch/arm/cpu/armv7/start.o
 .rel.text.complete_subcmdv
                0x00000000878735a8        0x8 arch/arm/cpu/armv7/start.o
 .rel.text.cmd_auto_complete
                0x00000000878735b0       0x40 arch/arm/cpu/armv7/start.o
 .rel.text.cmd_get_data_size
                0x00000000878735f0        0x8 arch/arm/cpu/armv7/start.o
 .rel.text.cmd_process
                0x00000000878735f8       0x38 arch/arm/cpu/armv7/start.o
 .rel.text.cmd_process_error
                0x0000000087873630        0x8 arch/arm/cpu/armv7/start.o
 .rel.text.srec_decode
                0x0000000087873638       0x50 arch/arm/cpu/armv7/start.o
 .rel.text.xyzModem_get_hdr
                0x0000000087873688       0x30 arch/arm/cpu/armv7/start.o
 .rel.text.xyzModem_stream_open
                0x00000000878736b8       0x10 arch/arm/cpu/armv7/start.o
 .rel.text.xyzModem_stream_read
                0x00000000878736c8        0x8 arch/arm/cpu/armv7/start.o
 .rel.text.xyzModem_stream_close
                0x00000000878736d0       0x20 arch/arm/cpu/armv7/start.o
 .rel.text.xyzModem_stream_terminate
                0x00000000878736f0        0x8 arch/arm/cpu/armv7/start.o
 .rel.text.xyzModem_error
                0x00000000878736f8       0x10 arch/arm/cpu/armv7/start.o
 .rel.rodata.init_sequence_f
                0x0000000087873708      0x188 arch/arm/cpu/armv7/start.o
 .rel.rodata.boot_os
                0x0000000087873890       0x38 arch/arm/cpu/armv7/start.o
 .rel.rodata.usb_hub_ids
                0x00000000878738c8        0x8 arch/arm/cpu/armv7/start.o
 .rel.rodata.usb_mass_storage_ids
                0x00000000878738d0        0x8 arch/arm/cpu/armv7/start.o
 .rel.rodata.usb_storage_ops
                0x00000000878738d8       0x10 arch/arm/cpu/armv7/start.o
 .rel.rodata.uimage_arch
                0x00000000878738e8      0x1b0 arch/arm/cpu/armv7/start.o
 .rel.rodata.uimage_comp
                0x0000000087873a98       0x70 arch/arm/cpu/armv7/start.o
 .rel.rodata.uimage_os
                0x0000000087873b08       0xe0 arch/arm/cpu/armv7/start.o
 .rel.rodata.uimage_type
                0x0000000087873be8      0x280 arch/arm/cpu/armv7/start.o
 .rel.rodata.CSWTCH.32
                0x0000000087873e68       0x80 arch/arm/cpu/armv7/start.o
 .rel.data.reserved_list
                0x0000000087873ee8       0x58 arch/arm/cpu/armv7/start.o
 .rel.u_boot_list_2_cmd_2_showvar
                0x0000000087873f40       0x28 arch/arm/cpu/armv7/start.o
 .rel.data.init_sequence_r
                0x0000000087873f68      0x100 arch/arm/cpu/armv7/start.o
 .rel.data.of_busses
                0x0000000087874068       0x28 arch/arm/cpu/armv7/start.o
 .rel.data.usb_scan_list
                0x0000000087874090       0x10 arch/arm/cpu/armv7/start.o
 .rel.u_boot_list_2_driver_2_usb_generic_hub
                0x00000000878740a0       0x10 arch/arm/cpu/armv7/start.o
 .rel.u_boot_list_2_uclass_2_usb_hub
                0x00000000878740b0       0x20 arch/arm/cpu/armv7/start.o
 .rel.u_boot_list_2_usb_driver_entry_2_usb_generic_hub
                0x00000000878740d0       0x10 arch/arm/cpu/armv7/start.o
 .rel.u_boot_list_2_driver_2_usb_mass_storage
                0x00000000878740e0       0x18 arch/arm/cpu/armv7/start.o
 .rel.u_boot_list_2_driver_2_usb_storage_blk
                0x00000000878740f8       0x10 arch/arm/cpu/armv7/start.o
 .rel.u_boot_list_2_uclass_2_usb_mass_storage
                0x0000000087874108        0x8 arch/arm/cpu/armv7/start.o
 .rel.u_boot_list_2_usb_driver_entry_2_usb_mass_storage
                0x0000000087874110       0x10 arch/arm/cpu/armv7/start.o
 .rel.u_boot_list_2_env_clbk_2_console
                0x0000000087874120       0x10 arch/arm/cpu/armv7/start.o
 .rel.data.av_  0x0000000087874130      0x800 arch/arm/cpu/armv7/start.o
 .rel.u_boot_list_2_env_clbk_2_loadaddr
                0x0000000087874930       0x10 arch/arm/cpu/armv7/start.o
 .rel.data.stdio_names
                0x0000000087874940       0x18 arch/arm/cpu/armv7/start.o
 .rel.text.part_driver_lookup_type
                0x0000000087874958       0x10 arch/arm/cpu/armv7/start.o
 .rel.text.dev_print
                0x0000000087874968       0x90 arch/arm/cpu/armv7/start.o
 .rel.text.part_init
                0x00000000878749f8       0x10 arch/arm/cpu/armv7/start.o
 .rel.text.part_print
                0x0000000087874a08       0x70 arch/arm/cpu/armv7/start.o
 .rel.text.part_get_info_whole_disk
                0x0000000087874a78       0x10 arch/arm/cpu/armv7/start.o
 .rel.text.blk_get_device_by_str
                0x0000000087874a88       0x10 arch/arm/cpu/armv7/start.o
 .rel.text.blk_get_device_part_str
                0x0000000087874a98       0x58 arch/arm/cpu/armv7/start.o
 .rel.text.part_set_generic_name
                0x0000000087874af0       0x18 arch/arm/cpu/armv7/start.o
 .rel.text.test_block_type
                0x0000000087874b08       0x10 arch/arm/cpu/armv7/start.o
 .rel.text.print_partition_extended
                0x0000000087874b18       0x38 arch/arm/cpu/armv7/start.o
 .rel.text.part_print_dos
                0x0000000087874b50        0x8 arch/arm/cpu/armv7/start.o
 .rel.text.part_get_info_extended
                0x0000000087874b58       0x28 arch/arm/cpu/armv7/start.o
 .rel.text.print_efiname
                0x0000000087874b80       0x10 arch/arm/cpu/armv7/start.o
 .rel.text.validate_gpt_header
                0x0000000087874b90       0x30 arch/arm/cpu/armv7/start.o
 .rel.text.is_gpt_valid
                0x0000000087874bc0       0x40 arch/arm/cpu/armv7/start.o
 .rel.text.is_pte_valid
                0x0000000087874c00       0x10 arch/arm/cpu/armv7/start.o
 .rel.text.find_valid_gpt
                0x0000000087874c10       0x10 arch/arm/cpu/armv7/start.o
 .rel.text.part_print_efi
                0x0000000087874c20       0x40 arch/arm/cpu/armv7/start.o
 .rel.text.part_get_info_efi
                0x0000000087874c60       0x28 arch/arm/cpu/armv7/start.o
 .rel.text.write_gpt_table
                0x0000000087874c88       0x20 arch/arm/cpu/armv7/start.o
 .rel.text.gpt_fill_pte
                0x0000000087874ca8       0x20 arch/arm/cpu/armv7/start.o
 .rel.text.gpt_fill_header
                0x0000000087874cc8        0x8 arch/arm/cpu/armv7/start.o
 .rel.text.gpt_restore
                0x0000000087874cd0       0x10 arch/arm/cpu/armv7/start.o
 .rel.text.gpt_verify_headers
                0x0000000087874ce0       0x18 arch/arm/cpu/armv7/start.o
 .rel.text.gpt_verify_partitions
                0x0000000087874cf8       0x20 arch/arm/cpu/armv7/start.o
 .rel.text.write_backup_gpt_partitions
                0x0000000087874d18       0x28 arch/arm/cpu/armv7/start.o
 .rel.u_boot_list_2_part_driver_2_dos
                0x0000000087874d40       0x20 arch/arm/cpu/armv7/start.o
 .rel.u_boot_list_2_part_driver_2_a_efi
                0x0000000087874d60       0x20 arch/arm/cpu/armv7/start.o
 .rel.text.device_bind_common.isra.0
                0x0000000087874d80       0x10 arch/arm/cpu/armv7/start.o
 .rel.text.device_probe
                0x0000000087874d90       0x18 arch/arm/cpu/armv7/start.o
 .rel.text.dev_get_platdata
                0x0000000087874da8       0x10 arch/arm/cpu/armv7/start.o
 .rel.text.dev_get_parent_platdata
                0x0000000087874db8       0x10 arch/arm/cpu/armv7/start.o
 .rel.text.dev_get_uclass_platdata
                0x0000000087874dc8       0x10 arch/arm/cpu/armv7/start.o
 .rel.text.dev_get_priv
                0x0000000087874dd8       0x10 arch/arm/cpu/armv7/start.o
 .rel.text.dev_get_uclass_priv
                0x0000000087874de8       0x10 arch/arm/cpu/armv7/start.o
 .rel.text.dev_get_parent_priv
                0x0000000087874df8       0x10 arch/arm/cpu/armv7/start.o
 .rel.text.devfdt_get_addr_index
                0x0000000087874e08        0x8 arch/arm/cpu/armv7/start.o
 .rel.text.devfdt_get_addr_size_index
                0x0000000087874e10        0x8 arch/arm/cpu/armv7/start.o
 .rel.text.lists_driver_lookup_name
                0x0000000087874e18       0x10 arch/arm/cpu/armv7/start.o
 .rel.text.lists_uclass_lookup
                0x0000000087874e28       0x10 arch/arm/cpu/armv7/start.o
 .rel.text.lists_bind_drivers
                0x0000000087874e38       0x18 arch/arm/cpu/armv7/start.o
 .rel.text.lists_bind_fdt
                0x0000000087874e50       0x28 arch/arm/cpu/armv7/start.o
 .rel.text.dm_scan_fdt_node
                0x0000000087874e78       0x18 arch/arm/cpu/armv7/start.o
 .rel.text.dm_root
                0x0000000087874e90        0x8 arch/arm/cpu/armv7/start.o
 .rel.text.dm_init
                0x0000000087874e98       0x10 arch/arm/cpu/armv7/start.o
 .rel.text.dm_scan_platdata
                0x0000000087874ea8        0x8 arch/arm/cpu/armv7/start.o
 .rel.text.dm_extended_scan_fdt
                0x0000000087874eb0       0x10 arch/arm/cpu/armv7/start.o
 .rel.text.uclass_resolve_seq
                0x0000000087874ec0        0x8 arch/arm/cpu/armv7/start.o
 .rel.text.dm_ofnode_pre_reloc
                0x0000000087874ec8       0x20 arch/arm/cpu/armv7/start.o
 .rel.text.devres_free
                0x0000000087874ee8       0x18 arch/arm/cpu/armv7/start.o
 .rel.text.devres_add
                0x0000000087874f00       0x18 arch/arm/cpu/armv7/start.o
 .rel.text.devm_kmalloc
                0x0000000087874f18        0x8 arch/arm/cpu/armv7/start.o
 .rel.text.devm_kfree
                0x0000000087874f20       0x28 arch/arm/cpu/armv7/start.o
 .rel.text.device_remove
                0x0000000087874f48       0x20 arch/arm/cpu/armv7/start.o
 .rel.text.simple_bus_post_bind
                0x0000000087874f68        0x8 arch/arm/cpu/armv7/start.o
 .rel.text.show_devices
                0x0000000087874f70       0x30 arch/arm/cpu/armv7/start.o
 .rel.text.dm_dump_all
                0x0000000087874fa0       0x10 arch/arm/cpu/armv7/start.o
 .rel.text.dm_dump_uclass
                0x0000000087874fb0       0x20 arch/arm/cpu/armv7/start.o
 .rel.text.dm_dump_drivers
                0x0000000087874fd0       0x48 arch/arm/cpu/armv7/start.o
 .rel.text.ofnode_decode_display_timing
                0x0000000087875018       0x88 arch/arm/cpu/armv7/start.o
 .rel.text.ofnode_pre_reloc
                0x00000000878750a0       0x20 arch/arm/cpu/armv7/start.o
 .rel.text.spi_flash_probe_bus_cs
                0x00000000878750c0       0x10 arch/arm/cpu/armv7/start.o
 .rel.text.spi_flash_std_probe
                0x00000000878750d0        0x8 arch/arm/cpu/armv7/start.o
 .rel.text.spi_flash_std_erase
                0x00000000878750d8        0x8 arch/arm/cpu/armv7/start.o
 .rel.text.spi_nor_wait_till_ready_with_timeout.constprop.0
                0x00000000878750e0       0x20 arch/arm/cpu/armv7/start.o
 .rel.text.spi_nor_scan
                0x0000000087875100       0xa0 arch/arm/cpu/armv7/start.o
 .rel.text.pinconfig_post_bind
                0x00000000878751a0       0x18 arch/arm/cpu/armv7/start.o
 .rel.text.pinctrl_select_state
                0x00000000878751b8       0x18 arch/arm/cpu/armv7/start.o
 .rel.text.imx_pinctrl_set_state
                0x00000000878751d0       0x28 arch/arm/cpu/armv7/start.o
 .rel.text.imx_pinctrl_probe
                0x00000000878751f8       0x28 arch/arm/cpu/armv7/start.o
 .rel.text.blk_get_if_type_name
                0x0000000087875220        0x8 arch/arm/cpu/armv7/start.o
 .rel.text.blk_get_devnum_by_typename
                0x0000000087875228       0x10 arch/arm/cpu/armv7/start.o
 .rel.text.blk_list_devices
                0x0000000087875238        0x8 arch/arm/cpu/armv7/start.o
 .rel.text.blk_print_device_num
                0x0000000087875240        0x8 arch/arm/cpu/armv7/start.o
 .rel.text.blk_show_device
                0x0000000087875248       0x10 arch/arm/cpu/armv7/start.o
 .rel.text.blk_create_devicef
                0x0000000087875258        0x8 arch/arm/cpu/armv7/start.o
 .rel.text.blkcache_read
                0x0000000087875260       0x10 arch/arm/cpu/armv7/start.o
 .rel.text.blkcache_fill
                0x0000000087875270       0x10 arch/arm/cpu/armv7/start.o
 .rel.text.blkcache_invalidate
                0x0000000087875280       0x10 arch/arm/cpu/armv7/start.o
 .rel.text.blkcache_configure
                0x0000000087875290       0x10 arch/arm/cpu/armv7/start.o
 .rel.text.blkcache_stats
                0x00000000878752a0        0x8 arch/arm/cpu/armv7/start.o
 .rel.text.fastboot_fail
                0x00000000878752a8       0x10 arch/arm/cpu/armv7/start.o
 .rel.text.fastboot_okay
                0x00000000878752b8       0x10 arch/arm/cpu/armv7/start.o
 .rel.text.fastboot_boot
                0x00000000878752c8       0x30 arch/arm/cpu/armv7/start.o
 .rel.text.fastboot_init
                0x00000000878752f8       0x20 arch/arm/cpu/armv7/start.o
 .rel.text.get_fastboot_target_dev
                0x0000000087875318       0x38 arch/arm/cpu/armv7/start.o
 .rel.text.write_backup_gpt
                0x0000000087875350       0x30 arch/arm/cpu/armv7/start.o
 .rel.text.process_flash_blkdev
                0x0000000087875380       0xd8 arch/arm/cpu/armv7/start.o
 .rel.text.fastboot_process_erase
                0x0000000087875458       0x88 arch/arm/cpu/armv7/start.o
 .rel.text.fastboot_process_flash
                0x00000000878754e0       0x18 arch/arm/cpu/armv7/start.o
 .rel.text.upload
                0x00000000878754f8       0x30 arch/arm/cpu/armv7/start.o
 .rel.text.download
                0x0000000087875528       0x40 arch/arm/cpu/armv7/start.o
 .rel.text.run_acmd
                0x0000000087875568       0x28 arch/arm/cpu/armv7/start.o
 .rel.text.flash
                0x0000000087875590       0x18 arch/arm/cpu/armv7/start.o
 .rel.text.erase
                0x00000000878755a8        0x8 arch/arm/cpu/armv7/start.o
 .rel.text.run_ucmd
                0x00000000878755b0       0x18 arch/arm/cpu/armv7/start.o
 .rel.text.fastboot_run_bootmode
                0x00000000878755c8        0x8 arch/arm/cpu/armv7/start.o
 .rel.text.fastboot_data_remaining
                0x00000000878755d0       0x10 arch/arm/cpu/armv7/start.o
 .rel.text.fastboot_data_download
                0x00000000878755e0       0x20 arch/arm/cpu/armv7/start.o
 .rel.text.fastboot_data_complete
                0x0000000087875600       0x28 arch/arm/cpu/armv7/start.o
 .rel.text.fastboot_acmd_complete
                0x0000000087875628        0x8 arch/arm/cpu/armv7/start.o
 .rel.text.fastboot_handle_command
                0x0000000087875630       0x28 arch/arm/cpu/armv7/start.o
 .rel.text.fastboot_puts
                0x0000000087875658        0x8 arch/arm/cpu/armv7/start.o
 .rel.text.fastboot_putc
                0x0000000087875660        0x8 arch/arm/cpu/armv7/start.o
 .rel.text.get_block_size
                0x0000000087875668       0x20 arch/arm/cpu/armv7/start.o
 .rel.text.board_fastboot_setup
                0x0000000087875688       0xb8 arch/arm/cpu/armv7/start.o
 .rel.text.fastboot_setup
                0x0000000087875740       0x38 arch/arm/cpu/armv7/start.o
 .rel.text.get_serial
                0x0000000087875778       0x10 arch/arm/cpu/armv7/start.o
 .rel.text.get_single_var
                0x0000000087875788      0x158 arch/arm/cpu/armv7/start.o
 .rel.text.fastboot_getvar
                0x00000000878758e0       0xc8 arch/arm/cpu/armv7/start.o
 .rel.text.bootloader_mmc_offset
                0x00000000878759a8       0x10 arch/arm/cpu/armv7/start.o
 .rel.text.bootloader_gpt_overlay
                0x00000000878759b8        0x8 arch/arm/cpu/armv7/start.o
 .rel.text.fastboot_flash_add_ptn
                0x00000000878759c0       0x10 arch/arm/cpu/armv7/start.o
 .rel.text._fastboot_parts_load_from_ptable
                0x00000000878759d0       0x98 arch/arm/cpu/armv7/start.o
 .rel.text.fastboot_load_partitions
                0x0000000087875a68        0x8 arch/arm/cpu/armv7/start.o
 .rel.text.fastboot_flash_dump_ptn
                0x0000000087875a70       0x18 arch/arm/cpu/armv7/start.o
 .rel.text.fastboot_flash_find_ptn
                0x0000000087875a88       0x10 arch/arm/cpu/armv7/start.o
 .rel.text.fastboot_parts_is_raw
                0x0000000087875a98       0x18 arch/arm/cpu/armv7/start.o
 .rel.text.fastboot_parts_get_name
                0x0000000087875ab0       0x20 arch/arm/cpu/armv7/start.o
 .rel.text.fastboot_parts_is_slot
                0x0000000087875ad0       0x18 arch/arm/cpu/armv7/start.o
 .rel.text.finish_access
                0x0000000087875ae8        0x8 arch/arm/cpu/armv7/start.o
 .rel.text.prepare_access
                0x0000000087875af0        0x8 arch/arm/cpu/armv7/start.o
 .rel.text.fuse_read
                0x0000000087875af8        0x8 arch/arm/cpu/armv7/start.o
 .rel.text.fuse_sense
                0x0000000087875b00       0x10 arch/arm/cpu/armv7/start.o
 .rel.text.fuse_prog
                0x0000000087875b10        0x8 arch/arm/cpu/armv7/start.o
 .rel.text.fuse_override
                0x0000000087875b18        0x8 arch/arm/cpu/armv7/start.o
 .rel.text.mmc_power_on.isra.0
                0x0000000087875b20        0x8 arch/arm/cpu/armv7/start.o
 .rel.text.mmc_mode_name
                0x0000000087875b28       0x10 arch/arm/cpu/armv7/start.o
 .rel.text.mmc_poll_for_busy
                0x0000000087875b38       0x10 arch/arm/cpu/armv7/start.o
 .rel.text.mmc_bread
                0x0000000087875b48       0x10 arch/arm/cpu/armv7/start.o
 .rel.text.mmc_startup_v4
                0x0000000087875b58        0x8 arch/arm/cpu/armv7/start.o
 .rel.text.mmc_hwpart_config
                0x0000000087875b60       0x48 arch/arm/cpu/armv7/start.o
 .rel.text.mmc_startup
                0x0000000087875ba8       0xb0 arch/arm/cpu/armv7/start.o
 .rel.text.mmc_get_op_cond
                0x0000000087875c58       0x18 arch/arm/cpu/armv7/start.o
 .rel.text.mmc_start_init
                0x0000000087875c70        0x8 arch/arm/cpu/armv7/start.o
 .rel.text.mmc_initialize
                0x0000000087875c78       0x10 arch/arm/cpu/armv7/start.o
 .rel.text.mmc_of_parse
                0x0000000087875c88       0xa8 arch/arm/cpu/armv7/start.o
 .rel.text.find_mmc_device
                0x0000000087875d30        0x8 arch/arm/cpu/armv7/start.o
 .rel.text.print_mmc_devices
                0x0000000087875d38       0x38 arch/arm/cpu/armv7/start.o
 .rel.text.mmc_bind
                0x0000000087875d70       0x10 arch/arm/cpu/armv7/start.o
 .rel.text.mmc_berase
                0x0000000087875d80       0x10 arch/arm/cpu/armv7/start.o
 .rel.text.mmc_bwrite
                0x0000000087875d90       0x18 arch/arm/cpu/armv7/start.o
 .rel.text.fsl_esdhc_send_cmd
                0x0000000087875da8       0x20 arch/arm/cpu/armv7/start.o
 .rel.text.fsl_esdhc_probe
                0x0000000087875dc8       0x88 arch/arm/cpu/armv7/start.o
 .rel.text.console_normal_putc_xy
                0x0000000087875e50        0x8 arch/arm/cpu/armv7/start.o
 .rel.text.simple_panel_ofdata_to_platdata
                0x0000000087875e58       0x18 arch/arm/cpu/armv7/start.o
 .rel.text.video_post_bind
                0x0000000087875e70        0x8 arch/arm/cpu/armv7/start.o
 .rel.text.video_post_probe
                0x0000000087875e78       0x10 arch/arm/cpu/armv7/start.o
 .rel.text.vidconsole_post_probe
                0x0000000087875e88       0x20 arch/arm/cpu/armv7/start.o
 .rel.text.vid_console_color
                0x0000000087875ea8        0x8 arch/arm/cpu/armv7/start.o
 .rel.text.vidconsole_put_char
                0x0000000087875eb0       0x98 arch/arm/cpu/armv7/start.o
 .rel.text.video_bmp_display
                0x0000000087875f48       0x18 arch/arm/cpu/armv7/start.o
 .rel.text.ofnode_graph_get_next_endpoint
                0x0000000087875f60       0x10 arch/arm/cpu/armv7/start.o
 .rel.text.ofnode_graph_get_remote_endpoint
                0x0000000087875f70       0x18 arch/arm/cpu/armv7/start.o
 .rel.text.ofnode_graph_get_port_parent
                0x0000000087875f88        0x8 arch/arm/cpu/armv7/start.o
 .rel.text.video_link_add_node
                0x0000000087875f90       0x20 arch/arm/cpu/armv7/start.o
 .rel.text.video_link_get_next_device
                0x0000000087875fb0       0x30 arch/arm/cpu/armv7/start.o
 .rel.text.video_link_get_video_device
                0x0000000087875fe0       0x28 arch/arm/cpu/armv7/start.o
 .rel.text.list_videolink
                0x0000000087876008       0x38 arch/arm/cpu/armv7/start.o
 .rel.text.video_link_get_display_timings
                0x0000000087876040       0x30 arch/arm/cpu/armv7/start.o
 .rel.text.video_link_init
                0x0000000087876070       0x40 arch/arm/cpu/armv7/start.o
 .rel.text.mxs_video_probe
                0x00000000878760b0       0x68 arch/arm/cpu/armv7/start.o
 .rel.text.imx_thermal_get_temp
                0x0000000087876118       0x10 arch/arm/cpu/armv7/start.o
 .rel.rodata.root_info
                0x0000000087876128        0x8 arch/arm/cpu/armv7/start.o
 .rel.rodata.generic_simple_bus_ids
                0x0000000087876130       0x10 arch/arm/cpu/armv7/start.o
 .rel.rodata.spi_flash_std_ids
                0x0000000087876140        0x8 arch/arm/cpu/armv7/start.o
 .rel.rodata.spi_flash_std_ops
                0x0000000087876148       0x20 arch/arm/cpu/armv7/start.o
 .rel.rodata.spi_nor_ids
                0x0000000087876168       0xf8 arch/arm/cpu/armv7/start.o
 .rel.rodata.imx_pinctrl_ops
                0x0000000087876260        0x8 arch/arm/cpu/armv7/start.o
 .rel.rodata.imx6_pinctrl_match
                0x0000000087876268       0x80 arch/arm/cpu/armv7/start.o
 .rel.rodata.if_typename_str
                0x00000000878762e8       0x60 arch/arm/cpu/armv7/start.o
 .rel.rodata.bootm_args.9245
                0x0000000087876348       0x10 arch/arm/cpu/armv7/start.o
 .rel.rodata.commands
                0x0000000087876358       0xc0 arch/arm/cpu/armv7/start.o
 .rel.rodata.names.10608
                0x0000000087876418       0x68 arch/arm/cpu/armv7/start.o
 .rel.rodata.mmc_blk_ops
                0x0000000087876480       0x20 arch/arm/cpu/armv7/start.o
 .rel.rodata.fsl_esdhc_ids
                0x00000000878764a0       0x90 arch/arm/cpu/armv7/start.o
 .rel.rodata.fsl_esdhc_ops
                0x0000000087876530       0x18 arch/arm/cpu/armv7/start.o
 .rel.rodata.simple_panel_ids
                0x0000000087876548       0x28 arch/arm/cpu/armv7/start.o
 .rel.rodata.simple_panel_ops
                0x0000000087876570       0x10 arch/arm/cpu/armv7/start.o
 .rel.rodata.mxs_video_ids
                0x0000000087876580       0x28 arch/arm/cpu/armv7/start.o
 .rel.rodata.imx_thermal_ops
                0x00000000878765a8        0x8 arch/arm/cpu/armv7/start.o
 .rel.u_boot_list_2_driver_2_root_driver
                0x00000000878765b0        0x8 arch/arm/cpu/armv7/start.o
 .rel.u_boot_list_2_uclass_2_root
                0x00000000878765b8        0x8 arch/arm/cpu/armv7/start.o
 .rel.u_boot_list_2_uclass_2_nop
                0x00000000878765c0        0x8 arch/arm/cpu/armv7/start.o
 .rel.u_boot_list_2_driver_2_simple_bus_drv
                0x00000000878765c8       0x10 arch/arm/cpu/armv7/start.o
 .rel.u_boot_list_2_uclass_2_simple_bus
                0x00000000878765d8       0x10 arch/arm/cpu/armv7/start.o
 .rel.u_boot_list_2_uclass_2_spi_nor
                0x00000000878765e8       0x10 arch/arm/cpu/armv7/start.o
 .rel.u_boot_list_2_driver_2_spi_flash_std
                0x00000000878765f8       0x28 arch/arm/cpu/armv7/start.o
 .rel.u_boot_list_2_driver_2_pinconfig_generic
                0x0000000087876620        0x8 arch/arm/cpu/armv7/start.o
 .rel.u_boot_list_2_uclass_2_pinconfig
                0x0000000087876628       0x10 arch/arm/cpu/armv7/start.o
 .rel.u_boot_list_2_uclass_2_pinctrl
                0x0000000087876638       0x10 arch/arm/cpu/armv7/start.o
 .rel.u_boot_list_2_driver_2_imx6_pinctrl
                0x0000000087876648       0x28 arch/arm/cpu/armv7/start.o
 .rel.u_boot_list_2_uclass_2_blk
                0x0000000087876670       0x10 arch/arm/cpu/armv7/start.o
 .rel.data.block_cache
                0x0000000087876680       0x10 arch/arm/cpu/armv7/start.o
 .rel.data.g_fastboot_stdio
                0x0000000087876690       0x10 arch/arm/cpu/armv7/start.o
 .rel.data.fastboot_common_var
                0x00000000878766a0       0x70 arch/arm/cpu/armv7/start.o
 .rel.u_boot_list_2_driver_2_mmc_blk
                0x0000000087876710       0x18 arch/arm/cpu/armv7/start.o
 .rel.u_boot_list_2_uclass_2_mmc
                0x0000000087876728        0x8 arch/arm/cpu/armv7/start.o
 .rel.u_boot_list_2_driver_2_fsl_esdhc
                0x0000000087876730       0x28 arch/arm/cpu/armv7/start.o
 .rel.data.console_normal_ops
                0x0000000087876758       0x18 arch/arm/cpu/armv7/start.o
 .rel.u_boot_list_2_driver_2_vidconsole_normal
                0x0000000087876770       0x18 arch/arm/cpu/armv7/start.o
 .rel.u_boot_list_2_uclass_2_backlight
                0x0000000087876788        0x8 arch/arm/cpu/armv7/start.o
 .rel.u_boot_list_2_uclass_2_panel
                0x0000000087876790        0x8 arch/arm/cpu/armv7/start.o
 .rel.u_boot_list_2_driver_2_simple_panel
                0x0000000087876798       0x28 arch/arm/cpu/armv7/start.o
 .rel.u_boot_list_2_uclass_2_video
                0x00000000878767c0       0x28 arch/arm/cpu/armv7/start.o
 .rel.u_boot_list_2_cmd_2_lcdputs
                0x00000000878767e8       0x28 arch/arm/cpu/armv7/start.o
 .rel.u_boot_list_2_cmd_2_setcurs
                0x0000000087876810       0x28 arch/arm/cpu/armv7/start.o
 .rel.u_boot_list_2_uclass_2_vidconsole
                0x0000000087876838       0x18 arch/arm/cpu/armv7/start.o
 .rel.u_boot_list_2_cmd_2_videolink
                0x0000000087876850       0x28 arch/arm/cpu/armv7/start.o
 .rel.u_boot_list_2_driver_2_mxs_video
                0x0000000087876878       0x28 arch/arm/cpu/armv7/start.o
 .rel.u_boot_list_2_uclass_2_thermal
                0x00000000878768a0        0x8 arch/arm/cpu/armv7/start.o
 .rel.u_boot_list_2_driver_2_imx_thermal
                0x00000000878768a8       0x18 arch/arm/cpu/armv7/start.o
 .rel.text.gen_74x164_probe
                0x00000000878768c0       0x20 arch/arm/cpu/armv7/start.o
 .rel.text.check_reserved
                0x00000000878768e0       0x10 arch/arm/cpu/armv7/start.o
 .rel.text.dm_gpio_lookup_name
                0x00000000878768f0        0x8 arch/arm/cpu/armv7/start.o
 .rel.text.gpio_direction_input
                0x00000000878768f8        0x8 arch/arm/cpu/armv7/start.o
 .rel.text.gpio_direction_output
                0x0000000087876900        0x8 arch/arm/cpu/armv7/start.o
 .rel.text.dm_gpio_get_value
                0x0000000087876908        0x8 arch/arm/cpu/armv7/start.o
 .rel.text.dm_gpio_set_value
                0x0000000087876910        0x8 arch/arm/cpu/armv7/start.o
 .rel.text.dm_gpio_set_dir_flags
                0x0000000087876918        0x8 arch/arm/cpu/armv7/start.o
 .rel.text.gpio_request_tail
                0x0000000087876920       0x10 arch/arm/cpu/armv7/start.o
 .rel.text._gpio_request_by_name_nodev
                0x0000000087876930        0x8 arch/arm/cpu/armv7/start.o
 .rel.text.gpio_get_status
                0x0000000087876938       0x28 arch/arm/cpu/armv7/start.o
 .rel.text.gpio_request_by_name
                0x0000000087876960        0x8 arch/arm/cpu/armv7/start.o
 .rel.text.mxc_gpio_probe
                0x0000000087876968        0x8 arch/arm/cpu/armv7/start.o
 .rel.rodata.gen_74x164_ids
                0x0000000087876970        0x8 arch/arm/cpu/armv7/start.o
 .rel.rodata.gen_74x164_ops
                0x0000000087876978       0x30 arch/arm/cpu/armv7/start.o
 .rel.rodata.gpio_function
                0x00000000878769a8       0x28 arch/arm/cpu/armv7/start.o
 .rel.rodata.gpio_mxc_ops
                0x00000000878769d0       0x28 arch/arm/cpu/armv7/start.o
 .rel.rodata.mxc_gpio_ids
                0x00000000878769f8        0x8 arch/arm/cpu/armv7/start.o
 .rel.u_boot_list_2_driver_2_74x164
                0x0000000087876a00       0x20 arch/arm/cpu/armv7/start.o
 .rel.u_boot_list_2_uclass_2_gpio
                0x0000000087876a20       0x20 arch/arm/cpu/armv7/start.o
 .rel.u_boot_list_2_driver_2_gpio_mxc
                0x0000000087876a40       0x30 arch/arm/cpu/armv7/start.o
 .rel.text.i2c_uclass_init
                0x0000000087876a70        0x8 arch/arm/cpu/armv7/start.o
 .rel.text.i2c_pre_probe
                0x0000000087876a78        0x8 arch/arm/cpu/armv7/start.o
 .rel.text.i2c_get_chip
                0x0000000087876a80       0x10 arch/arm/cpu/armv7/start.o
 .rel.text.i2c_post_probe
                0x0000000087876a90        0x8 arch/arm/cpu/armv7/start.o
 .rel.text.i2c_deblock
                0x0000000087876a98       0x18 arch/arm/cpu/armv7/start.o
 .rel.text.i2c_chip_ofdata_to_platdata
                0x0000000087876ab0       0x10 arch/arm/cpu/armv7/start.o
 .rel.text.wait_for_sr_state
                0x0000000087876ac0       0x18 arch/arm/cpu/armv7/start.o
 .rel.text.i2c_imx_stop
                0x0000000087876ad8       0x10 arch/arm/cpu/armv7/start.o
 .rel.text.mxc_i2c_set_bus_speed
                0x0000000087876ae8        0x8 arch/arm/cpu/armv7/start.o
 .rel.text.i2c_idle_bus
                0x0000000087876af0       0x20 arch/arm/cpu/armv7/start.o
 .rel.text.i2c_init_transfer.constprop.0
                0x0000000087876b10       0x18 arch/arm/cpu/armv7/start.o
 .rel.text.mxc_i2c_probe
                0x0000000087876b28       0x30 arch/arm/cpu/armv7/start.o
 .rel.rodata.mxc_i2c_ids
                0x0000000087876b58       0x10 arch/arm/cpu/armv7/start.o
 .rel.rodata.mxc_i2c_ops
                0x0000000087876b68       0x18 arch/arm/cpu/armv7/start.o
 .rel.u_boot_list_2_driver_2_i2c_generic_chip_drv
                0x0000000087876b80        0x8 arch/arm/cpu/armv7/start.o
 .rel.u_boot_list_2_uclass_2_i2c
                0x0000000087876b88       0x30 arch/arm/cpu/armv7/start.o
 .rel.u_boot_list_2_uclass_2_i2c_generic
                0x0000000087876bb8        0x8 arch/arm/cpu/armv7/start.o
 .rel.u_boot_list_2_driver_2_i2c_mxc
                0x0000000087876bc0       0x20 arch/arm/cpu/armv7/start.o
 .rel.text.eth_phy_binds_nodes
                0x0000000087876be0       0x10 arch/arm/cpu/armv7/start.o
 .rel.text.eth_phy_get_mdio_bus
                0x0000000087876bf0       0x20 arch/arm/cpu/armv7/start.o
 .rel.text.fec_phy_write
                0x0000000087876c10        0x8 arch/arm/cpu/armv7/start.o
 .rel.text.fec_phy_read
                0x0000000087876c18        0x8 arch/arm/cpu/armv7/start.o
 .rel.text.fecmxc_ofdata_to_platdata
                0x0000000087876c20       0x38 arch/arm/cpu/armv7/start.o
 .rel.text.fecmxc_send
                0x0000000087876c58        0x8 arch/arm/cpu/armv7/start.o
 .rel.text.fec_mii_setspeed.isra.0
                0x0000000087876c60        0x8 arch/arm/cpu/armv7/start.o
 .rel.text.fecmxc_init
                0x0000000087876c68        0x8 arch/arm/cpu/armv7/start.o
 .rel.text.fecmxc_recv
                0x0000000087876c70       0x18 arch/arm/cpu/armv7/start.o
 .rel.text.fec_get_miibus
                0x0000000087876c88       0x30 arch/arm/cpu/armv7/start.o
 .rel.text.fecmxc_probe
                0x0000000087876cb8       0x40 arch/arm/cpu/armv7/start.o
 .rel.rodata.fecmxc_ids
                0x0000000087876cf8       0x48 arch/arm/cpu/armv7/start.o
 .rel.rodata.fecmxc_ops
                0x0000000087876d40       0x38 arch/arm/cpu/armv7/start.o
 .rel.u_boot_list_2_driver_2_eth_phy_generic_drv
                0x0000000087876d78        0x8 arch/arm/cpu/armv7/start.o
 .rel.u_boot_list_2_uclass_2_eth_phy_generic
                0x0000000087876d80        0x8 arch/arm/cpu/armv7/start.o
 .rel.u_boot_list_2_driver_2_fecmxc_gem
                0x0000000087876d88       0x30 arch/arm/cpu/armv7/start.o
 .rel.text.genphy_update_link
                0x0000000087876db8       0x28 arch/arm/cpu/armv7/start.o
 .rel.text.phy_register
                0x0000000087876de0        0x8 arch/arm/cpu/armv7/start.o
 .rel.text.genphy_init
                0x0000000087876de8        0x8 arch/arm/cpu/armv7/start.o
 .rel.text.get_phy_device_by_mask
                0x0000000087876df0       0x28 arch/arm/cpu/armv7/start.o
 .rel.text.phy_reset
                0x0000000087876e18        0x8 arch/arm/cpu/armv7/start.o
 .rel.text.phy_connect_dev
                0x0000000087876e20        0x8 arch/arm/cpu/armv7/start.o
 .rel.text.phy_connect
                0x0000000087876e28        0x8 arch/arm/cpu/armv7/start.o
 .rel.text.phy_get_interface_by_name
                0x0000000087876e30        0x8 arch/arm/cpu/armv7/start.o
 .rel.text.phy_smsc_init
                0x0000000087876e38       0x30 arch/arm/cpu/armv7/start.o
 .rel.rodata.phy_interface_strings
                0x0000000087876e68       0xc8 arch/arm/cpu/armv7/start.o
 .rel.data.genphy_driver
                0x0000000087876f30       0x20 arch/arm/cpu/armv7/start.o
 .rel.data.phy_drivers
                0x0000000087876f50       0x10 arch/arm/cpu/armv7/start.o
 .rel.data.lan8700_driver
                0x0000000087876f60       0x20 arch/arm/cpu/armv7/start.o
 .rel.data.lan8710_driver
                0x0000000087876f80       0x20 arch/arm/cpu/armv7/start.o
 .rel.data.lan8740_driver
                0x0000000087876fa0       0x20 arch/arm/cpu/armv7/start.o
 .rel.data.lan8741_driver
                0x0000000087876fc0       0x20 arch/arm/cpu/armv7/start.o
 .rel.data.lan8742_driver
                0x0000000087876fe0       0x20 arch/arm/cpu/armv7/start.o
 .rel.data.lan911x_driver
                0x0000000087877000       0x20 arch/arm/cpu/armv7/start.o
 .rel.text.regulator_post_bind
                0x0000000087877020        0x8 arch/arm/cpu/armv7/start.o
 .rel.text.regulator_pre_probe
                0x0000000087877028       0x58 arch/arm/cpu/armv7/start.o
 .rel.text.regulator_common_ofdata_to_platdata
                0x0000000087877080       0x20 arch/arm/cpu/armv7/start.o
 .rel.text.regulator_common_set_enable
                0x00000000878770a0        0x8 arch/arm/cpu/armv7/start.o
 .rel.text.fixed_regulator_ofdata_to_platdata
                0x00000000878770a8        0x8 arch/arm/cpu/armv7/start.o
 .rel.text.gpio_regulator_set_value
                0x00000000878770b0        0x8 arch/arm/cpu/armv7/start.o
 .rel.text.gpio_regulator_ofdata_to_platdata
                0x00000000878770b8       0x18 arch/arm/cpu/armv7/start.o
 .rel.rodata.fixed_regulator_ids
                0x00000000878770d0        0x8 arch/arm/cpu/armv7/start.o
 .rel.rodata.fixed_regulator_ops
                0x00000000878770d8       0x20 arch/arm/cpu/armv7/start.o
 .rel.rodata.gpio_regulator_ids
                0x00000000878770f8        0x8 arch/arm/cpu/armv7/start.o
 .rel.rodata.gpio_regulator_ops
                0x0000000087877100       0x20 arch/arm/cpu/armv7/start.o
 .rel.u_boot_list_2_uclass_2_regulator
                0x0000000087877120       0x18 arch/arm/cpu/armv7/start.o
 .rel.u_boot_list_2_driver_2_fixed_regulator
                0x0000000087877138       0x20 arch/arm/cpu/armv7/start.o
 .rel.u_boot_list_2_driver_2_gpio_regulator
                0x0000000087877158       0x20 arch/arm/cpu/armv7/start.o
 .rel.text.get_current
                0x0000000087877178       0x10 arch/arm/cpu/armv7/start.o
 .rel.text.serial_register
                0x0000000087877188        0x8 arch/arm/cpu/armv7/start.o
 .rel.text.serial_stdio_init
                0x0000000087877190       0x38 arch/arm/cpu/armv7/start.o
 .rel.text.serial_assign
                0x00000000878771c8       0x10 arch/arm/cpu/armv7/start.o
 .rel.text.on_baudrate
                0x00000000878771d8       0x18 arch/arm/cpu/armv7/start.o
 .rel.text.mxc_serial_tstc
                0x00000000878771f0        0x8 arch/arm/cpu/armv7/start.o
 .rel.text.mxc_serial_initialize
                0x00000000878771f8        0x8 arch/arm/cpu/armv7/start.o
 .rel.text.default_serial_console
                0x0000000087877200        0x8 arch/arm/cpu/armv7/start.o
 .rel.u_boot_list_2_env_clbk_2_baudrate
                0x0000000087877208       0x10 arch/arm/cpu/armv7/start.o
 .rel.data.mxc_serial_drv
                0x0000000087877218       0x30 arch/arm/cpu/armv7/start.o
 .rel.text.spi_post_probe
                0x0000000087877248        0x8 arch/arm/cpu/armv7/start.o
 .rel.text.dm_spi_claim_bus
                0x0000000087877250       0x10 arch/arm/cpu/armv7/start.o
 .rel.text.spi_find_chip_select
                0x0000000087877260        0x8 arch/arm/cpu/armv7/start.o
 .rel.text.spi_get_bus_and_cs
                0x0000000087877268       0x18 arch/arm/cpu/armv7/start.o
 .rel.text.spi_slave_ofdata_to_platdata
                0x0000000087877280       0x58 arch/arm/cpu/armv7/start.o
 .rel.text.soft_spi_ofdata_to_platdata
                0x00000000878772d8        0x8 arch/arm/cpu/armv7/start.o
 .rel.text.soft_spi_probe
                0x00000000878772e0       0x20 arch/arm/cpu/armv7/start.o
 .rel.text.fsl_qspi_ofdata_to_platdata
                0x0000000087877300       0x38 arch/arm/cpu/armv7/start.o
 .rel.text.qspi_xfer
                0x0000000087877338        0x8 arch/arm/cpu/armv7/start.o
 .rel.text.fsl_qspi_probe
                0x0000000087877340       0x10 arch/arm/cpu/armv7/start.o
 .rel.rodata.soft_spi_ids
                0x0000000087877350        0x8 arch/arm/cpu/armv7/start.o
 .rel.rodata.soft_spi_ops
                0x0000000087877358       0x28 arch/arm/cpu/armv7/start.o
 .rel.rodata.fsl_qspi_ids
                0x0000000087877380       0x50 arch/arm/cpu/armv7/start.o
 .rel.rodata.fsl_qspi_ops
                0x00000000878773d0       0x28 arch/arm/cpu/armv7/start.o
 .rel.u_boot_list_2_driver_2_spi_generic_drv
                0x00000000878773f8        0x8 arch/arm/cpu/armv7/start.o
 .rel.u_boot_list_2_uclass_2_spi
                0x0000000087877400       0x28 arch/arm/cpu/armv7/start.o
 .rel.u_boot_list_2_uclass_2_spi_generic
                0x0000000087877428        0x8 arch/arm/cpu/armv7/start.o
 .rel.u_boot_list_2_driver_2_soft_spi
                0x0000000087877430       0x28 arch/arm/cpu/armv7/start.o
 .rel.u_boot_list_2_driver_2_fsl_qspi
                0x0000000087877458       0x30 arch/arm/cpu/armv7/start.o
 .rel.text.usb_get_dr_mode
                0x0000000087877488       0x18 arch/arm/cpu/armv7/start.o
 .rel.rodata.usb_dr_modes
                0x00000000878774a0       0x20 arch/arm/cpu/armv7/start.o
 .rel.text.usb_ether_receive
                0x00000000878774c0        0x8 arch/arm/cpu/armv7/start.o
 .rel.text.asix_eth_start
                0x00000000878774c8       0x18 arch/arm/cpu/armv7/start.o
 .rel.rodata.asix_eth_ops
                0x00000000878774e0       0x30 arch/arm/cpu/armv7/start.o
 .rel.u_boot_list_2_driver_2_asix_eth
                0x0000000087877510       0x18 arch/arm/cpu/armv7/start.o
 .rel.u_boot_list_2_usb_driver_entry_2_asix_eth
                0x0000000087877528       0x10 arch/arm/cpu/armv7/start.o
 .rel.text.usb_ep_autoconfig
                0x0000000087877538        0x8 arch/arm/cpu/armv7/start.o
 .rel.text.usb_ep_autoconfig_reset
                0x0000000087877540        0x8 arch/arm/cpu/armv7/start.o
 .rel.text.ci_udc_gadget_start
                0x0000000087877548        0x8 arch/arm/cpu/armv7/start.o
 .rel.text.ci_ep_free_request
                0x0000000087877550        0x8 arch/arm/cpu/armv7/start.o
 .rel.text.ci_udc_gadget_stop
                0x0000000087877558        0x8 arch/arm/cpu/armv7/start.o
 .rel.text.ci_ep_alloc_request
                0x0000000087877560        0x8 arch/arm/cpu/armv7/start.o
 .rel.text.ci_udc_otg_ofdata_to_platdata
                0x0000000087877568        0x8 arch/arm/cpu/armv7/start.o
 .rel.text.ci_udc_otg_remove
                0x0000000087877570        0x8 arch/arm/cpu/armv7/start.o
 .rel.text.ci_flush_qh
                0x0000000087877578        0x8 arch/arm/cpu/armv7/start.o
 .rel.text.stop_activity
                0x0000000087877580        0x8 arch/arm/cpu/armv7/start.o
 .rel.text.ci_flush_qtd
                0x0000000087877588        0x8 arch/arm/cpu/armv7/start.o
 .rel.text.ci_udc_probe
                0x0000000087877590       0x40 arch/arm/cpu/armv7/start.o
 .rel.text.ci_udc_otg_probe
                0x00000000878775d0       0x30 arch/arm/cpu/armv7/start.o
 .rel.text.ep_enable
                0x0000000087877600        0x8 arch/arm/cpu/armv7/start.o
 .rel.text.ci_ep_enable
                0x0000000087877608        0x8 arch/arm/cpu/armv7/start.o
 .rel.text.ci_ep_submit_next_request
                0x0000000087877610        0x8 arch/arm/cpu/armv7/start.o
 .rel.text.ci_ep_queue
                0x0000000087877618       0x10 arch/arm/cpu/armv7/start.o
 .rel.text.udc_irq
                0x0000000087877628       0x38 arch/arm/cpu/armv7/start.o
 .rel.text.ci_udc_handle_interrupts
                0x0000000087877660        0x8 arch/arm/cpu/armv7/start.o
 .rel.text.udc_disconnect
                0x0000000087877668        0x8 arch/arm/cpu/armv7/start.o
 .rel.text.ci_pullup
                0x0000000087877670        0x8 arch/arm/cpu/armv7/start.o
 .rel.text.composite_suspend
                0x0000000087877678        0x8 arch/arm/cpu/armv7/start.o
 .rel.text.composite_resume
                0x0000000087877680        0x8 arch/arm/cpu/armv7/start.o
 .rel.text.composite_unbind
                0x0000000087877688       0x20 arch/arm/cpu/armv7/start.o
 .rel.text.composite_bind
                0x00000000878776a8       0x18 arch/arm/cpu/armv7/start.o
 .rel.text.g_dnl_do_config
                0x00000000878776c0        0x8 arch/arm/cpu/armv7/start.o
 .rel.text.composite_disconnect
                0x00000000878776c8        0x8 arch/arm/cpu/armv7/start.o
 .rel.text.count_ext_compat
                0x00000000878776d0       0x20 arch/arm/cpu/armv7/start.o
 .rel.text.composite_setup
                0x00000000878776f0       0x18 arch/arm/cpu/armv7/start.o
 .rel.text.usb_composite_register
                0x0000000087877708       0x18 arch/arm/cpu/armv7/start.o
 .rel.text.usb_composite_unregister
                0x0000000087877720       0x10 arch/arm/cpu/armv7/start.o
 .rel.text.g_dnl_set_serialnumber
                0x0000000087877730        0x8 arch/arm/cpu/armv7/start.o
 .rel.text.g_dnl_bind
                0x0000000087877738       0x30 arch/arm/cpu/armv7/start.o
 .rel.text.g_dnl_detach
                0x0000000087877768        0x8 arch/arm/cpu/armv7/start.o
 .rel.text.g_dnl_trigger_detach
                0x0000000087877770        0x8 arch/arm/cpu/armv7/start.o
 .rel.text.g_dnl_clear_detach
                0x0000000087877778        0x8 arch/arm/cpu/armv7/start.o
 .rel.text.g_dnl_register
                0x0000000087877780       0x18 arch/arm/cpu/armv7/start.o
 .rel.text.g_dnl_unregister
                0x0000000087877798        0x8 arch/arm/cpu/armv7/start.o
 .rel.text.fsg_setup
                0x00000000878777a0       0x18 arch/arm/cpu/armv7/start.o
 .rel.text.sleep_thread.isra.0
                0x00000000878777b8       0x30 arch/arm/cpu/armv7/start.o
 .rel.text.do_read
                0x00000000878777e8       0x20 arch/arm/cpu/armv7/start.o
 .rel.text.send_status
                0x0000000087877808       0x18 arch/arm/cpu/armv7/start.o
 .rel.text.do_write
                0x0000000087877820       0x28 arch/arm/cpu/armv7/start.o
 .rel.text.check_command.isra.0
                0x0000000087877848       0x10 arch/arm/cpu/armv7/start.o
 .rel.text.fsg_add
                0x0000000087877858       0x80 arch/arm/cpu/armv7/start.o
 .rel.text.do_set_interface
                0x00000000878778d8       0x30 arch/arm/cpu/armv7/start.o
 .rel.text.fsg_main_thread
                0x0000000087877908      0x1e0 arch/arm/cpu/armv7/start.o
 .rel.text.fsg_bind
                0x0000000087877ae8       0x38 arch/arm/cpu/armv7/start.o
 .rel.text.fsg_init
                0x0000000087877b20       0x18 arch/arm/cpu/armv7/start.o
 .rel.text.fastboot_add
                0x0000000087877b38       0x38 arch/arm/cpu/armv7/start.o
 .rel.text.fastboot_complete
                0x0000000087877b70        0x8 arch/arm/cpu/armv7/start.o
 .rel.text.fastboot_unbind
                0x0000000087877b78       0x18 arch/arm/cpu/armv7/start.o
 .rel.text.fastboot_bind
                0x0000000087877b90       0x80 arch/arm/cpu/armv7/start.o
 .rel.text.fastboot_fifo_complete
                0x0000000087877c10       0x10 arch/arm/cpu/armv7/start.o
 .rel.text.fastboot_set_alt
                0x0000000087877c20       0x60 arch/arm/cpu/armv7/start.o
 .rel.text.fastboot_tx_write_more
                0x0000000087877c80       0x28 arch/arm/cpu/armv7/start.o
 .rel.text.fastboot_tx_write
                0x0000000087877ca8       0x10 arch/arm/cpu/armv7/start.o
 .rel.text.rx_handler_command
                0x0000000087877cb8       0x48 arch/arm/cpu/armv7/start.o
 .rel.text.rx_handler_dl_image
                0x0000000087877d00       0x10 arch/arm/cpu/armv7/start.o
 .rel.rodata.ci_ep_init
                0x0000000087877d10       0x50 arch/arm/cpu/armv7/start.o
 .rel.rodata.ci_udc_otg_ids
                0x0000000087877d60        0x8 arch/arm/cpu/armv7/start.o
 .rel.data.ci_ep_ops
                0x0000000087877d68       0x30 arch/arm/cpu/armv7/start.o
 .rel.data.ci_udc_ops
                0x0000000087877d98       0x18 arch/arm/cpu/armv7/start.o
 .rel.data.controller
                0x0000000087877db0       0x10 arch/arm/cpu/armv7/start.o
 .rel.u_boot_list_2_driver_2_ci_udc_otg
                0x0000000087877dc0       0x30 arch/arm/cpu/armv7/start.o
 .rel.data.composite_driver
                0x0000000087877df0       0x38 arch/arm/cpu/armv7/start.o
 .rel.data.g_dnl_composite_strings
                0x0000000087877e28        0x8 arch/arm/cpu/armv7/start.o
 .rel.data.g_dnl_driver
                0x0000000087877e30       0x20 arch/arm/cpu/armv7/start.o
 .rel.data.g_dnl_string_defs
                0x0000000087877e50       0x18 arch/arm/cpu/armv7/start.o
 .rel.data.g_dnl_string_tab
                0x0000000087877e68        0x8 arch/arm/cpu/armv7/start.o
 .rel.u_boot_list_2_env_clbk_2_serialno
                0x0000000087877e70       0x10 arch/arm/cpu/armv7/start.o
 .rel.data.fsg_fs_function
                0x0000000087877e80       0x18 arch/arm/cpu/armv7/start.o
 .rel.data.fsg_hs_function
                0x0000000087877e98       0x18 arch/arm/cpu/armv7/start.o
 .rel.data.fsg_strings
                0x0000000087877eb0        0x8 arch/arm/cpu/armv7/start.o
 .rel.data.fsg_strings_array
                0x0000000087877eb8        0x8 arch/arm/cpu/armv7/start.o
 .rel.data.fsg_stringtab
                0x0000000087877ec0        0x8 arch/arm/cpu/armv7/start.o
 .rel.u_boot_list_2_g_dnl_bind_callbacks_2___usb_function_name_usb_dnl_ums
                0x0000000087877ec8       0x10 arch/arm/cpu/armv7/start.o
 .rel.data.fastboot_string_defs
                0x0000000087877ed8        0x8 arch/arm/cpu/armv7/start.o
 .rel.data.fastboot_strings
                0x0000000087877ee0        0x8 arch/arm/cpu/armv7/start.o
 .rel.data.fb_ext_prop
                0x0000000087877ee8       0x10 arch/arm/cpu/armv7/start.o
 .rel.data.fb_fs_function
                0x0000000087877ef8       0x18 arch/arm/cpu/armv7/start.o
 .rel.data.fb_hs_function
                0x0000000087877f10       0x18 arch/arm/cpu/armv7/start.o
 .rel.data.fb_os_desc
                0x0000000087877f28        0x8 arch/arm/cpu/armv7/start.o
 .rel.data.fb_os_desc_table
                0x0000000087877f30        0x8 arch/arm/cpu/armv7/start.o
 .rel.data.fb_ss_function
                0x0000000087877f38       0x28 arch/arm/cpu/armv7/start.o
 .rel.data.stringtab_fastboot
                0x0000000087877f60        0x8 arch/arm/cpu/armv7/start.o
 .rel.u_boot_list_2_g_dnl_bind_callbacks_2___usb_function_name_usb_dnl_fastboot
                0x0000000087877f68       0x10 arch/arm/cpu/armv7/start.o
 .rel.text.usb_add_gadget_udc_release
                0x0000000087877f78       0x10 arch/arm/cpu/armv7/start.o
 .rel.text.usb_del_gadget_udc
                0x0000000087877f88       0x10 arch/arm/cpu/armv7/start.o
 .rel.text.usb_gadget_probe_driver
                0x0000000087877f98       0x18 arch/arm/cpu/armv7/start.o
 .rel.text.usb_gadget_unregister_driver
                0x0000000087877fb0        0x8 arch/arm/cpu/armv7/start.o
 .rel.text.usb_gadget_initialize
                0x0000000087877fb8       0x10 arch/arm/cpu/armv7/start.o
 .rel.text.usb_gadget_release
                0x0000000087877fc8        0x8 arch/arm/cpu/armv7/start.o
 .rel.text.usb_gadget_handle_interrupts
                0x0000000087877fd0       0x10 arch/arm/cpu/armv7/start.o
 .rel.data.udc_list
                0x0000000087877fe0       0x10 arch/arm/cpu/armv7/start.o
 .rel.u_boot_list_2_uclass_2_usb_gadget_generic
                0x0000000087877ff0        0x8 arch/arm/cpu/armv7/start.o
 .rel.text.usb_child_post_bind
                0x0000000087877ff8       0x10 arch/arm/cpu/armv7/start.o
 .rel.text.usb_disable_asynch
                0x0000000087878008        0x8 arch/arm/cpu/armv7/start.o
 .rel.text.usb_stop
                0x0000000087878010        0x8 arch/arm/cpu/armv7/start.o
 .rel.text.usb_scan_device
                0x0000000087878018       0x20 arch/arm/cpu/armv7/start.o
 .rel.text.usb_scan_bus.isra.0
                0x0000000087878038       0x20 arch/arm/cpu/armv7/start.o
 .rel.text.usb_init
                0x0000000087878058       0x30 arch/arm/cpu/armv7/start.o
 .rel.text.ehci_td_buffer
                0x0000000087878088        0x8 arch/arm/cpu/armv7/start.o
 .rel.text.ehci_shutdown
                0x0000000087878090        0x8 arch/arm/cpu/armv7/start.o
 .rel.text.ehci_disable_async.part.0
                0x0000000087878098        0x8 arch/arm/cpu/armv7/start.o
 .rel.text.disable_periodic.isra.0
                0x00000000878780a0        0x8 arch/arm/cpu/armv7/start.o
 .rel.text.enable_periodic.isra.0
                0x00000000878780a8        0x8 arch/arm/cpu/armv7/start.o
 .rel.text._ehci_destroy_int_queue
                0x00000000878780b0        0x8 arch/arm/cpu/armv7/start.o
 .rel.text.ehci_submit_async
                0x00000000878780b8       0x28 arch/arm/cpu/armv7/start.o
 .rel.text._ehci_create_int_queue.isra.0
                0x00000000878780e0       0x10 arch/arm/cpu/armv7/start.o
 .rel.text.ehci_submit_int_msg
                0x00000000878780f0        0x8 arch/arm/cpu/armv7/start.o
 .rel.text.ehci_submit_control_msg
                0x00000000878780f8       0x20 arch/arm/cpu/armv7/start.o
 .rel.text.ehci_register
                0x0000000087878118       0x38 arch/arm/cpu/armv7/start.o
 .rel.text.mx6_init_after_reset
                0x0000000087878150       0x10 arch/arm/cpu/armv7/start.o
 .rel.text.ehci_usb_probe
                0x0000000087878160       0x38 arch/arm/cpu/armv7/start.o
 .rel.text.ehci_usb_ofdata_to_platdata
                0x0000000087878198        0x8 arch/arm/cpu/armv7/start.o
 .rel.rodata.CSWTCH.164
                0x00000000878781a0       0x18 arch/arm/cpu/armv7/start.o
 .rel.rodata.mx6_ehci_ops
                0x00000000878781b8       0x10 arch/arm/cpu/armv7/start.o
 .rel.rodata.mx6_usb_ids
                0x00000000878781c8        0x8 arch/arm/cpu/armv7/start.o
 .rel.u_boot_list_2_driver_2_usb_dev_generic_drv
                0x00000000878781d0        0x8 arch/arm/cpu/armv7/start.o
 .rel.u_boot_list_2_uclass_2_usb
                0x00000000878781d8       0x20 arch/arm/cpu/armv7/start.o
 .rel.u_boot_list_2_uclass_2_usb_dev_generic
                0x00000000878781f8        0x8 arch/arm/cpu/armv7/start.o
 .rel.data.ehci_usb_ops
                0x0000000087878200       0x40 arch/arm/cpu/armv7/start.o
 .rel.u_boot_list_2_driver_2_usb_mx6
                0x0000000087878240       0x38 arch/arm/cpu/armv7/start.o
 .rel.text.ehci_mx6_common_init
                0x0000000087878278        0x8 arch/arm/cpu/armv7/start.o
 .rel.text.env_set_default
                0x0000000087878280       0x28 arch/arm/cpu/armv7/start.o
 .rel.text.env_set_default_vars
                0x00000000878782a8       0x10 arch/arm/cpu/armv7/start.o
 .rel.text.env_import
                0x00000000878782b8       0x28 arch/arm/cpu/armv7/start.o
 .rel.text.env_export
                0x00000000878782e0       0x18 arch/arm/cpu/armv7/start.o
 .rel.text.env_relocate
                0x00000000878782f8        0x8 arch/arm/cpu/armv7/start.o
 .rel.text.env_complete
                0x0000000087878300       0x30 arch/arm/cpu/armv7/start.o
 .rel.text.env_driver_lookup
                0x0000000087878330       0x10 arch/arm/cpu/armv7/start.o
 .rel.text.env_get_char
                0x0000000087878340        0x8 arch/arm/cpu/armv7/start.o
 .rel.text.env_load
                0x0000000087878348       0x10 arch/arm/cpu/armv7/start.o
 .rel.text.env_save
                0x0000000087878358       0x18 arch/arm/cpu/armv7/start.o
 .rel.text.env_init
                0x0000000087878370        0x8 arch/arm/cpu/armv7/start.o
 .rel.text.regex_callback
                0x0000000087878378       0x10 arch/arm/cpu/armv7/start.o
 .rel.text.env_attr_lookup
                0x0000000087878388        0x8 arch/arm/cpu/armv7/start.o
 .rel.text.skip_num
                0x0000000087878390        0x8 arch/arm/cpu/armv7/start.o
 .rel.text.on_flags
                0x0000000087878398       0x20 arch/arm/cpu/armv7/start.o
 .rel.text.env_flags_parse_vartype
                0x00000000878783b8       0x10 arch/arm/cpu/armv7/start.o
 .rel.text.env_flags_parse_varaccess
                0x00000000878783c8       0x10 arch/arm/cpu/armv7/start.o
 .rel.text.set_flags
                0x00000000878783d8       0x10 arch/arm/cpu/armv7/start.o
 .rel.text.env_flags_init
                0x00000000878783e8       0x30 arch/arm/cpu/armv7/start.o
 .rel.text.env_flags_validate
                0x0000000087878418       0x38 arch/arm/cpu/armv7/start.o
 .rel.text.find_env_callback
                0x0000000087878450       0x10 arch/arm/cpu/armv7/start.o
 .rel.text.on_callbacks
                0x0000000087878460       0x20 arch/arm/cpu/armv7/start.o
 .rel.text.set_callback
                0x0000000087878480        0x8 arch/arm/cpu/armv7/start.o
 .rel.text.env_callback_init
                0x0000000087878488       0x20 arch/arm/cpu/armv7/start.o
 .rel.text.mmc_get_env_addr
                0x00000000878784a8       0x20 arch/arm/cpu/armv7/start.o
 .rel.text.fini_mmc_for_env.isra.0
                0x00000000878784c8        0x8 arch/arm/cpu/armv7/start.o
 .rel.text.init_mmc_for_env
                0x00000000878784d0       0x28 arch/arm/cpu/armv7/start.o
 .rel.text.env_mmc_save
                0x00000000878784f8       0x20 arch/arm/cpu/armv7/start.o
 .rel.text.env_mmc_load
                0x0000000087878518        0x8 arch/arm/cpu/armv7/start.o
 .rel.data.env_htab
                0x0000000087878520        0x8 arch/arm/cpu/armv7/start.o
 .rel.u_boot_list_2_env_clbk_2_flags
                0x0000000087878528       0x10 arch/arm/cpu/armv7/start.o
 .rel.u_boot_list_2_env_clbk_2_callbacks
                0x0000000087878538       0x10 arch/arm/cpu/armv7/start.o
 .rel.u_boot_list_2_env_driver_2_mmc
                0x0000000087878548       0x18 arch/arm/cpu/armv7/start.o
 .rel.text.fs_probe_unsupported
                0x0000000087878560        0x8 arch/arm/cpu/armv7/start.o
 .rel.text.fs_get_info
                0x0000000087878568        0x8 arch/arm/cpu/armv7/start.o
 .rel.text.fs_get_type
                0x0000000087878570        0x8 arch/arm/cpu/armv7/start.o
 .rel.text.fs_set_blk_dev
                0x0000000087878578       0x28 arch/arm/cpu/armv7/start.o
 .rel.text.fs_set_blk_dev_with_part
                0x00000000878785a0       0x28 arch/arm/cpu/armv7/start.o
 .rel.text.fs_close
                0x00000000878785c8        0x8 arch/arm/cpu/armv7/start.o
 .rel.text.fs_ls
                0x00000000878785d0        0x8 arch/arm/cpu/armv7/start.o
 .rel.text.fs_exists
                0x00000000878785d8        0x8 arch/arm/cpu/armv7/start.o
 .rel.text.fs_size
                0x00000000878785e0        0x8 arch/arm/cpu/armv7/start.o
 .rel.text.fs_read
                0x00000000878785e8        0x8 arch/arm/cpu/armv7/start.o
 .rel.text.fs_write
                0x00000000878785f0       0x10 arch/arm/cpu/armv7/start.o
 .rel.text.fs_opendir
                0x0000000087878600       0x20 arch/arm/cpu/armv7/start.o
 .rel.text.fs_readdir
                0x0000000087878620       0x10 arch/arm/cpu/armv7/start.o
 .rel.text.fs_closedir
                0x0000000087878630        0x8 arch/arm/cpu/armv7/start.o
 .rel.text.fs_ls_generic
                0x0000000087878638       0x20 arch/arm/cpu/armv7/start.o
 .rel.text.fs_unlink
                0x0000000087878658        0x8 arch/arm/cpu/armv7/start.o
 .rel.text.fs_mkdir
                0x0000000087878660        0x8 arch/arm/cpu/armv7/start.o
 .rel.text.fs_ln
                0x0000000087878668       0x10 arch/arm/cpu/armv7/start.o
 .rel.text.do_size
                0x0000000087878678        0x8 arch/arm/cpu/armv7/start.o
 .rel.text.do_load
                0x0000000087878680       0x68 arch/arm/cpu/armv7/start.o
 .rel.text.do_ls
                0x00000000878786e8        0x8 arch/arm/cpu/armv7/start.o
 .rel.text.do_save
                0x00000000878786f0       0x28 arch/arm/cpu/armv7/start.o
 .rel.text.do_fs_type
                0x0000000087878718       0x10 arch/arm/cpu/armv7/start.o
 .rel.text.do_mkdir
                0x0000000087878728        0x8 arch/arm/cpu/armv7/start.o
 .rel.text.get_fs
                0x0000000087878730        0x8 arch/arm/cpu/armv7/start.o
 .rel.text.ext4fs_free_node
                0x0000000087878738        0x8 arch/arm/cpu/armv7/start.o
 .rel.text.ext4fs_ls
                0x0000000087878740       0x10 arch/arm/cpu/armv7/start.o
 .rel.text.ext4fs_uuid
                0x0000000087878750        0x8 arch/arm/cpu/armv7/start.o
 .rel.text.ext4fs_read_file
                0x0000000087878758        0x8 arch/arm/cpu/armv7/start.o
 .rel.text.ext4fs_read
                0x0000000087878760       0x10 arch/arm/cpu/armv7/start.o
 .rel.text.ext4_read_file
                0x0000000087878770        0x8 arch/arm/cpu/armv7/start.o
 .rel.text.put_ext4
                0x0000000087878778       0x20 arch/arm/cpu/armv7/start.o
 .rel.text.ext4fs_set_block_bmap
                0x0000000087878798        0x8 arch/arm/cpu/armv7/start.o
 .rel.text.ext4fs_reset_block_bmap
                0x00000000878787a0        0x8 arch/arm/cpu/armv7/start.o
 .rel.text.ext4fs_set_inode_bmap
                0x00000000878787a8        0x8 arch/arm/cpu/armv7/start.o
 .rel.text.ext4fs_reset_inode_bmap
                0x00000000878787b0        0x8 arch/arm/cpu/armv7/start.o
 .rel.text.ext4fs_get_new_blk_no
                0x00000000878787b8       0x10 arch/arm/cpu/armv7/start.o
 .rel.text.ext4fs_get_new_inode_no
                0x00000000878787c8       0x10 arch/arm/cpu/armv7/start.o
 .rel.text.ext4fs_allocate_blocks
                0x00000000878787d8       0x30 arch/arm/cpu/armv7/start.o
 .rel.text.ext4fs_iget
                0x0000000087878808        0x8 arch/arm/cpu/armv7/start.o
 .rel.text.read_allocated_block
                0x0000000087878810       0xd8 arch/arm/cpu/armv7/start.o
 .rel.text.ext4fs_update_parent_dentry
                0x00000000878788e8       0x48 arch/arm/cpu/armv7/start.o
 .rel.text.search_dir
                0x0000000087878930       0x10 arch/arm/cpu/armv7/start.o
 .rel.text.ext4fs_get_parent_inode_num
                0x0000000087878940       0x28 arch/arm/cpu/armv7/start.o
 .rel.text.ext4fs_filename_unlink
                0x0000000087878968       0x20 arch/arm/cpu/armv7/start.o
 .rel.text.ext4fs_reinit_global
                0x0000000087878988       0x48 arch/arm/cpu/armv7/start.o
 .rel.text.ext4fs_close
                0x00000000878789d0       0x10 arch/arm/cpu/armv7/start.o
 .rel.text.ext4fs_iterate_dir
                0x00000000878789e0       0x30 arch/arm/cpu/armv7/start.o
 .rel.text.ext4fs_find_file1
                0x0000000087878a10       0x10 arch/arm/cpu/armv7/start.o
 .rel.text.ext4fs_find_file
                0x0000000087878a20        0x8 arch/arm/cpu/armv7/start.o
 .rel.text.ext4fs_open
                0x0000000087878a28       0x10 arch/arm/cpu/armv7/start.o
 .rel.text.ext4fs_mount
                0x0000000087878a38       0x10 arch/arm/cpu/armv7/start.o
 .rel.text.ext4fs_set_blk_dev
                0x0000000087878a48       0x10 arch/arm/cpu/armv7/start.o
 .rel.text.ext4fs_devread
                0x0000000087878a58        0x8 arch/arm/cpu/armv7/start.o
 .rel.text.ext4fs_update
                0x0000000087878a60       0x10 arch/arm/cpu/armv7/start.o
 .rel.text.ext4fs_get_bgdtable
                0x0000000087878a70        0x8 arch/arm/cpu/armv7/start.o
 .rel.text.ext4fs_deinit
                0x0000000087878a78        0x8 arch/arm/cpu/armv7/start.o
 .rel.text.ext4fs_init
                0x0000000087878a80       0x10 arch/arm/cpu/armv7/start.o
 .rel.text.ext4fs_write
                0x0000000087878a90       0x80 arch/arm/cpu/armv7/start.o
 .rel.text.ext4_write_file
                0x0000000087878b10       0x10 arch/arm/cpu/armv7/start.o
 .rel.text.ext4fs_dump_metadata
                0x0000000087878b20        0x8 arch/arm/cpu/armv7/start.o
 .rel.text.ext4fs_free_journal
                0x0000000087878b28       0x28 arch/arm/cpu/armv7/start.o
 .rel.text.ext4fs_log_gdt
                0x0000000087878b50       0x10 arch/arm/cpu/armv7/start.o
 .rel.text.ext4fs_log_journal
                0x0000000087878b60       0x20 arch/arm/cpu/armv7/start.o
 .rel.text.ext4fs_put_metadata
                0x0000000087878b80       0x20 arch/arm/cpu/armv7/start.o
 .rel.text.ext4fs_push_revoke_blk
                0x0000000087878ba0       0x28 arch/arm/cpu/armv7/start.o
 .rel.text.ext4fs_free_revoke_blks
                0x0000000087878bc8       0x18 arch/arm/cpu/armv7/start.o
 .rel.text.check_blknr_for_revoke
                0x0000000087878be0        0x8 arch/arm/cpu/armv7/start.o
 .rel.text.recover_transaction
                0x0000000087878be8       0x10 arch/arm/cpu/armv7/start.o
 .rel.text.print_jrnl_status
                0x0000000087878bf8       0x10 arch/arm/cpu/armv7/start.o
 .rel.text.ext4fs_check_journal_state
                0x0000000087878c08       0x18 arch/arm/cpu/armv7/start.o
 .rel.text.ext4fs_init_journal
                0x0000000087878c20       0x38 arch/arm/cpu/armv7/start.o
 .rel.text.ext4fs_update_journal
                0x0000000087878c58       0x20 arch/arm/cpu/armv7/start.o
 .rel.text.ext2fs_crc16
                0x0000000087878c78        0x8 arch/arm/cpu/armv7/start.o
 .rel.text.downcase
                0x0000000087878c80        0x8 arch/arm/cpu/armv7/start.o
 .rel.text.disk_read
                0x0000000087878c88       0x10 arch/arm/cpu/armv7/start.o
 .rel.text.read_bootsectandvi
                0x0000000087878c98       0x20 arch/arm/cpu/armv7/start.o
 .rel.text.fat_itr_root
                0x0000000087878cb8       0x20 arch/arm/cpu/armv7/start.o
 .rel.text.split_filename
                0x0000000087878cd8        0x8 arch/arm/cpu/armv7/start.o
 .rel.text.disk_write
                0x0000000087878ce0       0x20 arch/arm/cpu/armv7/start.o
 .rel.text.get_fatent
                0x0000000087878d00        0x8 arch/arm/cpu/armv7/start.o
 .rel.text.set_name
                0x0000000087878d08        0x8 arch/arm/cpu/armv7/start.o
 .rel.text.normalize_longname
                0x0000000087878d10        0x8 arch/arm/cpu/armv7/start.o
 .rel.text.fat_itr_resolve
                0x0000000087878d18       0x10 arch/arm/cpu/armv7/start.o
 .rel.text.new_dir_table
                0x0000000087878d28        0x8 arch/arm/cpu/armv7/start.o
 .rel.text.set_contents
                0x0000000087878d30       0x28 arch/arm/cpu/armv7/start.o
 .rel.text.fat_set_blk_dev
                0x0000000087878d58       0x28 arch/arm/cpu/armv7/start.o
 .rel.text.file_fat_detectfs
                0x0000000087878d80       0x70 arch/arm/cpu/armv7/start.o
 .rel.text.file_fat_read_at
                0x0000000087878df0       0x10 arch/arm/cpu/armv7/start.o
 .rel.text.fat_read_file
                0x0000000087878e00        0x8 arch/arm/cpu/armv7/start.o
 .rel.text.file_fat_write_at
                0x0000000087878e08       0x48 arch/arm/cpu/armv7/start.o
 .rel.text.fat_unlink
                0x0000000087878e50       0x50 arch/arm/cpu/armv7/start.o
 .rel.text.fat_mkdir
                0x0000000087878ea0       0x68 arch/arm/cpu/armv7/start.o
 .rel.text.fs_devread
                0x0000000087878f08       0x30 arch/arm/cpu/armv7/start.o
 .rel.data.fstypes
                0x0000000087878f38      0x148 arch/arm/cpu/armv7/start.o
 .rel.text.efi_uc_destroy
                0x0000000087879080        0x8 arch/arm/cpu/armv7/start.o
 .rel.text.efi_uc_init
                0x0000000087879088        0x8 arch/arm/cpu/armv7/start.o
 .rel.text.check_node_type
                0x0000000087879090       0x10 arch/arm/cpu/armv7/start.o
 .rel.text.efi_uc_start
                0x00000000878790a0        0x8 arch/arm/cpu/armv7/start.o
 .rel.text.efi_uc_supported
                0x00000000878790a8        0x8 arch/arm/cpu/armv7/start.o
 .rel.text.disconnect_child
                0x00000000878790b0        0x8 arch/arm/cpu/armv7/start.o
 .rel.text.efi_uc_stop
                0x00000000878790b8       0x18 arch/arm/cpu/armv7/start.o
 .rel.text.efi_driver_init
                0x00000000878790d0       0x40 arch/arm/cpu/armv7/start.o
 .rel.text.efi_bl_bind
                0x0000000087879110       0x10 arch/arm/cpu/armv7/start.o
 .rel.text.get_var.constprop.0
                0x0000000087879120       0x10 arch/arm/cpu/armv7/start.o
 .rel.text.try_load_entry
                0x0000000087879130       0x40 arch/arm/cpu/armv7/start.o
 .rel.text.efi_bootmgr_load
                0x0000000087879170       0x48 arch/arm/cpu/armv7/start.o
 .rel.text.efi_is_event
                0x00000000878791b8        0x8 arch/arm/cpu/armv7/start.o
 .rel.text.__efi_entry_check
                0x00000000878791c0       0x18 arch/arm/cpu/armv7/start.o
 .rel.text.__efi_exit_check
                0x00000000878791d8       0x10 arch/arm/cpu/armv7/start.o
 .rel.text.efi_process_event_queue
                0x00000000878791e8       0x10 arch/arm/cpu/armv7/start.o
 .rel.text.efi_queue_event
                0x00000000878791f8        0x8 arch/arm/cpu/armv7/start.o
 .rel.text.efi_get_next_monotonic_count
                0x0000000087879200        0x8 arch/arm/cpu/armv7/start.o
 .rel.text.efi_register_protocol_notify
                0x0000000087879208        0x8 arch/arm/cpu/armv7/start.o
 .rel.text.efi_close_event
                0x0000000087879210        0x8 arch/arm/cpu/armv7/start.o
 .rel.text.efi_raise_tpl
                0x0000000087879218        0x8 arch/arm/cpu/armv7/start.o
 .rel.text.efi_save_gd
                0x0000000087879220        0x8 arch/arm/cpu/armv7/start.o
 .rel.text.efi_restore_gd
                0x0000000087879228        0x8 arch/arm/cpu/armv7/start.o
 .rel.text.efi_signal_event
                0x0000000087879230        0x8 arch/arm/cpu/armv7/start.o
 .rel.text.efi_exit_boot_services
                0x0000000087879238       0x28 arch/arm/cpu/armv7/start.o
 .rel.text.efi_add_handle
                0x0000000087879260        0x8 arch/arm/cpu/armv7/start.o
 .rel.text.efi_create_event
                0x0000000087879268        0x8 arch/arm/cpu/armv7/start.o
 .rel.text.efi_timer_check
                0x0000000087879270       0x10 arch/arm/cpu/armv7/start.o
 .rel.text.efi_wait_for_event
                0x0000000087879280        0x8 arch/arm/cpu/armv7/start.o
 .rel.text.efi_restore_tpl
                0x0000000087879288        0x8 arch/arm/cpu/armv7/start.o
 .rel.text.efi_search_obj
                0x0000000087879290        0x8 arch/arm/cpu/armv7/start.o
 .rel.text.efi_locate_protocol
                0x0000000087879298       0x10 arch/arm/cpu/armv7/start.o
 .rel.text.efi_locate_handle
                0x00000000878792a8       0x10 arch/arm/cpu/armv7/start.o
 .rel.text.efi_locate_device_path
                0x00000000878792b8        0x8 arch/arm/cpu/armv7/start.o
 .rel.text.efi_delete_image
                0x00000000878792c0        0x8 arch/arm/cpu/armv7/start.o
 .rel.text.efi_disconnect_controller
                0x00000000878792c8        0x8 arch/arm/cpu/armv7/start.o
 .rel.text.efi_start_image
                0x00000000878792d0       0x20 arch/arm/cpu/armv7/start.o
 .rel.text.efi_handle_protocol
                0x00000000878792f0        0x8 arch/arm/cpu/armv7/start.o
 .rel.text.efi_bind_controller
                0x00000000878792f8        0x8 arch/arm/cpu/armv7/start.o
 .rel.text.efi_exit
                0x0000000087879300       0x18 arch/arm/cpu/armv7/start.o
 .rel.text.efi_unload_image
                0x0000000087879318        0x8 arch/arm/cpu/armv7/start.o
 .rel.text.efi_connect_controller
                0x0000000087879320        0x8 arch/arm/cpu/armv7/start.o
 .rel.text.efi_add_protocol
                0x0000000087879328       0x10 arch/arm/cpu/armv7/start.o
 .rel.text.efi_install_multiple_protocol_interfaces
                0x0000000087879338        0x8 arch/arm/cpu/armv7/start.o
 .rel.text.efi_install_configuration_table
                0x0000000087879340       0x10 arch/arm/cpu/armv7/start.o
 .rel.text.efi_setup_loaded_image
                0x0000000087879350       0x20 arch/arm/cpu/armv7/start.o
 .rel.text.efi_load_image
                0x0000000087879370       0x18 arch/arm/cpu/armv7/start.o
 .rel.text.efi_initialize_system_table
                0x0000000087879388       0x28 arch/arm/cpu/armv7/start.o
 .rel.text.efi_cout_enable_cursor
                0x00000000878793b0       0x10 arch/arm/cpu/armv7/start.o
 .rel.text.efi_cout_set_cursor_position
                0x00000000878793c0       0x18 arch/arm/cpu/armv7/start.o
 .rel.text.efi_cout_clear_screen
                0x00000000878793d8       0x10 arch/arm/cpu/armv7/start.o
 .rel.text.efi_cout_set_attribute
                0x00000000878793e8       0x20 arch/arm/cpu/armv7/start.o
 .rel.text.efi_cout_reset
                0x0000000087879408       0x10 arch/arm/cpu/armv7/start.o
 .rel.text.efi_cout_output_string
                0x0000000087879418       0x10 arch/arm/cpu/armv7/start.o
 .rel.text.efi_cin_unregister_key_notify
                0x0000000087879428        0x8 arch/arm/cpu/armv7/start.o
 .rel.text.efi_cin_empty_buffer
                0x0000000087879430        0x8 arch/arm/cpu/armv7/start.o
 .rel.text.efi_cin_register_key_notify
                0x0000000087879438        0x8 arch/arm/cpu/armv7/start.o
 .rel.text.efi_cout_set_mode
                0x0000000087879440       0x10 arch/arm/cpu/armv7/start.o
 .rel.text.efi_cout_query_mode
                0x0000000087879450       0x10 arch/arm/cpu/armv7/start.o
 .rel.text.analyze_modifiers.constprop.0
                0x0000000087879460        0x8 arch/arm/cpu/armv7/start.o
 .rel.text.efi_cin_check
                0x0000000087879468      0x1a0 arch/arm/cpu/armv7/start.o
 .rel.text.efi_cin_read_key_stroke
                0x0000000087879608       0x18 arch/arm/cpu/armv7/start.o
 .rel.text.efi_cin_read_key_stroke_ex
                0x0000000087879620       0x18 arch/arm/cpu/armv7/start.o
 .rel.text.efi_console_register
                0x0000000087879638       0xa0 arch/arm/cpu/armv7/start.o
 .rel.text.dp_fill
                0x00000000878796d8        0x8 arch/arm/cpu/armv7/start.o
 .rel.text.find_obj
                0x00000000878796e0       0x10 arch/arm/cpu/armv7/start.o
 .rel.text.efi_dp_append
                0x00000000878796f0        0x8 arch/arm/cpu/armv7/start.o
 .rel.text.efi_dp_append_node
                0x00000000878796f8        0x8 arch/arm/cpu/armv7/start.o
 .rel.text.efi_dp_append_instance
                0x0000000087879700        0x8 arch/arm/cpu/armv7/start.o
 .rel.text.efi_dp_from_part
                0x0000000087879708        0x8 arch/arm/cpu/armv7/start.o
 .rel.text.efi_dp_from_file
                0x0000000087879710        0x8 arch/arm/cpu/armv7/start.o
 .rel.text.efi_dp_from_eth
                0x0000000087879718        0x8 arch/arm/cpu/armv7/start.o
 .rel.text.efi_dp_from_mem
                0x0000000087879720        0x8 arch/arm/cpu/armv7/start.o
 .rel.text.efi_dp_from_name
                0x0000000087879728       0x10 arch/arm/cpu/armv7/start.o
 .rel.text.dp_unknown
                0x0000000087879738        0x8 arch/arm/cpu/armv7/start.o
 .rel.text.efi_convert_single_device_node_to_text
                0x0000000087879740      0x138 arch/arm/cpu/armv7/start.o
 .rel.text.file_open
                0x0000000087879878       0x30 arch/arm/cpu/armv7/start.o
 .rel.text.efi_file_getinfo
                0x00000000878798a8       0x18 arch/arm/cpu/armv7/start.o
 .rel.text.efi_file_setinfo
                0x00000000878798c0        0x8 arch/arm/cpu/armv7/start.o
 .rel.text.efi_file_from_path
                0x00000000878798c8        0x8 arch/arm/cpu/armv7/start.o
 .rel.text.efi_simple_file_system
                0x00000000878798d0        0x8 arch/arm/cpu/armv7/start.o
 .rel.text.efi_hii_packagelist_exists
                0x00000000878798d8        0x8 arch/arm/cpu/armv7/start.o
 .rel.text.get_package_list_handle
                0x00000000878798e0        0x8 arch/arm/cpu/armv7/start.o
 .rel.text.list_package_lists
                0x00000000878798e8        0x8 arch/arm/cpu/armv7/start.o
 .rel.text.find_keyboard_layouts
                0x00000000878798f0        0x8 arch/arm/cpu/armv7/start.o
 .rel.text.get_keyboard_layout
                0x00000000878798f8        0x8 arch/arm/cpu/armv7/start.o
 .rel.text.add_packages
                0x0000000087879900        0x8 arch/arm/cpu/armv7/start.o
 .rel.text.new_package_list
                0x0000000087879908        0x8 arch/arm/cpu/armv7/start.o
 .rel.text.update_package_list
                0x0000000087879910       0x50 arch/arm/cpu/armv7/start.o
 .rel.text.efi_set_code_and_data_type
                0x0000000087879960       0x10 arch/arm/cpu/armv7/start.o
 .rel.text.efi_print_image_infos
                0x0000000087879970       0x38 arch/arm/cpu/armv7/start.o
 .rel.text.efi_load_pe
                0x00000000878799a8       0x40 arch/arm/cpu/armv7/start.o
 .rel.text.efi_check_allocated
                0x00000000878799e8        0x8 arch/arm/cpu/armv7/start.o
 .rel.text.efi_find_free_memory
                0x00000000878799f0        0x8 arch/arm/cpu/armv7/start.o
 .rel.text.efi_add_memory_map
                0x00000000878799f8       0x28 arch/arm/cpu/armv7/start.o
 .rel.text.efi_free_pages
                0x0000000087879a20       0x10 arch/arm/cpu/armv7/start.o
 .rel.text.efi_free_pool
                0x0000000087879a30       0x10 arch/arm/cpu/armv7/start.o
 .rel.text.efi_get_memory_map
                0x0000000087879a40       0x10 arch/arm/cpu/armv7/start.o
 .rel.text.efi_memory_init
                0x0000000087879a50       0x10 arch/arm/cpu/armv7/start.o
 .rel.text.efi_root_node_register
                0x0000000087879a60       0x78 arch/arm/cpu/armv7/start.o
 .rel.text.efi_reset_system_boottime
                0x0000000087879ad8       0x10 arch/arm/cpu/armv7/start.o
 .rel.text.efi_init_runtime_supported
                0x0000000087879ae8        0x8 arch/arm/cpu/armv7/start.o
 .rel.text.efi_runtime_detach
                0x0000000087879af0       0x20 arch/arm/cpu/armv7/start.o
 .rel.text.efi_runtime_relocate
                0x0000000087879b10       0x40 arch/arm/cpu/armv7/start.o
 .rel.text.efi_set_virtual_address_map
                0x0000000087879b50       0x38 arch/arm/cpu/armv7/start.o
 .rel.text.efi_init_obj_list
                0x0000000087879b88       0x38 arch/arm/cpu/armv7/start.o
 .rel.text.efi_str_to_fat
                0x0000000087879bc0       0x10 arch/arm/cpu/armv7/start.o
 .rel.text.efi_fat_to_str
                0x0000000087879bd0        0x8 arch/arm/cpu/armv7/start.o
 .rel.text.efi_to_native
                0x0000000087879bd8       0x10 arch/arm/cpu/armv7/start.o
 .rel.text.parse_attr.part.0
                0x0000000087879be8       0x28 arch/arm/cpu/armv7/start.o
 .rel.text.efi_get_variable
                0x0000000087879c10       0x18 arch/arm/cpu/armv7/start.o
 .rel.text.efi_get_next_variable_name
                0x0000000087879c28       0x18 arch/arm/cpu/armv7/start.o
 .rel.text.efi_set_variable
                0x0000000087879c40       0x48 arch/arm/cpu/armv7/start.o
 .rel.text.efi_variables_boot_exit_notify
                0x0000000087879c88       0x20 arch/arm/cpu/armv7/start.o
 .rel.text.efi_watchdog_timer_notify
                0x0000000087879ca8       0x10 arch/arm/cpu/armv7/start.o
 .rel.text.efi_set_watchdog
                0x0000000087879cb8        0x8 arch/arm/cpu/armv7/start.o
 .rel.text.efi_watchdog_register
                0x0000000087879cc0       0x20 arch/arm/cpu/armv7/start.o
 .rel.text.gop_blt
                0x0000000087879ce0       0x40 arch/arm/cpu/armv7/start.o
 .rel.text.efi_gop_register
                0x0000000087879d20       0x30 arch/arm/cpu/armv7/start.o
 .rel.text.efi_disk_add_dev.isra.0.part.0
                0x0000000087879d50       0x38 arch/arm/cpu/armv7/start.o
 .rel.text.efi_fs_from_path
                0x0000000087879d88        0x8 arch/arm/cpu/armv7/start.o
 .rel.text.efi_disk_create_partitions
                0x0000000087879d90       0x18 arch/arm/cpu/armv7/start.o
 .rel.text.efi_disk_register
                0x0000000087879da8       0x20 arch/arm/cpu/armv7/start.o
 .rel.text.efi_net_push
                0x0000000087879dc8        0x8 arch/arm/cpu/armv7/start.o
 .rel.text.efi_network_timer_notify
                0x0000000087879dd0       0x28 arch/arm/cpu/armv7/start.o
 .rel.text.efi_net_start
                0x0000000087879df8        0x8 arch/arm/cpu/armv7/start.o
 .rel.text.efi_net_get_status
                0x0000000087879e00        0x8 arch/arm/cpu/armv7/start.o
 .rel.text.efi_net_receive
                0x0000000087879e08       0x18 arch/arm/cpu/armv7/start.o
 .rel.text.efi_net_transmit
                0x0000000087879e20       0x10 arch/arm/cpu/armv7/start.o
 .rel.text.efi_net_shutdown
                0x0000000087879e30        0x8 arch/arm/cpu/armv7/start.o
 .rel.text.efi_net_initialize
                0x0000000087879e38        0x8 arch/arm/cpu/armv7/start.o
 .rel.text.efi_net_set_dhcp_ack
                0x0000000087879e40        0x8 arch/arm/cpu/armv7/start.o
 .rel.text.efi_net_register
                0x0000000087879e48      0x128 arch/arm/cpu/armv7/start.o
 .rel.text.efi_smbios_register
                0x0000000087879f70        0x8 arch/arm/cpu/armv7/start.o
 .rel.text.console_read_unicode
                0x0000000087879f78        0x8 arch/arm/cpu/armv7/start.o
 .rel.text.utf8_get
                0x0000000087879f80        0x8 arch/arm/cpu/armv7/start.o
 .rel.text.utf_to_lower
                0x0000000087879f88        0x8 arch/arm/cpu/armv7/start.o
 .rel.text.utf_to_upper
                0x0000000087879f90        0x8 arch/arm/cpu/armv7/start.o
 .rel.text.crc16_ccitt
                0x0000000087879f98        0x8 arch/arm/cpu/armv7/start.o
 .rel.text.smbios_write_type3
                0x0000000087879fa0        0x8 arch/arm/cpu/armv7/start.o
 .rel.text.smbios_write_type2
                0x0000000087879fa8       0x10 arch/arm/cpu/armv7/start.o
 .rel.text.smbios_write_type0
                0x0000000087879fb8       0x18 arch/arm/cpu/armv7/start.o
 .rel.text.smbios_write_type1
                0x0000000087879fd0       0x18 arch/arm/cpu/armv7/start.o
 .rel.text.smbios_write_type4
                0x0000000087879fe8        0x8 arch/arm/cpu/armv7/start.o
 .rel.text.write_smbios_table
                0x0000000087879ff0       0x18 arch/arm/cpu/armv7/start.o
 .rel.text.write_sparse_image
                0x000000008787a008       0x98 arch/arm/cpu/armv7/start.o
 .rel.text.list_sort
                0x000000008787a0a0        0x8 arch/arm/cpu/armv7/start.o
 .rel.text.inflate_fast
                0x000000008787a0a8       0x18 arch/arm/cpu/armv7/start.o
 .rel.text.inflate_table
                0x000000008787a0c0       0x20 arch/arm/cpu/armv7/start.o
 .rel.text.inflateInit2_
                0x000000008787a0e0       0x10 arch/arm/cpu/armv7/start.o
 .rel.text.inflate
                0x000000008787a0f0       0xa0 arch/arm/cpu/armv7/start.o
 .rel.text.gzip_parse_header
                0x000000008787a190       0x10 arch/arm/cpu/armv7/start.o
 .rel.text.zunzip
                0x000000008787a1a0       0x28 arch/arm/cpu/armv7/start.o
 .rel.text.fdt_next_tag
                0x000000008787a1c8       0x48 arch/arm/cpu/armv7/start.o
 .rel.text.fdt_strerror
                0x000000008787a210       0x20 arch/arm/cpu/armv7/start.o
 .rel.text.fdt_address_cells
                0x000000008787a230        0x8 arch/arm/cpu/armv7/start.o
 .rel.text.fdt_size_cells
                0x000000008787a238        0x8 arch/arm/cpu/armv7/start.o
 .rel.text.fdt_get_phandle
                0x000000008787a240       0x10 arch/arm/cpu/armv7/start.o
 .rel.text.fdt_get_alias_namelen
                0x000000008787a250        0x8 arch/arm/cpu/armv7/start.o
 .rel.text.fdtdec_get_is_enabled
                0x000000008787a258       0x10 arch/arm/cpu/armv7/start.o
 .rel.text.fdtdec_get_alias_seq
                0x000000008787a268        0x8 arch/arm/cpu/armv7/start.o
 .rel.text.fdtdec_get_alias_highest_id
                0x000000008787a270        0x8 arch/arm/cpu/armv7/start.o
 .rel.text.fdtdec_prepare_fdt
                0x000000008787a278        0x8 arch/arm/cpu/armv7/start.o
 .rel.text.fdtdec_get_config_int
                0x000000008787a280        0x8 arch/arm/cpu/armv7/start.o
 .rel.text.fdtdec_get_config_string
                0x000000008787a288        0x8 arch/arm/cpu/armv7/start.o
 .rel.text.board_fdt_blob_setup
                0x000000008787a290        0x8 arch/arm/cpu/armv7/start.o
 .rel.text.fdtdec_setup
                0x000000008787a298        0x8 arch/arm/cpu/armv7/start.o
 .rel.text.match_string
                0x000000008787a2a0        0x8 arch/arm/cpu/armv7/start.o
 .rel.text.match_entry
                0x000000008787a2a8        0x8 arch/arm/cpu/armv7/start.o
 .rel.text.hcreate_r
                0x000000008787a2b0        0x8 arch/arm/cpu/armv7/start.o
 .rel.text.hdestroy_r
                0x000000008787a2b8        0x8 arch/arm/cpu/armv7/start.o
 .rel.text.hmatch_r
                0x000000008787a2c0        0x8 arch/arm/cpu/armv7/start.o
 .rel.text.hsearch_r
                0x000000008787a2c8        0x8 arch/arm/cpu/armv7/start.o
 .rel.text.hdelete_r
                0x000000008787a2d0        0x8 arch/arm/cpu/armv7/start.o
 .rel.text.hexport_r
                0x000000008787a2d8       0x18 arch/arm/cpu/armv7/start.o
 .rel.text.himport_r
                0x000000008787a2f0       0x20 arch/arm/cpu/armv7/start.o
 .rel.text.display_options_get_banner_priv
                0x000000008787a310       0x28 arch/arm/cpu/armv7/start.o
 .rel.text.display_options
                0x000000008787a338        0x8 arch/arm/cpu/armv7/start.o
 .rel.text.print_size
                0x000000008787a340       0x28 arch/arm/cpu/armv7/start.o
 .rel.text.print_buffer
                0x000000008787a368       0x28 arch/arm/cpu/armv7/start.o
 .rel.text.hang
                0x000000008787a390        0x8 arch/arm/cpu/armv7/start.o
 .rel.text.skip_spaces
                0x000000008787a398        0x8 arch/arm/cpu/armv7/start.o
 .rel.text.strim
                0x000000008787a3a0        0x8 arch/arm/cpu/armv7/start.o
 .rel.text.lmb_alloc_base
                0x000000008787a3a8        0x8 arch/arm/cpu/armv7/start.o
 .rel.text.emit
                0x000000008787a3b0        0x8 arch/arm/cpu/armv7/start.o
 .rel.text.store_char_in_data
                0x000000008787a3b8        0x8 arch/arm/cpu/armv7/start.o
 .rel.text.match
                0x000000008787a3c0       0x10 arch/arm/cpu/armv7/start.o
 .rel.text.quantifier
                0x000000008787a3d0        0x8 arch/arm/cpu/armv7/start.o
 .rel.text.fixup_branch
                0x000000008787a3d8        0x8 arch/arm/cpu/armv7/start.o
 .rel.text.compile
                0x000000008787a3e0       0x80 arch/arm/cpu/armv7/start.o
 .rel.text.slre_compile
                0x000000008787a460        0x8 arch/arm/cpu/armv7/start.o
 .rel.text.strncasecmp
                0x000000008787a468        0x8 arch/arm/cpu/armv7/start.o
 .rel.text.strtok
                0x000000008787a470        0x8 arch/arm/cpu/armv7/start.o
 .rel.text.uuid_str_valid
                0x000000008787a478        0x8 arch/arm/cpu/armv7/start.o
 .rel.text.uuid_bin_to_str
                0x000000008787a480       0x20 arch/arm/cpu/armv7/start.o
 .rel.text.rand
                0x000000008787a4a0        0x8 arch/arm/cpu/armv7/start.o
 .rel.text.srand
                0x000000008787a4a8        0x8 arch/arm/cpu/armv7/start.o
 .rel.text.__assert_fail
                0x000000008787a4b0        0x8 arch/arm/cpu/armv7/start.o
 .rel.text.number
                0x000000008787a4b8        0x8 arch/arm/cpu/armv7/start.o
 .rel.text.string16
                0x000000008787a4c0        0x8 arch/arm/cpu/armv7/start.o
 .rel.text.string
                0x000000008787a4c8        0x8 arch/arm/cpu/armv7/start.o
 .rel.text.vsnprintf_internal
                0x000000008787a4d0       0xc8 arch/arm/cpu/armv7/start.o
 .rel.text.simple_itoa
                0x000000008787a598        0x8 arch/arm/cpu/armv7/start.o
 .rel.text._parse_integer_fixup_radix
                0x000000008787a5a0        0x8 arch/arm/cpu/armv7/start.o
 .rel.text.simple_strtoul
                0x000000008787a5a8        0x8 arch/arm/cpu/armv7/start.o
 .rel.text.ustrtoul
                0x000000008787a5b0        0x8 arch/arm/cpu/armv7/start.o
 .rel.text.simple_strtoull
                0x000000008787a5b8        0x8 arch/arm/cpu/armv7/start.o
 .rel.text.ustrtoull
                0x000000008787a5c0        0x8 arch/arm/cpu/armv7/start.o
 .rel.text.trailing_strtoln
                0x000000008787a5c8        0x8 arch/arm/cpu/armv7/start.o
 .rel.rodata.driver_ops
                0x000000008787a5d0       0x18 arch/arm/cpu/armv7/start.o
 .rel.rodata.efi_blk_ops
                0x000000008787a5e8       0x10 arch/arm/cpu/armv7/start.o
 .rel.rodata.efi_device_path_to_text
                0x000000008787a5f8       0x10 arch/arm/cpu/armv7/start.o
 .rel.rodata.efi_device_path_utilities
                0x000000008787a608       0x40 arch/arm/cpu/armv7/start.o
 .rel.rodata.efi_file_handle_protocol
                0x000000008787a648       0x70 arch/arm/cpu/armv7/start.o
 .rel.rodata.efi_hii_database
                0x000000008787a6b8       0x58 arch/arm/cpu/armv7/start.o
 .rel.rodata.efi_hii_string
                0x000000008787a710       0x28 arch/arm/cpu/armv7/start.o
 .rel.rodata.efi_hii_config_routing
                0x000000008787a738       0x30 arch/arm/cpu/armv7/start.o
 .rel.rodata.efi_unicode_collation_protocol2
                0x000000008787a768       0x38 arch/arm/cpu/armv7/start.o
 .rel.rodata.smbios_write_funcs
                0x000000008787a7a0       0x38 arch/arm/cpu/armv7/start.o
 .rel.rodata.fdt_errtable
                0x000000008787a7d8       0x90 arch/arm/cpu/armv7/start.o
 .rel.u_boot_list_2_uclass_2_efi
                0x000000008787a868       0x18 arch/arm/cpu/armv7/start.o
 .rel.u_boot_list_2_driver_2_efi_blk
                0x000000008787a880       0x10 arch/arm/cpu/armv7/start.o
 .rel.u_boot_list_2_driver_2_efi_block
                0x000000008787a890       0x10 arch/arm/cpu/armv7/start.o
 .rel.data.efi_boot_services
                0x000000008787a8a0      0x158 arch/arm/cpu/armv7/start.o
 .rel.data.efi_event_queue
                0x000000008787a9f8       0x10 arch/arm/cpu/armv7/start.o
 .rel.data.efi_obj_list
                0x000000008787aa08       0x10 arch/arm/cpu/armv7/start.o
 .rel.data.efi_register_notify_events
                0x000000008787aa18       0x10 arch/arm/cpu/armv7/start.o
 .rel.data.cin_notify_functions
                0x000000008787aa28       0x10 arch/arm/cpu/armv7/start.o
 .rel.data.efi_con_in
                0x000000008787aa38       0x10 arch/arm/cpu/armv7/start.o
 .rel.data.efi_con_in_ex
                0x000000008787aa48       0x28 arch/arm/cpu/armv7/start.o
 .rel.data.efi_con_out
                0x000000008787aa70       0x50 arch/arm/cpu/armv7/start.o
 .rel.data.efi_keyboard_layout_list
                0x000000008787aac0       0x10 arch/arm/cpu/armv7/start.o
 .rel.data.efi_package_lists
                0x000000008787aad0       0x10 arch/arm/cpu/armv7/start.o
 .rel.data.efi_mem
                0x000000008787aae0       0x10 arch/arm/cpu/armv7/start.o
 .rel.data.efi_runtime_mmio
                0x000000008787aaf0       0x10 arch/arm/cpu/armv7/start.o
 .rel.text.arp_init
                0x000000008787ab00       0x30 arch/arm/cpu/armv7/start.o
 .rel.text.arp_raw_request
                0x000000008787ab30       0x18 arch/arm/cpu/armv7/start.o
 .rel.text.arp_request
                0x000000008787ab48       0x38 arch/arm/cpu/armv7/start.o
 .rel.text.arp_timeout_check
                0x000000008787ab80       0x28 arch/arm/cpu/armv7/start.o
 .rel.text.arp_receive
                0x000000008787aba8       0x40 arch/arm/cpu/armv7/start.o
 .rel.text.arp_is_waiting
                0x000000008787abe8        0x8 arch/arm/cpu/armv7/start.o
 .rel.text.dhcp_extended
                0x000000008787abf0       0x28 arch/arm/cpu/armv7/start.o
 .rel.text.dhcp_process_options
                0x000000008787ac18      0x188 arch/arm/cpu/armv7/start.o
 .rel.text.dhcp_packet_process_options
                0x000000008787ada0        0x8 arch/arm/cpu/armv7/start.o
 .rel.text.dhcp_handler
                0x000000008787ada8       0x98 arch/arm/cpu/armv7/start.o
 .rel.text.bootp_reset
                0x000000008787ae40       0x20 arch/arm/cpu/armv7/start.o
 .rel.text.bootp_request
                0x000000008787ae60       0x78 arch/arm/cpu/armv7/start.o
 .rel.text.bootp_timeout_handler
                0x000000008787aed8       0x28 arch/arm/cpu/armv7/start.o
 .rel.text.eth_write_hwaddr
                0x000000008787af00       0x10 arch/arm/cpu/armv7/start.o
 .rel.text.eth_post_probe
                0x000000008787af10       0x40 arch/arm/cpu/armv7/start.o
 .rel.text.eth_post_bind
                0x000000008787af50        0x8 arch/arm/cpu/armv7/start.o
 .rel.text.eth_get_dev
                0x000000008787af58        0x8 arch/arm/cpu/armv7/start.o
 .rel.text.eth_set_dev
                0x000000008787af60        0x8 arch/arm/cpu/armv7/start.o
 .rel.text.eth_get_dev_by_name
                0x000000008787af68        0x8 arch/arm/cpu/armv7/start.o
 .rel.text.eth_init
                0x000000008787af70       0x28 arch/arm/cpu/armv7/start.o
 .rel.text.eth_initialize
                0x000000008787af98       0x28 arch/arm/cpu/armv7/start.o
 .rel.text.eth_env_get_enetaddr_by_index
                0x000000008787afc0       0x10 arch/arm/cpu/armv7/start.o
 .rel.text.eth_env_set_enetaddr_by_index
                0x000000008787afd0       0x10 arch/arm/cpu/armv7/start.o
 .rel.text.eth_mac_skip
                0x000000008787afe0       0x10 arch/arm/cpu/armv7/start.o
 .rel.text.eth_get_name
                0x000000008787aff0        0x8 arch/arm/cpu/armv7/start.o
 .rel.text.eth_current_changed
                0x000000008787aff8       0x18 arch/arm/cpu/armv7/start.o
 .rel.text.eth_try_another
                0x000000008787b010       0x20 arch/arm/cpu/armv7/start.o
 .rel.text.eth_set_current
                0x000000008787b030       0x20 arch/arm/cpu/armv7/start.o
 .rel.text.net_clear_handlers
                0x000000008787b050       0x20 arch/arm/cpu/armv7/start.o
 .rel.text.start_again_timeout_handler
                0x000000008787b070        0x8 arch/arm/cpu/armv7/start.o
 .rel.text.on_ipaddr
                0x000000008787b078        0x8 arch/arm/cpu/armv7/start.o
 .rel.text.on_gatewayip
                0x000000008787b080        0x8 arch/arm/cpu/armv7/start.o
 .rel.text.on_netmask
                0x000000008787b088        0x8 arch/arm/cpu/armv7/start.o
 .rel.text.on_serverip
                0x000000008787b090        0x8 arch/arm/cpu/armv7/start.o
 .rel.text.net_init_loop.part.0
                0x000000008787b098        0x8 arch/arm/cpu/armv7/start.o
 .rel.text.net_init
                0x000000008787b0a0       0x20 arch/arm/cpu/armv7/start.o
 .rel.text.net_start_again
                0x000000008787b0c0       0x78 arch/arm/cpu/armv7/start.o
 .rel.text.net_set_udp_handler
                0x000000008787b138       0x10 arch/arm/cpu/armv7/start.o
 .rel.text.net_get_arp_handler
                0x000000008787b148        0x8 arch/arm/cpu/armv7/start.o
 .rel.text.net_set_timeout_handler
                0x000000008787b150       0x18 arch/arm/cpu/armv7/start.o
 .rel.text.net_get_async_tx_pkt_buf
                0x000000008787b168       0x10 arch/arm/cpu/armv7/start.o
 .rel.text.net_process_received_packet
                0x000000008787b178       0x40 arch/arm/cpu/armv7/start.o
 .rel.text.net_eth_hdr_size
                0x000000008787b1b8        0x8 arch/arm/cpu/armv7/start.o
 .rel.text.net_set_ether
                0x000000008787b1c0       0x10 arch/arm/cpu/armv7/start.o
 .rel.text.net_update_ether
                0x000000008787b1d0        0x8 arch/arm/cpu/armv7/start.o
 .rel.text.net_set_ip_header
                0x000000008787b1d8        0x8 arch/arm/cpu/armv7/start.o
 .rel.text.net_set_udp_header
                0x000000008787b1e0        0x8 arch/arm/cpu/armv7/start.o
 .rel.text.net_send_ip_packet
                0x000000008787b1e8       0x40 arch/arm/cpu/armv7/start.o
 .rel.text.is_serverip_in_cmd
                0x000000008787b228        0x8 arch/arm/cpu/armv7/start.o
 .rel.text.net_check_prereq
                0x000000008787b230       0x58 arch/arm/cpu/armv7/start.o
 .rel.text.net_auto_load
                0x000000008787b288       0x28 arch/arm/cpu/armv7/start.o
 .rel.text.net_loop
                0x000000008787b2b0       0x78 arch/arm/cpu/armv7/start.o
 .rel.text.net_parse_bootfile
                0x000000008787b328        0x8 arch/arm/cpu/armv7/start.o
 .rel.text.ip_to_string
                0x000000008787b330        0x8 arch/arm/cpu/armv7/start.o
 .rel.text.on_nvlan
                0x000000008787b338        0x8 arch/arm/cpu/armv7/start.o
 .rel.text.on_vlan
                0x000000008787b340        0x8 arch/arm/cpu/armv7/start.o
 .rel.text.rpc_lookup_reply
                0x000000008787b348       0x18 arch/arm/cpu/armv7/start.o
 .rel.text.nfs_mount_reply
                0x000000008787b360       0x18 arch/arm/cpu/armv7/start.o
 .rel.text.nfs_umountall_reply
                0x000000008787b378       0x18 arch/arm/cpu/armv7/start.o
 .rel.text.nfs_lookup_reply
                0x000000008787b390       0x30 arch/arm/cpu/armv7/start.o
 .rel.text.nfs_readlink_reply
                0x000000008787b3c0       0x20 arch/arm/cpu/armv7/start.o
 .rel.text.nfs_read_reply
                0x000000008787b3e0       0x30 arch/arm/cpu/armv7/start.o
 .rel.text.rpc_req
                0x000000008787b410       0x40 arch/arm/cpu/armv7/start.o
 .rel.text.nfs_read_req
                0x000000008787b450       0x18 arch/arm/cpu/armv7/start.o
 .rel.text.nfs_readlink_req
                0x000000008787b468       0x18 arch/arm/cpu/armv7/start.o
 .rel.text.nfs_umountall_req
                0x000000008787b480       0x10 arch/arm/cpu/armv7/start.o
 .rel.text.nfs_lookup_req
                0x000000008787b490       0x10 arch/arm/cpu/armv7/start.o
 .rel.text.nfs_send
                0x000000008787b4a0       0x30 arch/arm/cpu/armv7/start.o
 .rel.text.nfs_handler
                0x000000008787b4d0       0x70 arch/arm/cpu/armv7/start.o
 .rel.text.nfs_timeout_handler
                0x000000008787b540       0x20 arch/arm/cpu/armv7/start.o
 .rel.text.nfs_start
                0x000000008787b560       0xd0 arch/arm/cpu/armv7/start.o
 .rel.text.ping_timeout_handler
                0x000000008787b630        0x8 arch/arm/cpu/armv7/start.o
 .rel.text.ping_start
                0x000000008787b638       0x58 arch/arm/cpu/armv7/start.o
 .rel.text.ping_receive
                0x000000008787b690       0x18 arch/arm/cpu/armv7/start.o
 .rel.text.tftp_send
                0x000000008787b6a8       0x80 arch/arm/cpu/armv7/start.o
 .rel.text.tftp_handler
                0x000000008787b728       0xe0 arch/arm/cpu/armv7/start.o
 .rel.text.tftp_timeout_handler
                0x000000008787b808       0x40 arch/arm/cpu/armv7/start.o
 .rel.text.tftp_start
                0x000000008787b848      0x168 arch/arm/cpu/armv7/start.o
 .rel.u_boot_list_2_env_clbk_2_ethaddr
                0x000000008787b9b0       0x10 arch/arm/cpu/armv7/start.o
 .rel.u_boot_list_2_uclass_2_eth
                0x000000008787b9c0       0x28 arch/arm/cpu/armv7/start.o
 .rel.u_boot_list_2_env_clbk_2_gatewayip
                0x000000008787b9e8       0x10 arch/arm/cpu/armv7/start.o
 .rel.u_boot_list_2_env_clbk_2_ipaddr
                0x000000008787b9f8       0x10 arch/arm/cpu/armv7/start.o
 .rel.u_boot_list_2_env_clbk_2_netmask
                0x000000008787ba08       0x10 arch/arm/cpu/armv7/start.o
 .rel.u_boot_list_2_env_clbk_2_nvlan
                0x000000008787ba18       0x10 arch/arm/cpu/armv7/start.o
 .rel.u_boot_list_2_env_clbk_2_serverip
                0x000000008787ba28       0x10 arch/arm/cpu/armv7/start.o
 .rel.u_boot_list_2_env_clbk_2_vlan
                0x000000008787ba38       0x10 arch/arm/cpu/armv7/start.o

.rel_dyn_end    0x000000008787ba48        0x0
 *(.__rel_dyn_end)
 .__rel_dyn_end
                0x000000008787ba48        0x0 arch/arm/lib/built-in.o

.end            0x000000008787ba48        0x0
 *(.__end)
 .__end         0x000000008787ba48        0x0 arch/arm/lib/built-in.o
                0x000000008787ba48                _image_binary_end = .
                0x000000008787c000                . = ALIGN (0x1000)

.mmutable
 *(.mmutable)

.bss_start      0x000000008786e250        0x0
 *(.__bss_start)
 .__bss_start   0x000000008786e250        0x0 arch/arm/lib/built-in.o
                0x000000008786e250                __bss_start
                0x000000008786e250                __bss_base = .

.bss            0x000000008786e250    0x1b524
 *(.bss*)
 .bss.params    0x000000008786e250        0x4 arch/arm/lib/built-in.o
 .bss.modes     0x000000008786e254        0x8 arch/arm/mach-imx/built-in.o
 .bss.bootefi_device_path
                0x000000008786e25c        0x4 cmd/built-in.o
 .bss.bootefi_image_path
                0x000000008786e260        0x4 cmd/built-in.o
 .bss.data.9666
                0x000000008786e264      0x400 cmd/built-in.o
 .bss.working_fdt
                0x000000008786e664        0x4 cmd/built-in.o
                0x000000008786e664                working_fdt
 .bss.i2c_cur_bus
                0x000000008786e668        0x4 cmd/built-in.o
 .bss.i2c_dp_last_addr
                0x000000008786e66c        0x4 cmd/built-in.o
 .bss.i2c_dp_last_alen
                0x000000008786e670        0x4 cmd/built-in.o
 .bss.i2c_dp_last_chip
                0x000000008786e674        0x4 cmd/built-in.o
 .bss.i2c_mm_last_addr
                0x000000008786e678        0x4 cmd/built-in.o
 .bss.i2c_mm_last_alen
                0x000000008786e67c        0x4 cmd/built-in.o
 .bss.i2c_mm_last_chip
                0x000000008786e680        0x4 cmd/built-in.o
 .bss.a_b       0x000000008786e684       0x18 cmd/built-in.o
 .bss.bin_start_address
                0x000000008786e69c        0x4 cmd/built-in.o
 .bss.his_eol   0x000000008786e6a0        0x1 cmd/built-in.o
 .bss.his_pad_char
                0x000000008786e6a1        0x1 cmd/built-in.o
 *fill*         0x000000008786e6a2        0x2 
 .bss.his_pad_count
                0x000000008786e6a4        0x4 cmd/built-in.o
 .bss.his_quote
                0x000000008786e6a8        0x1 cmd/built-in.o
 *fill*         0x000000008786e6a9        0x3 
 .bss.k_data_escape
                0x000000008786e6ac        0x4 cmd/built-in.o
 .bss.k_data_escape_saved
                0x000000008786e6b0        0x4 cmd/built-in.o
 .bss.os_data_addr
                0x000000008786e6b4        0x4 cmd/built-in.o
 .bss.os_data_addr_saved
                0x000000008786e6b8        0x4 cmd/built-in.o
 .bss.os_data_char
                0x000000008786e6bc        0x4 cmd/built-in.o
 .bss.os_data_init
                0x000000008786e6c0        0x4 cmd/built-in.o
 .bss.os_data_state
                0x000000008786e6c4        0x4 cmd/built-in.o
 .bss.os_data_state_saved
                0x000000008786e6c8        0x4 cmd/built-in.o
 .bss.send_parms
                0x000000008786e6cc       0x14 cmd/built-in.o
 .bss.send_ptr  0x000000008786e6e0        0x4 cmd/built-in.o
 .bss.base_address
                0x000000008786e6e4        0x4 cmd/built-in.o
 .bss.dp_last_addr
                0x000000008786e6e8        0x4 cmd/built-in.o
 .bss.dp_last_size
                0x000000008786e6ec        0x4 cmd/built-in.o
 .bss.mm_last_addr
                0x000000008786e6f0        0x4 cmd/built-in.o
 .bss.mm_last_size
                0x000000008786e6f4        0x4 cmd/built-in.o
 .bss.currdev   0x000000008786e6f8        0x4 cmd/built-in.o
 .bss.flash     0x000000008786e6fc        0x4 cmd/built-in.o
 .bss.ums       0x000000008786e700        0x4 cmd/built-in.o
 .bss.ums_count
                0x000000008786e704        0x4 cmd/built-in.o
 .bss.buf.9769  0x000000008786e708       0x28 common/built-in.o
 .bss.do_repeat
                0x000000008786e730        0x4 common/built-in.o
 .bss.flag_repeat
                0x000000008786e734        0x4 common/built-in.o
 .bss.ifs       0x000000008786e738        0x4 common/built-in.o
 .bss.last_return_code
                0x000000008786e73c        0x4 common/built-in.o
 .bss.map       0x000000008786e740      0x100 common/built-in.o
 .bss.the_command.9569
                0x000000008786e840      0x401 common/built-in.o
 *fill*         0x000000008786ec41        0x3 
 .bss.top_vars  0x000000008786ec44        0x4 common/built-in.o
 .bss.stored_bootdelay
                0x000000008786ec48        0x4 common/built-in.o
 .bss.monitor_flash_len
                0x000000008786ec4c        0x4 common/built-in.o
                0x000000008786ec4c                monitor_flash_len
 .bss.images    0x000000008786ec50      0x130 common/built-in.o
                0x000000008786ec50                images
 .bss.current_mii
                0x000000008786ed80        0x4 common/built-in.o
 .bss.mii_devs  0x000000008786ed84        0x8 common/built-in.o
 .bss.usb_started
                0x000000008786ed8c        0x1 common/built-in.o
                0x000000008786ed8c                usb_started
 *fill*         0x000000008786ed8d        0x3 
 .bss.running.11003
                0x000000008786ed90        0x4 common/built-in.o
 .bss.CBWTag    0x000000008786ed94        0x4 common/built-in.o
 *fill*         0x000000008786ed98       0x28 
 .bss.usb_ccb   0x000000008786edc0      0x100 common/built-in.o
 .bss.usb_max_devs
                0x000000008786eec0        0x4 common/built-in.o
 .bss.console_buffer
                0x000000008786eec4      0x401 common/built-in.o
                0x000000008786eec4                console_buffer
 *fill*         0x000000008786f2c5        0x3 
 .bss.hist_add_idx
                0x000000008786f2c8        0x4 common/built-in.o
 .bss.hist_lines
                0x000000008786f2cc     0x5014 common/built-in.o
 .bss.hist_list
                0x00000000878742e0       0x50 common/built-in.o
 .bss.hist_max  0x0000000087874330        0x4 common/built-in.o
 .bss.hist_num  0x0000000087874334        0x4 common/built-in.o
 .bss.initted.9370
                0x0000000087874338        0x4 common/built-in.o
 .bss.cd_count  0x000000008787433c        0xc common/built-in.o
                0x000000008787433c                cd_count
 .bss.console_devices
                0x0000000087874348        0xc common/built-in.o
                0x0000000087874348                console_devices
 .bss.ctrlc_disabled
                0x0000000087874354        0x4 common/built-in.o
 .bss.ctrlc_was_pressed
                0x0000000087874358        0x4 common/built-in.o
 .bss.tstcdev   0x000000008787435c        0x4 common/built-in.o
 .bss.current_mallinfo
                0x0000000087874360       0x28 common/built-in.o
 .bss.max_sbrked_mem
                0x0000000087874388        0x4 common/built-in.o
 .bss.max_total_mem
                0x000000008787438c        0x4 common/built-in.o
 .bss.mem_malloc_brk
                0x0000000087874390        0x4 common/built-in.o
                0x0000000087874390                mem_malloc_brk
 .bss.mem_malloc_end
                0x0000000087874394        0x4 common/built-in.o
                0x0000000087874394                mem_malloc_end
 .bss.mem_malloc_start
                0x0000000087874398        0x4 common/built-in.o
                0x0000000087874398                mem_malloc_start
 .bss.top_pad   0x000000008787439c        0x4 common/built-in.o
 .bss.andr_tmp_str
                0x00000000878743a0      0x201 common/built-in.o
 *fill*         0x00000000878745a1        0x3 
 .bss.devs      0x00000000878745a4       0x4c common/built-in.o
 .bss.stdio_devices
                0x00000000878745f0        0xc common/built-in.o
                0x00000000878745f0                stdio_devices
 .bss.env_complete_buf
                0x00000000878745fc      0x200 common/built-in.o
 .bss.tmp_buf   0x00000000878747fc      0x401 common/built-in.o
 *fill*         0x0000000087874bfd        0x3 
 .bss.xyz       0x0000000087874c00      0x434 common/built-in.o
 .bss.name.9386
                0x0000000087875034       0x25 disk/built-in.o
 .bss.boot_addr_start.9244
                0x0000000087875059       0x14 drivers/built-in.o
 *fill*         0x000000008787506d        0x3 
 .bss.fastboot_buf_addr
                0x0000000087875070        0x4 drivers/built-in.o
                0x0000000087875070                fastboot_buf_addr
 .bss.fastboot_buf_size
                0x0000000087875074        0x4 drivers/built-in.o
                0x0000000087875074                fastboot_buf_size
 .bss.fastboot_progress_callback
                0x0000000087875078        0x4 drivers/built-in.o
                0x0000000087875078                fastboot_progress_callback
 .bss.metrics   0x000000008787507c       0x1c drivers/built-in.o
                0x000000008787507c                metrics
 .bss.fastboot_bytes_expected
                0x0000000087875098        0x4 drivers/built-in.o
 .bss.fastboot_bytes_received
                0x000000008787509c        0x4 drivers/built-in.o
 .bss.g_a_cmd_buff
                0x00000000878750a0       0x40 drivers/built-in.o
 .bss.boot_dev_part.12549
                0x00000000878750e0       0x20 drivers/built-in.o
 .bss.serial    0x0000000087875100       0x20 drivers/built-in.o
 .bss.g_pcount  0x0000000087875120        0x4 drivers/built-in.o
                0x0000000087875120                g_pcount
 .bss.g_ptable  0x0000000087875124      0xc00 drivers/built-in.o
                0x0000000087875124                g_ptable
 .bss.initialized.11114
                0x0000000087875d24        0x4 drivers/built-in.o
 .bss.curr_video_link
                0x0000000087875d28        0x4 drivers/built-in.o
                0x0000000087875d28                curr_video_link
 .bss.temp_stack
                0x0000000087875d2c       0x18 drivers/built-in.o
                0x0000000087875d2c                temp_stack
 .bss.video_links
                0x0000000087875d44       0x48 drivers/built-in.o
                0x0000000087875d44                video_links
 .bss.video_links_num
                0x0000000087875d8c        0x4 drivers/built-in.o
                0x0000000087875d8c                video_links_num
 .bss.video_off
                0x0000000087875d90        0x1 drivers/built-in.o
                0x0000000087875d90                video_off
 *fill*         0x0000000087875d91        0x3 
 .bss.serial_current
                0x0000000087875d94        0x4 drivers/serial/built-in.o
 .bss.serial_devices
                0x0000000087875d98        0x4 drivers/serial/built-in.o
 .bss.wr_sfaddr.10973
                0x0000000087875d9c        0x4 drivers/spi/built-in.o
 .bss.epnum     0x0000000087875da0        0x4 drivers/usb/gadget/built-in.o
 .bss.composite
                0x0000000087875da4        0x4 drivers/usb/gadget/built-in.o
 .bss.g_dnl_detach_request
                0x0000000087875da8        0x1 drivers/usb/gadget/built-in.o
 .bss.g_dnl_serial
                0x0000000087875da9      0x100 drivers/usb/gadget/built-in.o
 *fill*         0x0000000087875ea9        0x3 
 .bss.controller_index
                0x0000000087875eac        0x4 drivers/usb/gadget/built-in.o
 .bss.state.11188
                0x0000000087875eb0        0x4 drivers/usb/gadget/built-in.o
 .bss.the_fsg_common
                0x0000000087875eb4        0x4 drivers/usb/gadget/built-in.o
 .bss.ums       0x0000000087875eb8        0x4 drivers/usb/gadget/built-in.o
 .bss.ums_count
                0x0000000087875ebc        0x4 drivers/usb/gadget/built-in.o
 .bss.unknown.11444
                0x0000000087875ec0       0x10 drivers/usb/gadget/built-in.o
 .bss.fastboot_func
                0x0000000087875ed0        0x4 drivers/usb/gadget/built-in.o
 .bss.dev_array
                0x0000000087875ed4       0x10 drivers/usb/gadget/udc/built-in.o
 .bss.asynch_allowed
                0x0000000087875ee4        0x1 drivers/usb/host/built-in.o
 *fill*         0x0000000087875ee5        0x3 
 .bss.flags_list
                0x0000000087875ee8        0x4 env/built-in.o
 .bss.callback_list
                0x0000000087875eec        0x4 env/built-in.o
 .bss.env_mmc_orig_hwpart
                0x0000000087875ef0        0x1 env/built-in.o
 *fill*         0x0000000087875ef1        0x3 
 .bss.fs_dev_desc
                0x0000000087875ef4        0x4 fs/built-in.o
 .bss.fs_dev_part
                0x0000000087875ef8        0x4 fs/built-in.o
 .bss.fs_partition
                0x0000000087875efc       0x78 fs/built-in.o
 .bss.fs_type   0x0000000087875f74        0x4 fs/built-in.o
 .bss.ext_fs    0x0000000087875f78       0x48 fs/built-in.o
                0x0000000087875f78                ext_fs
 .bss.ext4fs_file
                0x0000000087875fc0        0x4 fs/built-in.o
                0x0000000087875fc0                ext4fs_file
 .bss.ext4fs_indir1_block
                0x0000000087875fc4        0x4 fs/built-in.o
                0x0000000087875fc4                ext4fs_indir1_block
 .bss.ext4fs_indir1_size
                0x0000000087875fc8        0x4 fs/built-in.o
                0x0000000087875fc8                ext4fs_indir1_size
 .bss.ext4fs_indir2_block
                0x0000000087875fcc        0x4 fs/built-in.o
                0x0000000087875fcc                ext4fs_indir2_block
 .bss.ext4fs_indir2_size
                0x0000000087875fd0        0x4 fs/built-in.o
                0x0000000087875fd0                ext4fs_indir2_size
 .bss.ext4fs_indir3_block
                0x0000000087875fd4        0x4 fs/built-in.o
                0x0000000087875fd4                ext4fs_indir3_block
 .bss.ext4fs_indir3_size
                0x0000000087875fd8        0x4 fs/built-in.o
                0x0000000087875fd8                ext4fs_indir3_size
 .bss.ext4fs_root
                0x0000000087875fdc        0x4 fs/built-in.o
                0x0000000087875fdc                ext4fs_root
 .bss.g_parent_inode
                0x0000000087875fe0        0x4 fs/built-in.o
                0x0000000087875fe0                g_parent_inode
 .bss.symlinknest
                0x0000000087875fe4        0x4 fs/built-in.o
 .bss.part_info
                0x0000000087875fe8        0x4 fs/built-in.o
 .bss.part_offset
                0x0000000087875fec        0x4 fs/built-in.o
                0x0000000087875fec                part_offset
 .bss.dirty_block_ptr
                0x0000000087875ff0      0x190 fs/built-in.o
                0x0000000087875ff0                dirty_block_ptr
 .bss.gd_index  0x0000000087876180        0x4 fs/built-in.o
                0x0000000087876180                gd_index
 .bss.gindex    0x0000000087876184        0x4 fs/built-in.o
                0x0000000087876184                gindex
 .bss.journal_ptr
                0x0000000087876188      0x190 fs/built-in.o
                0x0000000087876188                journal_ptr
 .bss.jrnl_blk_idx
                0x0000000087876318        0x4 fs/built-in.o
                0x0000000087876318                jrnl_blk_idx
 .bss.prev_node
                0x000000008787631c        0x4 fs/built-in.o
 .bss.revk_blk_list
                0x0000000087876320        0x4 fs/built-in.o
 .bss.cur_dev   0x0000000087876324        0x4 fs/built-in.o
 .bss.cur_part_info
                0x0000000087876328       0x78 fs/built-in.o
 *fill*         0x00000000878763a0       0x20 
 .bss.tmpbuf_cluster
                0x00000000878763c0    0x10000 fs/built-in.o
 .bss.total_sector
                0x00000000878863c0        0x4 fs/built-in.o
 .bss.rs        0x00000000878863c4        0x4 lib/built-in.o
 .bss.app_gd    0x00000000878863c8        0x4 lib/built-in.o
 .bss.current_image
                0x00000000878863cc        0x4 lib/built-in.o
 .bss.efi_gd    0x00000000878863d0        0x4 lib/built-in.o
 *fill*         0x00000000878863d4        0x4 
 .bss.mono.11978
                0x00000000878863d8        0x8 lib/built-in.o
 .bss.ret.11907
                0x00000000878863e0        0x4 lib/built-in.o
 .bss.console_timer_event
                0x00000000878863e4        0x4 lib/built-in.o
 .bss.key_available
                0x00000000878863e8        0x1 lib/built-in.o
 *fill*         0x00000000878863e9        0x3 
 .bss.next_key  0x00000000878863ec        0xc lib/built-in.o
 .bss.efi_memory_map_key
                0x00000000878863f8        0x4 lib/built-in.o
                0x00000000878863f8                efi_memory_map_key
 .bss.efi_root  0x00000000878863fc        0x4 lib/built-in.o
                0x00000000878863fc                efi_root
 .bss.efi_variables_list
                0x0000000087886400        0x4 lib/built-in.o
 .bss.watchdog_timer_event
                0x0000000087886404        0x4 lib/built-in.o
 .bss.dhcp_ack  0x0000000087886408        0x4 lib/built-in.o
 .bss.network_timer_event
                0x000000008788640c        0x4 lib/built-in.o
 .bss.new_rx_packet
                0x0000000087886410        0x1 lib/built-in.o
 *fill*         0x0000000087886411        0x3 
 .bss.new_tx_packet
                0x0000000087886414        0x4 lib/built-in.o
 .bss.transmit_buffer
                0x0000000087886418        0x4 lib/built-in.o
 .bss.wait_for_packet
                0x000000008788641c        0x4 lib/built-in.o
 .bss.errno     0x0000000087886420        0x4 lib/built-in.o
                0x0000000087886420                errno
 .bss.___strtok
                0x0000000087886424        0x4 lib/built-in.o
                0x0000000087886424                ___strtok
 .bss.local.11507
                0x0000000087886428       0x16 lib/built-in.o
 *fill*         0x000000008788643e        0x2 
 .bss.arp_tx_packet
                0x0000000087886440        0x4 net/built-in.o
                0x0000000087886440                arp_tx_packet
 .bss.arp_tx_packet_buf
                0x0000000087886444      0x640 net/built-in.o
 .bss.arp_wait_packet_ethaddr
                0x0000000087886a84        0x4 net/built-in.o
                0x0000000087886a84                arp_wait_packet_ethaddr
 .bss.arp_wait_timer_start
                0x0000000087886a88        0x4 net/built-in.o
                0x0000000087886a88                arp_wait_timer_start
 .bss.arp_wait_try
                0x0000000087886a8c        0x4 net/built-in.o
                0x0000000087886a8c                arp_wait_try
 .bss.arp_wait_tx_packet_size
                0x0000000087886a90        0x4 net/built-in.o
                0x0000000087886a90                arp_wait_tx_packet_size
 .bss.net_arp_wait_packet_ip
                0x0000000087886a94        0x4 net/built-in.o
                0x0000000087886a94                net_arp_wait_packet_ip
 .bss.net_arp_wait_reply_ip
                0x0000000087886a98        0x4 net/built-in.o
 .bss.bootp_ids
                0x0000000087886a9c       0x10 net/built-in.o
                0x0000000087886a9c                bootp_ids
 .bss.bootp_num_ids
                0x0000000087886aac        0x4 net/built-in.o
                0x0000000087886aac                bootp_num_ids
 .bss.bootp_start
                0x0000000087886ab0        0x4 net/built-in.o
                0x0000000087886ab0                bootp_start
 .bss.bootp_timeout
                0x0000000087886ab4        0x4 net/built-in.o
                0x0000000087886ab4                bootp_timeout
 .bss.bootp_try
                0x0000000087886ab8        0x4 net/built-in.o
                0x0000000087886ab8                bootp_try
 .bss.dhcp_leasetime
                0x0000000087886abc        0x4 net/built-in.o
 .bss.dhcp_option_overload
                0x0000000087886ac0        0x1 net/built-in.o
 *fill*         0x0000000087886ac1        0x3 
 .bss.dhcp_server_ip
                0x0000000087886ac4        0x4 net/built-in.o
 .bss.dhcp_state
                0x0000000087886ac8        0x4 net/built-in.o
 .bss.net_hostname
                0x0000000087886acc       0x20 net/built-in.o
                0x0000000087886acc                net_hostname
 .bss.net_nis_domain
                0x0000000087886aec       0x20 net/built-in.o
                0x0000000087886aec                net_nis_domain
 .bss.net_root_path
                0x0000000087886b0c       0x40 net/built-in.o
                0x0000000087886b0c                net_root_path
 .bss.time_taken_max
                0x0000000087886b4c        0x4 net/built-in.o
 .bss.eth_errno
                0x0000000087886b50        0x4 net/built-in.o
 .bss.act.10486
                0x0000000087886b54        0x4 net/built-in.o
 .bss.env_changed_id.10487
                0x0000000087886b58        0x4 net/built-in.o
 .bss.first_failed.10481
                0x0000000087886b5c        0x4 net/built-in.o
 .bss.arp_packet_handler
                0x0000000087886b60        0x4 net/built-in.o
 .bss.net_boot_file_expected_size_in_blocks
                0x0000000087886b64        0x4 net/built-in.o
                0x0000000087886b64                net_boot_file_expected_size_in_blocks
 .bss.net_boot_file_name
                0x0000000087886b68      0x400 net/built-in.o
                0x0000000087886b68                net_boot_file_name
 .bss.net_boot_file_name_explicit
                0x0000000087886f68        0x1 net/built-in.o
                0x0000000087886f68                net_boot_file_name_explicit
 *fill*         0x0000000087886f69        0x3 
 .bss.net_boot_file_size
                0x0000000087886f6c        0x4 net/built-in.o
                0x0000000087886f6c                net_boot_file_size
 .bss.net_dev_exists
                0x0000000087886f70        0x4 net/built-in.o
 .bss.net_dns_server
                0x0000000087886f74        0x4 net/built-in.o
                0x0000000087886f74                net_dns_server
 .bss.net_ethaddr
                0x0000000087886f78        0x6 net/built-in.o
                0x0000000087886f78                net_ethaddr
 *fill*         0x0000000087886f7e        0x2 
 .bss.net_gateway
                0x0000000087886f80        0x4 net/built-in.o
                0x0000000087886f80                net_gateway
 .bss.net_ip    0x0000000087886f84        0x4 net/built-in.o
                0x0000000087886f84                net_ip
 .bss.net_ip_id
                0x0000000087886f88        0x4 net/built-in.o
 .bss.net_netmask
                0x0000000087886f8c        0x4 net/built-in.o
                0x0000000087886f8c                net_netmask
 .bss.net_pkt_buf
                0x0000000087886f90     0x1e40 net/built-in.o
 .bss.net_restart_wrap
                0x0000000087888dd0        0x4 net/built-in.o
                0x0000000087888dd0                net_restart_wrap
 .bss.net_restarted
                0x0000000087888dd4        0x4 net/built-in.o
 .bss.net_rx_packet
                0x0000000087888dd8        0x4 net/built-in.o
                0x0000000087888dd8                net_rx_packet
 .bss.net_rx_packet_len
                0x0000000087888ddc        0x4 net/built-in.o
                0x0000000087888ddc                net_rx_packet_len
 .bss.net_rx_packets
                0x0000000087888de0       0x10 net/built-in.o
                0x0000000087888de0                net_rx_packets
 .bss.net_server_ethaddr
                0x0000000087888df0        0x6 net/built-in.o
                0x0000000087888df0                net_server_ethaddr
 *fill*         0x0000000087888df6        0x2 
 .bss.net_server_ip
                0x0000000087888df8        0x4 net/built-in.o
                0x0000000087888df8                net_server_ip
 .bss.net_state
                0x0000000087888dfc        0x4 net/built-in.o
                0x0000000087888dfc                net_state
 .bss.net_try_count
                0x0000000087888e00        0x4 net/built-in.o
 .bss.net_tx_packet
                0x0000000087888e04        0x4 net/built-in.o
                0x0000000087888e04                net_tx_packet
 .bss.push_packet
                0x0000000087888e08        0x4 net/built-in.o
                0x0000000087888e08                push_packet
 .bss.time_delta
                0x0000000087888e0c        0x4 net/built-in.o
 .bss.time_handler
                0x0000000087888e10        0x4 net/built-in.o
 .bss.time_start
                0x0000000087888e14        0x8 net/built-in.o
 .bss.udp_packet_handler
                0x0000000087888e1c        0x4 net/built-in.o
 .bss.dirfh     0x0000000087888e20       0x20 net/built-in.o
 .bss.filefh    0x0000000087888e40       0x40 net/built-in.o
 .bss.filefh3_length
                0x0000000087888e80        0x4 net/built-in.o
 .bss.fs_mounted
                0x0000000087888e84        0x4 net/built-in.o
 .bss.nfs_download_state
                0x0000000087888e88        0x4 net/built-in.o
 .bss.nfs_filename
                0x0000000087888e8c        0x4 net/built-in.o
 .bss.nfs_len   0x0000000087888e90        0x4 net/built-in.o
 .bss.nfs_our_port
                0x0000000087888e94        0x4 net/built-in.o
 .bss.nfs_path  0x0000000087888e98        0x4 net/built-in.o
 .bss.nfs_path_buff
                0x0000000087888e9c      0x800 net/built-in.o
 .bss.nfs_server_ip
                0x000000008788969c        0x4 net/built-in.o
 .bss.nfs_server_mount_port
                0x00000000878896a0        0x4 net/built-in.o
 .bss.nfs_server_port
                0x00000000878896a4        0x4 net/built-in.o
 .bss.nfs_state
                0x00000000878896a8        0x4 net/built-in.o
 .bss.nfs_timeout_count
                0x00000000878896ac        0x4 net/built-in.o
 .bss.rpc_id    0x00000000878896b0        0x4 net/built-in.o
 .bss.net_ping_ip
                0x00000000878896b4        0x4 net/built-in.o
                0x00000000878896b4                net_ping_ip
 .bss.ping_seq_number
                0x00000000878896b8        0x2 net/built-in.o
 .bss.default_filename
                0x00000000878896ba        0xd net/built-in.o
 *fill*         0x00000000878896c7        0x1 
 .bss.tftp_block_wrap
                0x00000000878896c8        0x4 net/built-in.o
 .bss.tftp_block_wrap_offset
                0x00000000878896cc        0x4 net/built-in.o
 .bss.tftp_cur_block
                0x00000000878896d0        0x4 net/built-in.o
 .bss.tftp_filename
                0x00000000878896d4       0x80 net/built-in.o
 .bss.tftp_load_addr
                0x0000000087889754        0x4 net/built-in.o
 .bss.tftp_load_size
                0x0000000087889758        0x4 net/built-in.o
 .bss.tftp_our_port
                0x000000008788975c        0x4 net/built-in.o
 .bss.tftp_prev_block
                0x0000000087889760        0x4 net/built-in.o
 .bss.tftp_remote_ip
                0x0000000087889764        0x4 net/built-in.o
 .bss.tftp_remote_port
                0x0000000087889768        0x4 net/built-in.o
 .bss.tftp_state
                0x000000008788976c        0x4 net/built-in.o
 .bss.timeout_count
                0x0000000087889770        0x4 net/built-in.o
                0x0000000087889774                . = ALIGN (0x4)
                0x0000000087889774                __bss_limit = .

.bss_end        0x0000000087889774        0x0
 *(.__bss_end)
 .__bss_end     0x0000000087889774        0x0 arch/arm/lib/built-in.o
                0x0000000087889774                __bss_end

.dynsym         0x000000008787ba48       0x30
 *(.dynsym)
 .dynsym        0x000000008787ba48       0x30 arch/arm/cpu/armv7/start.o

.dynbss         0x000000008787ba78        0x0
 *(.dynbss)
 .dynbss        0x000000008787ba78        0x0 arch/arm/cpu/armv7/start.o

.dynstr         0x000000008787ba78        0x1
 *(.dynstr*)
 .dynstr        0x000000008787ba78        0x1 arch/arm/cpu/armv7/start.o

.dynamic        0x000000008787ba7c       0x90
 *(.dynamic*)
 .dynamic       0x000000008787ba7c       0x90 arch/arm/cpu/armv7/start.o
                0x000000008787ba7c                _DYNAMIC

.plt            0x000000008787bb0c        0x0
 *(.plt*)
 .plt           0x000000008787bb0c        0x0 arch/arm/cpu/armv7/start.o

.interp
 *(.interp*)

.gnu.hash       0x000000008787bb0c       0x18
 *(.gnu.hash)
 .gnu.hash      0x000000008787bb0c       0x18 arch/arm/cpu/armv7/start.o

.gnu            0x000000008787bb24        0x0
 *(.gnu*)
 .gnu.version_d
                0x000000008787bb24        0x0 arch/arm/cpu/armv7/start.o
 .gnu.version   0x000000008787bb24        0x0 arch/arm/cpu/armv7/start.o
 .gnu.version_r
                0x000000008787bb24        0x0 arch/arm/cpu/armv7/start.o

.ARM.exidx
 *(.ARM.exidx*)

.gnu.linkonce.armexidx
 *(.gnu.linkonce.armexidx.*)
LOAD arch/arm/cpu/armv7/start.o
START GROUP
LOAD arch/arm/cpu/built-in.o
LOAD arch/arm/cpu/armv7/built-in.o
LOAD arch/arm/lib/built-in.o
LOAD arch/arm/mach-imx/built-in.o
LOAD board/freescale/common/built-in.o
LOAD board/freescale/mx6ullevk/built-in.o
LOAD cmd/built-in.o
LOAD common/built-in.o
LOAD disk/built-in.o
LOAD drivers/built-in.o
LOAD drivers/dma/built-in.o
LOAD drivers/gpio/built-in.o
LOAD drivers/i2c/built-in.o
LOAD drivers/net/built-in.o
LOAD drivers/net/phy/built-in.o
LOAD drivers/power/built-in.o
LOAD drivers/power/battery/built-in.o
LOAD drivers/power/domain/built-in.o
LOAD drivers/power/fuel_gauge/built-in.o
LOAD drivers/power/mfd/built-in.o
LOAD drivers/power/pmic/built-in.o
LOAD drivers/power/regulator/built-in.o
LOAD drivers/serial/built-in.o
LOAD drivers/spi/built-in.o
LOAD drivers/usb/cdns3/built-in.o
LOAD drivers/usb/common/built-in.o
LOAD drivers/usb/dwc3/built-in.o
LOAD drivers/usb/emul/built-in.o
LOAD drivers/usb/eth/built-in.o
LOAD drivers/usb/gadget/built-in.o
LOAD drivers/usb/gadget/udc/built-in.o
LOAD drivers/usb/host/built-in.o
LOAD drivers/usb/imx/built-in.o
LOAD drivers/usb/musb-new/built-in.o
LOAD drivers/usb/musb/built-in.o
LOAD drivers/usb/phy/built-in.o
LOAD drivers/usb/ulpi/built-in.o
LOAD env/built-in.o
LOAD fs/built-in.o
LOAD lib/built-in.o
LOAD net/built-in.o
END GROUP
LOAD arch/arm/lib/eabi_compat.o
LOAD arch/arm/lib/lib.a
OUTPUT(u-boot elf32-littlearm)

.ARM.attributes
                0x0000000000000000       0x2d
 .ARM.attributes
                0x0000000000000000       0x21 arch/arm/cpu/armv7/start.o
 .ARM.attributes
                0x0000000000000021       0x2f arch/arm/cpu/armv7/built-in.o
 .ARM.attributes
                0x0000000000000050       0x2d arch/arm/lib/built-in.o
 .ARM.attributes
                0x000000000000007d       0x2d arch/arm/mach-imx/built-in.o
 .ARM.attributes
                0x00000000000000aa       0x2d board/freescale/common/built-in.o
 .ARM.attributes
                0x00000000000000d7       0x2d board/freescale/mx6ullevk/built-in.o
 .ARM.attributes
                0x0000000000000104       0x2d cmd/built-in.o
 .ARM.attributes
                0x0000000000000131       0x2d common/built-in.o
 .ARM.attributes
                0x000000000000015e       0x2d disk/built-in.o
 .ARM.attributes
                0x000000000000018b       0x31 drivers/built-in.o
 .ARM.attributes
                0x00000000000001bc       0x2d drivers/gpio/built-in.o
 .ARM.attributes
                0x00000000000001e9       0x2d drivers/i2c/built-in.o
 .ARM.attributes
                0x0000000000000216       0x2d drivers/net/built-in.o
 .ARM.attributes
                0x0000000000000243       0x2d drivers/net/phy/built-in.o
 .ARM.attributes
                0x0000000000000270       0x2d drivers/power/regulator/built-in.o
 .ARM.attributes
                0x000000000000029d       0x2d drivers/serial/built-in.o
 .ARM.attributes
                0x00000000000002ca       0x2d drivers/spi/built-in.o
 .ARM.attributes
                0x00000000000002f7       0x2d drivers/usb/common/built-in.o
 .ARM.attributes
                0x0000000000000324       0x2d drivers/usb/eth/built-in.o
 .ARM.attributes
                0x0000000000000351       0x2d drivers/usb/gadget/built-in.o
 .ARM.attributes
                0x000000000000037e       0x2d drivers/usb/gadget/udc/built-in.o
 .ARM.attributes
                0x00000000000003ab       0x2d drivers/usb/host/built-in.o
 .ARM.attributes
                0x00000000000003d8       0x2d drivers/usb/imx/built-in.o
 .ARM.attributes
                0x0000000000000405       0x2d env/built-in.o
 .ARM.attributes
                0x0000000000000432       0x2d fs/built-in.o
 .ARM.attributes
                0x000000000000045f       0x31 lib/built-in.o
 .ARM.attributes
                0x0000000000000490       0x2d net/built-in.o
 .ARM.attributes
                0x00000000000004bd       0x21 arch/arm/lib/lib.a(lib1funcs.o)
 .ARM.attributes
                0x00000000000004de       0x21 arch/arm/lib/lib.a(uldivmod.o)
 .ARM.attributes
                0x00000000000004ff       0x2d arch/arm/lib/lib.a(div0.o)

.comment        0x0000000000000000       0x5a
 .comment       0x0000000000000000       0x5a arch/arm/cpu/armv7/built-in.o
                                        0x16c (size before relaxing)
 .comment       0x000000000000005a      0x38e arch/arm/lib/built-in.o
 .comment       0x000000000000005a      0x4fa arch/arm/mach-imx/built-in.o
 .comment       0x000000000000005a       0x5b board/freescale/common/built-in.o
 .comment       0x000000000000005a       0x5b board/freescale/mx6ullevk/built-in.o
 .comment       0x000000000000005a      0xfff cmd/built-in.o
 .comment       0x000000000000005a      0xc16 common/built-in.o
 .comment       0x000000000000005a      0x111 disk/built-in.o
 .comment       0x000000000000005a     0x1332 drivers/built-in.o
 .comment       0x000000000000005a      0x111 drivers/gpio/built-in.o
 .comment       0x000000000000005a       0xb6 drivers/i2c/built-in.o
 .comment       0x000000000000005a       0xb6 drivers/net/built-in.o
 .comment       0x000000000000005a       0xb6 drivers/net/phy/built-in.o
 .comment       0x000000000000005a      0x16c drivers/power/regulator/built-in.o
 .comment       0x000000000000005a       0xb6 drivers/serial/built-in.o
 .comment       0x000000000000005a      0x16c drivers/spi/built-in.o
 .comment       0x000000000000005a       0x5b drivers/usb/common/built-in.o
 .comment       0x000000000000005a       0xb6 drivers/usb/eth/built-in.o
 .comment       0x000000000000005a      0x27d drivers/usb/gadget/built-in.o
 .comment       0x000000000000005a       0xb6 drivers/usb/gadget/udc/built-in.o
 .comment       0x000000000000005a      0x111 drivers/usb/host/built-in.o
 .comment       0x000000000000005a       0x5b drivers/usb/imx/built-in.o
 .comment       0x000000000000005a      0x222 env/built-in.o
 .comment       0x000000000000005a      0x333 fs/built-in.o
 .comment       0x000000000000005a     0x1887 lib/built-in.o
 .comment       0x000000000000005a      0x2d8 net/built-in.o
 .comment       0x000000000000005a       0x5b arch/arm/lib/lib.a(div0.o)

.note.GNU-stack
                0x0000000000000000        0x0
 .note.GNU-stack
                0x0000000000000000        0x0 arch/arm/cpu/armv7/built-in.o
 .note.GNU-stack
                0x0000000000000000        0x0 arch/arm/lib/built-in.o
 .note.GNU-stack
                0x0000000000000000        0x0 arch/arm/mach-imx/built-in.o
 .note.GNU-stack
                0x0000000000000000        0x0 board/freescale/common/built-in.o
 .note.GNU-stack
                0x0000000000000000        0x0 board/freescale/mx6ullevk/built-in.o
 .note.GNU-stack
                0x0000000000000000        0x0 cmd/built-in.o
 .note.GNU-stack
                0x0000000000000000        0x0 common/built-in.o
 .note.GNU-stack
                0x0000000000000000        0x0 disk/built-in.o
 .note.GNU-stack
                0x0000000000000000        0x0 drivers/built-in.o
 .note.GNU-stack
                0x0000000000000000        0x0 drivers/gpio/built-in.o
 .note.GNU-stack
                0x0000000000000000        0x0 drivers/i2c/built-in.o
 .note.GNU-stack
                0x0000000000000000        0x0 drivers/net/built-in.o
 .note.GNU-stack
                0x0000000000000000        0x0 drivers/net/phy/built-in.o
 .note.GNU-stack
                0x0000000000000000        0x0 drivers/power/regulator/built-in.o
 .note.GNU-stack
                0x0000000000000000        0x0 drivers/serial/built-in.o
 .note.GNU-stack
                0x0000000000000000        0x0 drivers/spi/built-in.o
 .note.GNU-stack
                0x0000000000000000        0x0 drivers/usb/common/built-in.o
 .note.GNU-stack
                0x0000000000000000        0x0 drivers/usb/eth/built-in.o
 .note.GNU-stack
                0x0000000000000000        0x0 drivers/usb/gadget/built-in.o
 .note.GNU-stack
                0x0000000000000000        0x0 drivers/usb/gadget/udc/built-in.o
 .note.GNU-stack
                0x0000000000000000        0x0 drivers/usb/host/built-in.o
 .note.GNU-stack
                0x0000000000000000        0x0 drivers/usb/imx/built-in.o
 .note.GNU-stack
                0x0000000000000000        0x0 env/built-in.o
 .note.GNU-stack
                0x0000000000000000        0x0 fs/built-in.o
 .note.GNU-stack
                0x0000000000000000        0x0 lib/built-in.o
 .note.GNU-stack
                0x0000000000000000        0x0 net/built-in.o
 .note.GNU-stack
                0x0000000000000000        0x0 arch/arm/lib/lib.a(div0.o)

.debug_line     0x0000000000000000    0xa0a5f
 .debug_line    0x0000000000000000       0x90 arch/arm/cpu/armv7/start.o
 .debug_line    0x0000000000000090      0xa9f arch/arm/cpu/armv7/built-in.o
 .debug_line    0x0000000000000b2f     0x2447 arch/arm/lib/built-in.o
 .debug_line    0x0000000000002f76     0x5740 arch/arm/mach-imx/built-in.o
 .debug_line    0x00000000000086b6      0x211 board/freescale/common/built-in.o
 .debug_line    0x00000000000088c7      0x4d4 board/freescale/mx6ullevk/built-in.o
 .debug_line    0x0000000000008d9b    0x10ec4 cmd/built-in.o
 .debug_line    0x0000000000019c5f    0x14e98 common/built-in.o
 .debug_line    0x000000000002eaf7     0x29be disk/built-in.o
 .debug_line    0x00000000000314b5    0x1c19e drivers/built-in.o
 .debug_line    0x000000000004d653     0x1c4a drivers/gpio/built-in.o
 .debug_line    0x000000000004f29d     0x1ca3 drivers/i2c/built-in.o
 .debug_line    0x0000000000050f40     0x1796 drivers/net/built-in.o
 .debug_line    0x00000000000526d6     0x18db drivers/net/phy/built-in.o
 .debug_line    0x0000000000053fb1     0x19ba drivers/power/regulator/built-in.o
 .debug_line    0x000000000005596b      0xb11 drivers/serial/built-in.o
 .debug_line    0x000000000005647c     0x3096 drivers/spi/built-in.o
 .debug_line    0x0000000000059512      0x2ee drivers/usb/common/built-in.o
 .debug_line    0x0000000000059800      0xebe drivers/usb/eth/built-in.o
 .debug_line    0x000000000005a6be     0x9699 drivers/usb/gadget/built-in.o
 .debug_line    0x0000000000063d57      0xbba drivers/usb/gadget/udc/built-in.o
 .debug_line    0x0000000000064911     0x35f5 drivers/usb/host/built-in.o
 .debug_line    0x0000000000067f06      0x495 drivers/usb/imx/built-in.o
 .debug_line    0x000000000006839b     0x213a env/built-in.o
 .debug_line    0x000000000006a4d5     0xb0f6 fs/built-in.o
 .debug_line    0x00000000000755cb    0x2553e lib/built-in.o
 .debug_line    0x000000000009ab09     0x5d58 net/built-in.o
 .debug_line    0x00000000000a0861       0xf1 arch/arm/lib/lib.a(lib1funcs.o)
 .debug_line    0x00000000000a0952       0xac arch/arm/lib/lib.a(uldivmod.o)
 .debug_line    0x00000000000a09fe       0x61 arch/arm/lib/lib.a(div0.o)

.debug_info     0x0000000000000000   0x29c6b4
 .debug_info    0x0000000000000000       0x26 arch/arm/cpu/armv7/start.o
 .debug_info    0x0000000000000026     0x32a2 arch/arm/cpu/armv7/built-in.o
 .debug_info    0x00000000000032c8     0xcad9 arch/arm/lib/built-in.o
 .debug_info    0x000000000000fda1    0x18115 arch/arm/mach-imx/built-in.o
 .debug_info    0x0000000000027eb6      0xc68 board/freescale/common/built-in.o
 .debug_info    0x0000000000028b1e     0x50db board/freescale/mx6ullevk/built-in.o
 .debug_info    0x000000000002dbf9    0x51d97 cmd/built-in.o
 .debug_info    0x000000000007f990    0x5046a common/built-in.o
 .debug_info    0x00000000000cfdfa     0x7a71 disk/built-in.o
 .debug_info    0x00000000000d786b    0x7bb16 drivers/built-in.o
 .debug_info    0x0000000000153381     0x7bc4 drivers/gpio/built-in.o
 .debug_info    0x000000000015af45     0x6b43 drivers/i2c/built-in.o
 .debug_info    0x0000000000161a88     0x6b32 drivers/net/built-in.o
 .debug_info    0x00000000001685ba     0x57eb drivers/net/phy/built-in.o
 .debug_info    0x000000000016dda5     0x826b drivers/power/regulator/built-in.o
 .debug_info    0x0000000000176010     0x3882 drivers/serial/built-in.o
 .debug_info    0x0000000000179892     0xca9a drivers/spi/built-in.o
 .debug_info    0x000000000018632c     0x126c drivers/usb/common/built-in.o
 .debug_info    0x0000000000187598     0x538b drivers/usb/eth/built-in.o
 .debug_info    0x000000000018c923    0x1cef4 drivers/usb/gadget/built-in.o
 .debug_info    0x00000000001a9817     0x42d2 drivers/usb/gadget/udc/built-in.o
 .debug_info    0x00000000001adae9     0xca2f drivers/usb/host/built-in.o
 .debug_info    0x00000000001ba518     0x26a9 drivers/usb/imx/built-in.o
 .debug_info    0x00000000001bcbc1     0x9a00 env/built-in.o
 .debug_info    0x00000000001c65c1    0x20126 fs/built-in.o
 .debug_info    0x00000000001e66e7    0x9f844 lib/built-in.o
 .debug_info    0x0000000000285f2b    0x166ef net/built-in.o
 .debug_info    0x000000000029c61a       0x22 arch/arm/lib/lib.a(lib1funcs.o)
 .debug_info    0x000000000029c63c       0x26 arch/arm/lib/lib.a(uldivmod.o)
 .debug_info    0x000000000029c662       0x52 arch/arm/lib/lib.a(div0.o)

.debug_abbrev   0x0000000000000000    0x4e2c1
 .debug_abbrev  0x0000000000000000       0x14 arch/arm/cpu/armv7/start.o
 .debug_abbrev  0x0000000000000014      0xa80 arch/arm/cpu/armv7/built-in.o
 .debug_abbrev  0x0000000000000a94     0x1d2b arch/arm/lib/built-in.o
 .debug_abbrev  0x00000000000027bf     0x3334 arch/arm/mach-imx/built-in.o
 .debug_abbrev  0x0000000000005af3      0x2d3 board/freescale/common/built-in.o
 .debug_abbrev  0x0000000000005dc6      0x460 board/freescale/mx6ullevk/built-in.o
 .debug_abbrev  0x0000000000006226     0xadbc cmd/built-in.o
 .debug_abbrev  0x0000000000010fe2     0x9add common/built-in.o
 .debug_abbrev  0x000000000001aabf     0x11c7 disk/built-in.o
 .debug_abbrev  0x000000000001bc86     0xf145 drivers/built-in.o
 .debug_abbrev  0x000000000002adcb      0xe42 drivers/gpio/built-in.o
 .debug_abbrev  0x000000000002bc0d      0xc7d drivers/i2c/built-in.o
 .debug_abbrev  0x000000000002c88a      0xb22 drivers/net/built-in.o
 .debug_abbrev  0x000000000002d3ac      0xa14 drivers/net/phy/built-in.o
 .debug_abbrev  0x000000000002ddc0     0x1007 drivers/power/regulator/built-in.o
 .debug_abbrev  0x000000000002edc7      0x994 drivers/serial/built-in.o
 .debug_abbrev  0x000000000002f75b     0x136a drivers/spi/built-in.o
 .debug_abbrev  0x0000000000030ac5      0x2c1 drivers/usb/common/built-in.o
 .debug_abbrev  0x0000000000030d86      0x9cf drivers/usb/eth/built-in.o
 .debug_abbrev  0x0000000000031755     0x29d8 drivers/usb/gadget/built-in.o
 .debug_abbrev  0x000000000003412d      0x978 drivers/usb/gadget/udc/built-in.o
 .debug_abbrev  0x0000000000034aa5     0x1444 drivers/usb/host/built-in.o
 .debug_abbrev  0x0000000000035ee9      0x465 drivers/usb/imx/built-in.o
 .debug_abbrev  0x000000000003634e     0x1a6b env/built-in.o
 .debug_abbrev  0x0000000000037db9     0x2f4f fs/built-in.o
 .debug_abbrev  0x000000000003ad08    0x10b8b lib/built-in.o
 .debug_abbrev  0x000000000004b893     0x29ba net/built-in.o
 .debug_abbrev  0x000000000004e24d       0x12 arch/arm/lib/lib.a(lib1funcs.o)
 .debug_abbrev  0x000000000004e25f       0x14 arch/arm/lib/lib.a(uldivmod.o)
 .debug_abbrev  0x000000000004e273       0x4e arch/arm/lib/lib.a(div0.o)

.debug_aranges  0x0000000000000000     0x75f0
 .debug_aranges
                0x0000000000000000       0x20 arch/arm/cpu/armv7/start.o
 .debug_aranges
                0x0000000000000020      0x148 arch/arm/cpu/armv7/built-in.o
 .debug_aranges
                0x0000000000000168      0x328 arch/arm/lib/built-in.o
 .debug_aranges
                0x0000000000000490      0x458 arch/arm/mach-imx/built-in.o
 .debug_aranges
                0x00000000000008e8       0x28 board/freescale/common/built-in.o
 .debug_aranges
                0x0000000000000910       0x48 board/freescale/mx6ullevk/built-in.o
 .debug_aranges
                0x0000000000000958      0xb28 cmd/built-in.o
 .debug_aranges
                0x0000000000001480      0xfd8 common/built-in.o
 .debug_aranges
                0x0000000000002458      0x180 disk/built-in.o
 .debug_aranges
                0x00000000000025d8     0x1640 drivers/built-in.o
 .debug_aranges
                0x0000000000003c18      0x238 drivers/gpio/built-in.o
 .debug_aranges
                0x0000000000003e50      0x158 drivers/i2c/built-in.o
 .debug_aranges
                0x0000000000003fa8       0xe0 drivers/net/built-in.o
 .debug_aranges
                0x0000000000004088       0xf8 drivers/net/phy/built-in.o
 .debug_aranges
                0x0000000000004180      0x190 drivers/power/regulator/built-in.o
 .debug_aranges
                0x0000000000004310      0x110 drivers/serial/built-in.o
 .debug_aranges
                0x0000000000004420      0x1c8 drivers/spi/built-in.o
 .debug_aranges
                0x00000000000045e8       0x28 drivers/usb/common/built-in.o
 .debug_aranges
                0x0000000000004610       0xd0 drivers/usb/eth/built-in.o
 .debug_aranges
                0x00000000000046e0      0x428 drivers/usb/gadget/built-in.o
 .debug_aranges
                0x0000000000004b08       0xb0 drivers/usb/gadget/udc/built-in.o
 .debug_aranges
                0x0000000000004bb8      0x238 drivers/usb/host/built-in.o
 .debug_aranges
                0x0000000000004df0       0x30 drivers/usb/imx/built-in.o
 .debug_aranges
                0x0000000000004e20      0x1e0 env/built-in.o
 .debug_aranges
                0x0000000000005000      0x570 fs/built-in.o
 .debug_aranges
                0x0000000000005570     0x1bf8 lib/built-in.o
 .debug_aranges
                0x0000000000007168      0x400 net/built-in.o
 .debug_aranges
                0x0000000000007568       0x48 arch/arm/lib/lib.a(lib1funcs.o)
 .debug_aranges
                0x00000000000075b0       0x20 arch/arm/lib/lib.a(uldivmod.o)
 .debug_aranges
                0x00000000000075d0       0x20 arch/arm/lib/lib.a(div0.o)

.debug_str      0x0000000000000000    0x2f198
 .debug_str     0x0000000000000000       0x3f arch/arm/cpu/armv7/start.o
 .debug_str     0x000000000000003f      0xb9a arch/arm/cpu/armv7/built-in.o
                                       0x2af8 (size before relaxing)
 .debug_str     0x0000000000000bd9     0x2ce4 arch/arm/lib/built-in.o
                                       0xb0f8 (size before relaxing)
 .debug_str     0x00000000000038bd     0x2706 arch/arm/mach-imx/built-in.o
                                      0x12a27 (size before relaxing)
 .debug_str     0x0000000000005fc3       0x84 board/freescale/common/built-in.o
                                        0xa4d (size before relaxing)
 .debug_str     0x0000000000006047     0x7cd6 board/freescale/mx6ullevk/built-in.o
                                       0x9796 (size before relaxing)
 .debug_str     0x000000000000dd1d     0x5278 cmd/built-in.o
                                      0x3c85c (size before relaxing)
 .debug_str     0x0000000000012f95     0x44b8 common/built-in.o
                                      0x361dc (size before relaxing)
 .debug_str     0x000000000001744d      0x75b disk/built-in.o
                                       0x3f4a (size before relaxing)
 .debug_str     0x0000000000017ba8     0x74fd drivers/built-in.o
                                      0x54f96 (size before relaxing)
 .debug_str     0x000000000001f0a5      0x6ce drivers/gpio/built-in.o
                                       0x4cf0 (size before relaxing)
 .debug_str     0x000000000001f773      0x5d2 drivers/i2c/built-in.o
                                       0x378d (size before relaxing)
 .debug_str     0x000000000001fd45      0x946 drivers/net/built-in.o
                                       0x3c00 (size before relaxing)
 .debug_str     0x000000000002068b      0x29a drivers/net/phy/built-in.o
                                       0x3596 (size before relaxing)
 .debug_str     0x0000000000020925      0x75a drivers/power/regulator/built-in.o
                                       0x63d8 (size before relaxing)
 .debug_str     0x000000000002107f      0x223 drivers/serial/built-in.o
                                       0x2bda (size before relaxing)
 .debug_str     0x00000000000212a2      0x84c drivers/spi/built-in.o
                                       0x65a4 (size before relaxing)
 .debug_str     0x0000000000021aee       0xb3 drivers/usb/common/built-in.o
                                       0x1312 (size before relaxing)
 .debug_str     0x0000000000021ba1      0x362 drivers/usb/eth/built-in.o
                                       0x3764 (size before relaxing)
 .debug_str     0x0000000000021f03     0x2722 drivers/usb/gadget/built-in.o
                                       0xd640 (size before relaxing)
 .debug_str     0x0000000000024625      0x1e8 drivers/usb/gadget/udc/built-in.o
                                       0x335e (size before relaxing)
 .debug_str     0x000000000002480d      0x71f drivers/usb/host/built-in.o
                                       0x6690 (size before relaxing)
 .debug_str     0x0000000000024f2c       0xf8 drivers/usb/imx/built-in.o
                                       0x1e8f (size before relaxing)
 .debug_str     0x0000000000025024      0x798 env/built-in.o
                                       0x801c (size before relaxing)
 .debug_str     0x00000000000257bc     0x1ea4 fs/built-in.o
                                       0xfe17 (size before relaxing)
 .debug_str     0x0000000000027660     0x678e lib/built-in.o
                                      0x623ef (size before relaxing)
 .debug_str     0x000000000002ddee     0x135e net/built-in.o
                                      0x1079d (size before relaxing)
 .debug_str     0x000000000002f14c       0x19 arch/arm/lib/lib.a(lib1funcs.o)
                                         0x3d (size before relaxing)
 .debug_str     0x000000000002f165       0x18 arch/arm/lib/lib.a(uldivmod.o)
                                         0x3c (size before relaxing)
 .debug_str     0x000000000002f17d       0x1b arch/arm/lib/lib.a(div0.o)
                                        0x1ce (size before relaxing)

.debug_frame    0x0000000000000000    0x15f78
 .debug_frame   0x0000000000000000      0x1ec arch/arm/cpu/armv7/built-in.o
 .debug_frame   0x00000000000001ec      0x4a8 arch/arm/lib/built-in.o
 .debug_frame   0x0000000000000694      0xa44 arch/arm/mach-imx/built-in.o
 .debug_frame   0x00000000000010d8       0x40 board/freescale/common/built-in.o
 .debug_frame   0x0000000000001118       0xa4 board/freescale/mx6ullevk/built-in.o
 .debug_frame   0x00000000000011bc     0x1ef4 cmd/built-in.o
 .debug_frame   0x00000000000030b0     0x3158 common/built-in.o
 .debug_frame   0x0000000000006208      0x614 disk/built-in.o
 .debug_frame   0x000000000000681c     0x43c0 drivers/built-in.o
 .debug_frame   0x000000000000abdc      0x740 drivers/gpio/built-in.o
 .debug_frame   0x000000000000b31c      0x4cc drivers/i2c/built-in.o
 .debug_frame   0x000000000000b7e8      0x2b0 drivers/net/built-in.o
 .debug_frame   0x000000000000ba98      0x2cc drivers/net/phy/built-in.o
 .debug_frame   0x000000000000bd64      0x4f8 drivers/power/regulator/built-in.o
 .debug_frame   0x000000000000c25c      0x294 drivers/serial/built-in.o
 .debug_frame   0x000000000000c4f0      0x578 drivers/spi/built-in.o
 .debug_frame   0x000000000000ca68       0x48 drivers/usb/common/built-in.o
 .debug_frame   0x000000000000cab0      0x298 drivers/usb/eth/built-in.o
 .debug_frame   0x000000000000cd48      0xc80 drivers/usb/gadget/built-in.o
 .debug_frame   0x000000000000d9c8      0x1a0 drivers/usb/gadget/udc/built-in.o
 .debug_frame   0x000000000000db68      0x6f0 drivers/usb/host/built-in.o
 .debug_frame   0x000000000000e258       0x50 drivers/usb/imx/built-in.o
 .debug_frame   0x000000000000e2a8      0x560 env/built-in.o
 .debug_frame   0x000000000000e808     0x13c4 fs/built-in.o
 .debug_frame   0x000000000000fbcc     0x56a8 lib/built-in.o
 .debug_frame   0x0000000000015274      0xcdc net/built-in.o
 .debug_frame   0x0000000000015f50       0x28 arch/arm/lib/lib.a(div0.o)

.debug_loc      0x0000000000000000    0xdbf58
 .debug_loc     0x0000000000000000      0x583 arch/arm/cpu/armv7/built-in.o
 .debug_loc     0x0000000000000583     0x1425 arch/arm/lib/built-in.o
 .debug_loc     0x00000000000019a8     0x55e6 arch/arm/mach-imx/built-in.o
 .debug_loc     0x0000000000006f8e       0x37 board/freescale/common/built-in.o
 .debug_loc     0x0000000000006fc5       0xc0 board/freescale/mx6ullevk/built-in.o
 .debug_loc     0x0000000000007085    0x18d19 cmd/built-in.o
 .debug_loc     0x000000000001fd9e    0x1b859 common/built-in.o
 .debug_loc     0x000000000003b5f7     0x396d disk/built-in.o
 .debug_loc     0x000000000003ef64    0x223c1 drivers/built-in.o
 .debug_loc     0x0000000000061325     0x2b4e drivers/gpio/built-in.o
 .debug_loc     0x0000000000063e73     0x3030 drivers/i2c/built-in.o
 .debug_loc     0x0000000000066ea3     0x21a3 drivers/net/built-in.o
 .debug_loc     0x0000000000069046     0x2252 drivers/net/phy/built-in.o
 .debug_loc     0x000000000006b298     0x1f88 drivers/power/regulator/built-in.o
 .debug_loc     0x000000000006d220      0x7e0 drivers/serial/built-in.o
 .debug_loc     0x000000000006da00     0x5e35 drivers/spi/built-in.o
 .debug_loc     0x0000000000073835      0x166 drivers/usb/common/built-in.o
 .debug_loc     0x000000000007399b      0xfbd drivers/usb/eth/built-in.o
 .debug_loc     0x0000000000074958     0xe290 drivers/usb/gadget/built-in.o
 .debug_loc     0x0000000000082be8      0xc15 drivers/usb/gadget/udc/built-in.o
 .debug_loc     0x00000000000837fd     0x56c2 drivers/usb/host/built-in.o
 .debug_loc     0x0000000000088ebf      0x5f3 drivers/usb/imx/built-in.o
 .debug_loc     0x00000000000894b2     0x22e0 env/built-in.o
 .debug_loc     0x000000000008b792    0x11f6f fs/built-in.o
 .debug_loc     0x000000000009d701    0x38114 lib/built-in.o
 .debug_loc     0x00000000000d5815     0x6743 net/built-in.o

.debug_ranges   0x0000000000000000    0x165c8
 .debug_ranges  0x0000000000000000      0x140 arch/arm/cpu/armv7/built-in.o
 .debug_ranges  0x0000000000000140      0x5f0 arch/arm/lib/built-in.o
 .debug_ranges  0x0000000000000730      0xac8 arch/arm/mach-imx/built-in.o
 .debug_ranges  0x00000000000011f8       0x18 board/freescale/common/built-in.o
 .debug_ranges  0x0000000000001210       0xa0 board/freescale/mx6ullevk/built-in.o
 .debug_ranges  0x00000000000012b0     0x20c0 cmd/built-in.o
 .debug_ranges  0x0000000000003370     0x2a28 common/built-in.o
 .debug_ranges  0x0000000000005d98      0x660 disk/built-in.o
 .debug_ranges  0x00000000000063f8     0x3b28 drivers/built-in.o
 .debug_ranges  0x0000000000009f20      0x2d8 drivers/gpio/built-in.o
 .debug_ranges  0x000000000000a1f8      0x418 drivers/i2c/built-in.o
 .debug_ranges  0x000000000000a610      0x518 drivers/net/built-in.o
 .debug_ranges  0x000000000000ab28      0x588 drivers/net/phy/built-in.o
 .debug_ranges  0x000000000000b0b0      0x200 drivers/power/regulator/built-in.o
 .debug_ranges  0x000000000000b2b0      0x1c8 drivers/serial/built-in.o
 .debug_ranges  0x000000000000b478      0x5f8 drivers/spi/built-in.o
 .debug_ranges  0x000000000000ba70       0x18 drivers/usb/common/built-in.o
 .debug_ranges  0x000000000000ba88      0x1c0 drivers/usb/eth/built-in.o
 .debug_ranges  0x000000000000bc48     0x2600 drivers/usb/gadget/built-in.o
 .debug_ranges  0x000000000000e248      0x188 drivers/usb/gadget/udc/built-in.o
 .debug_ranges  0x000000000000e3d0      0x8d8 drivers/usb/host/built-in.o
 .debug_ranges  0x000000000000eca8       0x98 drivers/usb/imx/built-in.o
 .debug_ranges  0x000000000000ed40      0x3b0 env/built-in.o
 .debug_ranges  0x000000000000f0f0     0x1688 fs/built-in.o
 .debug_ranges  0x0000000000010778     0x50c0 lib/built-in.o
 .debug_ranges  0x0000000000015838      0xd40 net/built-in.o
 .debug_ranges  0x0000000000016578       0x40 arch/arm/lib/lib.a(lib1funcs.o)
 .debug_ranges  0x00000000000165b8       0x10 arch/arm/lib/lib.a(div0.o)
